
test/test_shell.elf:     file format elf64-littleriscv


Disassembly of section .text:

0000000000010000 <panic>:
   10000:	1101                	addi	sp,sp,-32
   10002:	ec06                	sd	ra,24(sp)
   10004:	e822                	sd	s0,16(sp)
   10006:	1000                	addi	s0,sp,32
   10008:	fea43423          	sd	a0,-24(s0)
   1000c:	fe843583          	ld	a1,-24(s0)
   10010:	00003517          	auipc	a0,0x3
   10014:	b1850513          	addi	a0,a0,-1256 # 12b28 <clear_bss_done+0x4fa>
   10018:	5f0010ef          	jal	ra,11608 <printf>
   1001c:	c2818793          	addi	a5,gp,-984 # 13198 <__SDATA_BEGIN__>
   10020:	439c                	lw	a5,0(a5)
   10022:	2785                	addiw	a5,a5,1
   10024:	0007871b          	sext.w	a4,a5
   10028:	c2818793          	addi	a5,gp,-984 # 13198 <__SDATA_BEGIN__>
   1002c:	c398                	sw	a4,0(a5)
   1002e:	0001                	nop
   10030:	60e2                	ld	ra,24(sp)
   10032:	6442                	ld	s0,16(sp)
   10034:	6105                	addi	sp,sp,32
   10036:	8082                	ret

0000000000010038 <shell_help>:
   10038:	7139                	addi	sp,sp,-64
   1003a:	fc06                	sd	ra,56(sp)
   1003c:	f822                	sd	s0,48(sp)
   1003e:	0080                	addi	s0,sp,64
   10040:	87aa                	mv	a5,a0
   10042:	fcb43023          	sd	a1,-64(s0)
   10046:	fcf42623          	sw	a5,-52(s0)
   1004a:	fcc42783          	lw	a5,-52(s0)
   1004e:	2781                	sext.w	a5,a5
   10050:	14f05063          	blez	a5,10190 <shell_help+0x158>
   10054:	fe042223          	sw	zero,-28(s0)
   10058:	fe442703          	lw	a4,-28(s0)
   1005c:	fcc42783          	lw	a5,-52(s0)
   10060:	2701                	sext.w	a4,a4
   10062:	2781                	sext.w	a5,a5
   10064:	20f75263          	bge	a4,a5,10268 <shell_help+0x230>
   10068:	fe442783          	lw	a5,-28(s0)
   1006c:	078e                	slli	a5,a5,0x3
   1006e:	fc043703          	ld	a4,-64(s0)
   10072:	97ba                	add	a5,a5,a4
   10074:	639c                	ld	a5,0(a5)
   10076:	fcf43c23          	sd	a5,-40(s0)
   1007a:	fe042623          	sw	zero,-20(s0)
   1007e:	a8e5                	j	10176 <shell_help+0x13e>
   10080:	00003697          	auipc	a3,0x3
   10084:	d4068693          	addi	a3,a3,-704 # 12dc0 <cmd_table>
   10088:	fec42703          	lw	a4,-20(s0)
   1008c:	87ba                	mv	a5,a4
   1008e:	0786                	slli	a5,a5,0x1
   10090:	97ba                	add	a5,a5,a4
   10092:	0792                	slli	a5,a5,0x4
   10094:	97b6                	add	a5,a5,a3
   10096:	639c                	ld	a5,0(a5)
   10098:	85be                	mv	a1,a5
   1009a:	fd843503          	ld	a0,-40(s0)
   1009e:	059010ef          	jal	ra,118f6 <strcmp>
   100a2:	87aa                	mv	a5,a0
   100a4:	c785                	beqz	a5,100cc <shell_help+0x94>
   100a6:	00003697          	auipc	a3,0x3
   100aa:	d1a68693          	addi	a3,a3,-742 # 12dc0 <cmd_table>
   100ae:	fec42703          	lw	a4,-20(s0)
   100b2:	87ba                	mv	a5,a4
   100b4:	0786                	slli	a5,a5,0x1
   100b6:	97ba                	add	a5,a5,a4
   100b8:	0792                	slli	a5,a5,0x4
   100ba:	97b6                	add	a5,a5,a3
   100bc:	679c                	ld	a5,8(a5)
   100be:	85be                	mv	a1,a5
   100c0:	fd843503          	ld	a0,-40(s0)
   100c4:	033010ef          	jal	ra,118f6 <strcmp>
   100c8:	87aa                	mv	a5,a0
   100ca:	e3cd                	bnez	a5,1016c <shell_help+0x134>
   100cc:	00003697          	auipc	a3,0x3
   100d0:	cf468693          	addi	a3,a3,-780 # 12dc0 <cmd_table>
   100d4:	fec42703          	lw	a4,-20(s0)
   100d8:	87ba                	mv	a5,a4
   100da:	0786                	slli	a5,a5,0x1
   100dc:	97ba                	add	a5,a5,a4
   100de:	0792                	slli	a5,a5,0x4
   100e0:	97b6                	add	a5,a5,a3
   100e2:	638c                	ld	a1,0(a5)
   100e4:	00003697          	auipc	a3,0x3
   100e8:	cdc68693          	addi	a3,a3,-804 # 12dc0 <cmd_table>
   100ec:	fec42703          	lw	a4,-20(s0)
   100f0:	87ba                	mv	a5,a4
   100f2:	0786                	slli	a5,a5,0x1
   100f4:	97ba                	add	a5,a5,a4
   100f6:	0792                	slli	a5,a5,0x4
   100f8:	97b6                	add	a5,a5,a3
   100fa:	6790                	ld	a2,8(a5)
   100fc:	00003697          	auipc	a3,0x3
   10100:	cc468693          	addi	a3,a3,-828 # 12dc0 <cmd_table>
   10104:	fec42703          	lw	a4,-20(s0)
   10108:	87ba                	mv	a5,a4
   1010a:	0786                	slli	a5,a5,0x1
   1010c:	97ba                	add	a5,a5,a4
   1010e:	0792                	slli	a5,a5,0x4
   10110:	97b6                	add	a5,a5,a3
   10112:	6b88                	ld	a0,16(a5)
   10114:	00003697          	auipc	a3,0x3
   10118:	cac68693          	addi	a3,a3,-852 # 12dc0 <cmd_table>
   1011c:	fec42703          	lw	a4,-20(s0)
   10120:	87ba                	mv	a5,a4
   10122:	0786                	slli	a5,a5,0x1
   10124:	97ba                	add	a5,a5,a4
   10126:	0792                	slli	a5,a5,0x4
   10128:	97b6                	add	a5,a5,a3
   1012a:	0187b803          	ld	a6,24(a5)
   1012e:	00003697          	auipc	a3,0x3
   10132:	c9268693          	addi	a3,a3,-878 # 12dc0 <cmd_table>
   10136:	fec42703          	lw	a4,-20(s0)
   1013a:	87ba                	mv	a5,a4
   1013c:	0786                	slli	a5,a5,0x1
   1013e:	97ba                	add	a5,a5,a4
   10140:	0792                	slli	a5,a5,0x4
   10142:	97b6                	add	a5,a5,a3
   10144:	579c                	lw	a5,40(a5)
   10146:	8742                	mv	a4,a6
   10148:	86aa                	mv	a3,a0
   1014a:	00003517          	auipc	a0,0x3
   1014e:	9f650513          	addi	a0,a0,-1546 # 12b40 <clear_bss_done+0x512>
   10152:	4b6010ef          	jal	ra,11608 <printf>
   10156:	c2818793          	addi	a5,gp,-984 # 13198 <__SDATA_BEGIN__>
   1015a:	439c                	lw	a5,0(a5)
   1015c:	2785                	addiw	a5,a5,1
   1015e:	0007871b          	sext.w	a4,a5
   10162:	c2818793          	addi	a5,gp,-984 # 13198 <__SDATA_BEGIN__>
   10166:	c398                	sw	a4,0(a5)
   10168:	4781                	li	a5,0
   1016a:	a201                	j	1026a <shell_help+0x232>
   1016c:	fec42783          	lw	a5,-20(s0)
   10170:	2785                	addiw	a5,a5,1
   10172:	fef42623          	sw	a5,-20(s0)
   10176:	fec42783          	lw	a5,-20(s0)
   1017a:	0007871b          	sext.w	a4,a5
   1017e:	47c1                	li	a5,16
   10180:	f0e7d0e3          	bge	a5,a4,10080 <shell_help+0x48>
   10184:	b8018513          	addi	a0,gp,-1152 # 130f0 <cmd_not_found>
   10188:	e79ff0ef          	jal	ra,10000 <panic>
   1018c:	57fd                	li	a5,-1
   1018e:	a8f1                	j	1026a <shell_help+0x232>
   10190:	00003517          	auipc	a0,0x3
   10194:	a0050513          	addi	a0,a0,-1536 # 12b90 <clear_bss_done+0x562>
   10198:	470010ef          	jal	ra,11608 <printf>
   1019c:	c2818793          	addi	a5,gp,-984 # 13198 <__SDATA_BEGIN__>
   101a0:	439c                	lw	a5,0(a5)
   101a2:	2785                	addiw	a5,a5,1
   101a4:	0007871b          	sext.w	a4,a5
   101a8:	c2818793          	addi	a5,gp,-984 # 13198 <__SDATA_BEGIN__>
   101ac:	c398                	sw	a4,0(a5)
   101ae:	fe042423          	sw	zero,-24(s0)
   101b2:	a065                	j	1025a <shell_help+0x222>
   101b4:	00003697          	auipc	a3,0x3
   101b8:	c0c68693          	addi	a3,a3,-1012 # 12dc0 <cmd_table>
   101bc:	fe842703          	lw	a4,-24(s0)
   101c0:	87ba                	mv	a5,a4
   101c2:	0786                	slli	a5,a5,0x1
   101c4:	97ba                	add	a5,a5,a4
   101c6:	0792                	slli	a5,a5,0x4
   101c8:	97b6                	add	a5,a5,a3
   101ca:	638c                	ld	a1,0(a5)
   101cc:	00003697          	auipc	a3,0x3
   101d0:	bf468693          	addi	a3,a3,-1036 # 12dc0 <cmd_table>
   101d4:	fe842703          	lw	a4,-24(s0)
   101d8:	87ba                	mv	a5,a4
   101da:	0786                	slli	a5,a5,0x1
   101dc:	97ba                	add	a5,a5,a4
   101de:	0792                	slli	a5,a5,0x4
   101e0:	97b6                	add	a5,a5,a3
   101e2:	6790                	ld	a2,8(a5)
   101e4:	00003697          	auipc	a3,0x3
   101e8:	bdc68693          	addi	a3,a3,-1060 # 12dc0 <cmd_table>
   101ec:	fe842703          	lw	a4,-24(s0)
   101f0:	87ba                	mv	a5,a4
   101f2:	0786                	slli	a5,a5,0x1
   101f4:	97ba                	add	a5,a5,a4
   101f6:	0792                	slli	a5,a5,0x4
   101f8:	97b6                	add	a5,a5,a3
   101fa:	6b88                	ld	a0,16(a5)
   101fc:	00003697          	auipc	a3,0x3
   10200:	bc468693          	addi	a3,a3,-1084 # 12dc0 <cmd_table>
   10204:	fe842703          	lw	a4,-24(s0)
   10208:	87ba                	mv	a5,a4
   1020a:	0786                	slli	a5,a5,0x1
   1020c:	97ba                	add	a5,a5,a4
   1020e:	0792                	slli	a5,a5,0x4
   10210:	97b6                	add	a5,a5,a3
   10212:	0187b803          	ld	a6,24(a5)
   10216:	00003697          	auipc	a3,0x3
   1021a:	baa68693          	addi	a3,a3,-1110 # 12dc0 <cmd_table>
   1021e:	fe842703          	lw	a4,-24(s0)
   10222:	87ba                	mv	a5,a4
   10224:	0786                	slli	a5,a5,0x1
   10226:	97ba                	add	a5,a5,a4
   10228:	0792                	slli	a5,a5,0x4
   1022a:	97b6                	add	a5,a5,a3
   1022c:	579c                	lw	a5,40(a5)
   1022e:	8742                	mv	a4,a6
   10230:	86aa                	mv	a3,a0
   10232:	00003517          	auipc	a0,0x3
   10236:	90e50513          	addi	a0,a0,-1778 # 12b40 <clear_bss_done+0x512>
   1023a:	3ce010ef          	jal	ra,11608 <printf>
   1023e:	c2818793          	addi	a5,gp,-984 # 13198 <__SDATA_BEGIN__>
   10242:	439c                	lw	a5,0(a5)
   10244:	2785                	addiw	a5,a5,1
   10246:	0007871b          	sext.w	a4,a5
   1024a:	c2818793          	addi	a5,gp,-984 # 13198 <__SDATA_BEGIN__>
   1024e:	c398                	sw	a4,0(a5)
   10250:	fe842783          	lw	a5,-24(s0)
   10254:	2785                	addiw	a5,a5,1
   10256:	fef42423          	sw	a5,-24(s0)
   1025a:	fe842783          	lw	a5,-24(s0)
   1025e:	0007871b          	sext.w	a4,a5
   10262:	47c1                	li	a5,16
   10264:	f4e7d8e3          	bge	a5,a4,101b4 <shell_help+0x17c>
   10268:	4781                	li	a5,0
   1026a:	853e                	mv	a0,a5
   1026c:	70e2                	ld	ra,56(sp)
   1026e:	7442                	ld	s0,48(sp)
   10270:	6121                	addi	sp,sp,64
   10272:	8082                	ret

0000000000010274 <shell_exec>:
   10274:	7139                	addi	sp,sp,-64
   10276:	fc06                	sd	ra,56(sp)
   10278:	f822                	sd	s0,48(sp)
   1027a:	0080                	addi	s0,sp,64
   1027c:	87aa                	mv	a5,a0
   1027e:	fcb43023          	sd	a1,-64(s0)
   10282:	fcf42623          	sw	a5,-52(s0)
   10286:	00003797          	auipc	a5,0x3
   1028a:	b3a78793          	addi	a5,a5,-1222 # 12dc0 <cmd_table>
   1028e:	4ff8                	lw	a4,92(a5)
   10290:	fcc42783          	lw	a5,-52(s0)
   10294:	2781                	sext.w	a5,a5
   10296:	00e7d863          	bge	a5,a4,102a6 <shell_exec+0x32>
   1029a:	b9818513          	addi	a0,gp,-1128 # 13108 <arg_num_error>
   1029e:	d63ff0ef          	jal	ra,10000 <panic>
   102a2:	57fd                	li	a5,-1
   102a4:	a2e5                	j	1048c <shell_exec+0x218>
   102a6:	fe042623          	sw	zero,-20(s0)
   102aa:	fc043783          	ld	a5,-64(s0)
   102ae:	fcf43c23          	sd	a5,-40(s0)
   102b2:	fe042423          	sw	zero,-24(s0)
   102b6:	a815                	j	102ea <shell_exec+0x76>
   102b8:	00003717          	auipc	a4,0x3
   102bc:	ab870713          	addi	a4,a4,-1352 # 12d70 <task_names>
   102c0:	fe842783          	lw	a5,-24(s0)
   102c4:	078e                	slli	a5,a5,0x3
   102c6:	97ba                	add	a5,a5,a4
   102c8:	639c                	ld	a5,0(a5)
   102ca:	85be                	mv	a1,a5
   102cc:	fd843503          	ld	a0,-40(s0)
   102d0:	626010ef          	jal	ra,118f6 <strcmp>
   102d4:	87aa                	mv	a5,a0
   102d6:	e789                	bnez	a5,102e0 <shell_exec+0x6c>
   102d8:	4785                	li	a5,1
   102da:	fef42623          	sw	a5,-20(s0)
   102de:	a829                	j	102f8 <shell_exec+0x84>
   102e0:	fe842783          	lw	a5,-24(s0)
   102e4:	2785                	addiw	a5,a5,1
   102e6:	fef42423          	sw	a5,-24(s0)
   102ea:	fe842783          	lw	a5,-24(s0)
   102ee:	0007871b          	sext.w	a4,a5
   102f2:	47a5                	li	a5,9
   102f4:	fce7d2e3          	bge	a5,a4,102b8 <shell_exec+0x44>
   102f8:	fec42783          	lw	a5,-20(s0)
   102fc:	2781                	sext.w	a5,a5
   102fe:	e799                	bnez	a5,1030c <shell_exec+0x98>
   10300:	b9818513          	addi	a0,gp,-1128 # 13108 <arg_num_error>
   10304:	cfdff0ef          	jal	ra,10000 <panic>
   10308:	57fd                	li	a5,-1
   1030a:	a249                	j	1048c <shell_exec+0x218>
   1030c:	fcc42783          	lw	a5,-52(s0)
   10310:	0007871b          	sext.w	a4,a5
   10314:	4785                	li	a5,1
   10316:	00f71f63          	bne	a4,a5,10334 <shell_exec+0xc0>
   1031a:	fe042223          	sw	zero,-28(s0)
   1031e:	fe442783          	lw	a5,-28(s0)
   10322:	86be                	mv	a3,a5
   10324:	4601                	li	a2,0
   10326:	4581                	li	a1,0
   10328:	fd843503          	ld	a0,-40(s0)
   1032c:	1b1010ef          	jal	ra,11cdc <sys_spawn>
   10330:	87aa                	mv	a5,a0
   10332:	aaa9                	j	1048c <shell_exec+0x218>
   10334:	fc043783          	ld	a5,-64(s0)
   10338:	07c1                	addi	a5,a5,16
   1033a:	fcf43823          	sd	a5,-48(s0)
   1033e:	fd043783          	ld	a5,-48(s0)
   10342:	cb99                	beqz	a5,10358 <shell_exec+0xe4>
   10344:	00003597          	auipc	a1,0x3
   10348:	86c58593          	addi	a1,a1,-1940 # 12bb0 <clear_bss_done+0x582>
   1034c:	fd043503          	ld	a0,-48(s0)
   10350:	5a6010ef          	jal	ra,118f6 <strcmp>
   10354:	87aa                	mv	a5,a0
   10356:	e781                	bnez	a5,1035e <shell_exec+0xea>
   10358:	fe042223          	sw	zero,-28(s0)
   1035c:	a0a1                	j	103a4 <shell_exec+0x130>
   1035e:	00003597          	auipc	a1,0x3
   10362:	85a58593          	addi	a1,a1,-1958 # 12bb8 <clear_bss_done+0x58a>
   10366:	fd043503          	ld	a0,-48(s0)
   1036a:	58c010ef          	jal	ra,118f6 <strcmp>
   1036e:	87aa                	mv	a5,a0
   10370:	eb95                	bnez	a5,103a4 <shell_exec+0x130>
   10372:	fcc42783          	lw	a5,-52(s0)
   10376:	0007871b          	sext.w	a4,a5
   1037a:	4789                	li	a5,2
   1037c:	00e7c863          	blt	a5,a4,1038c <shell_exec+0x118>
   10380:	b9818513          	addi	a0,gp,-1128 # 13108 <arg_num_error>
   10384:	c7dff0ef          	jal	ra,10000 <panic>
   10388:	57fd                	li	a5,-1
   1038a:	a209                	j	1048c <shell_exec+0x218>
   1038c:	fc043783          	ld	a5,-64(s0)
   10390:	02078793          	addi	a5,a5,32
   10394:	4629                	li	a2,10
   10396:	4581                	li	a1,0
   10398:	853e                	mv	a0,a5
   1039a:	77e010ef          	jal	ra,11b18 <strtol>
   1039e:	87aa                	mv	a5,a0
   103a0:	fef42223          	sw	a5,-28(s0)
   103a4:	fe442783          	lw	a5,-28(s0)
   103a8:	2781                	sext.w	a5,a5
   103aa:	cf91                	beqz	a5,103c6 <shell_exec+0x152>
   103ac:	fe442783          	lw	a5,-28(s0)
   103b0:	0007871b          	sext.w	a4,a5
   103b4:	4785                	li	a5,1
   103b6:	00f70863          	beq	a4,a5,103c6 <shell_exec+0x152>
   103ba:	b9818513          	addi	a0,gp,-1128 # 13108 <arg_num_error>
   103be:	c43ff0ef          	jal	ra,10000 <panic>
   103c2:	57fd                	li	a5,-1
   103c4:	a0e1                	j	1048c <shell_exec+0x218>
   103c6:	fd843583          	ld	a1,-40(s0)
   103ca:	00002517          	auipc	a0,0x2
   103ce:	7f650513          	addi	a0,a0,2038 # 12bc0 <clear_bss_done+0x592>
   103d2:	236010ef          	jal	ra,11608 <printf>
   103d6:	c2818793          	addi	a5,gp,-984 # 13198 <__SDATA_BEGIN__>
   103da:	439c                	lw	a5,0(a5)
   103dc:	2785                	addiw	a5,a5,1
   103de:	0007871b          	sext.w	a4,a5
   103e2:	c2818793          	addi	a5,gp,-984 # 13198 <__SDATA_BEGIN__>
   103e6:	c398                	sw	a4,0(a5)
   103e8:	00002597          	auipc	a1,0x2
   103ec:	7c858593          	addi	a1,a1,1992 # 12bb0 <clear_bss_done+0x582>
   103f0:	fd043503          	ld	a0,-48(s0)
   103f4:	502010ef          	jal	ra,118f6 <strcmp>
   103f8:	87aa                	mv	a5,a0
   103fa:	e795                	bnez	a5,10426 <shell_exec+0x1b2>
   103fc:	fcc42783          	lw	a5,-52(s0)
   10400:	37f9                	addiw	a5,a5,-2
   10402:	fcf42623          	sw	a5,-52(s0)
   10406:	fc043783          	ld	a5,-64(s0)
   1040a:	02078713          	addi	a4,a5,32
   1040e:	fe442683          	lw	a3,-28(s0)
   10412:	fcc42783          	lw	a5,-52(s0)
   10416:	863a                	mv	a2,a4
   10418:	85be                	mv	a1,a5
   1041a:	fd843503          	ld	a0,-40(s0)
   1041e:	0bf010ef          	jal	ra,11cdc <sys_spawn>
   10422:	87aa                	mv	a5,a0
   10424:	a0a5                	j	1048c <shell_exec+0x218>
   10426:	00002597          	auipc	a1,0x2
   1042a:	79258593          	addi	a1,a1,1938 # 12bb8 <clear_bss_done+0x58a>
   1042e:	fd043503          	ld	a0,-48(s0)
   10432:	4c4010ef          	jal	ra,118f6 <strcmp>
   10436:	87aa                	mv	a5,a0
   10438:	e3b9                	bnez	a5,1047e <shell_exec+0x20a>
   1043a:	fc043783          	ld	a5,-64(s0)
   1043e:	03078793          	addi	a5,a5,48
   10442:	00002597          	auipc	a1,0x2
   10446:	76e58593          	addi	a1,a1,1902 # 12bb0 <clear_bss_done+0x582>
   1044a:	853e                	mv	a0,a5
   1044c:	4aa010ef          	jal	ra,118f6 <strcmp>
   10450:	87aa                	mv	a5,a0
   10452:	ef85                	bnez	a5,1048a <shell_exec+0x216>
   10454:	fcc42783          	lw	a5,-52(s0)
   10458:	37f1                	addiw	a5,a5,-4
   1045a:	fcf42623          	sw	a5,-52(s0)
   1045e:	fc043783          	ld	a5,-64(s0)
   10462:	04078713          	addi	a4,a5,64
   10466:	fe442683          	lw	a3,-28(s0)
   1046a:	fcc42783          	lw	a5,-52(s0)
   1046e:	863a                	mv	a2,a4
   10470:	85be                	mv	a1,a5
   10472:	fd843503          	ld	a0,-40(s0)
   10476:	067010ef          	jal	ra,11cdc <sys_spawn>
   1047a:	87aa                	mv	a5,a0
   1047c:	a801                	j	1048c <shell_exec+0x218>
   1047e:	b9818513          	addi	a0,gp,-1128 # 13108 <arg_num_error>
   10482:	b7fff0ef          	jal	ra,10000 <panic>
   10486:	57fd                	li	a5,-1
   10488:	a011                	j	1048c <shell_exec+0x218>
   1048a:	4781                	li	a5,0
   1048c:	853e                	mv	a0,a5
   1048e:	70e2                	ld	ra,56(sp)
   10490:	7442                	ld	s0,48(sp)
   10492:	6121                	addi	sp,sp,64
   10494:	8082                	ret

0000000000010496 <shell_kill>:
   10496:	7179                	addi	sp,sp,-48
   10498:	f406                	sd	ra,40(sp)
   1049a:	f022                	sd	s0,32(sp)
   1049c:	1800                	addi	s0,sp,48
   1049e:	87aa                	mv	a5,a0
   104a0:	fcb43823          	sd	a1,-48(s0)
   104a4:	fcf42e23          	sw	a5,-36(s0)
   104a8:	00003797          	auipc	a5,0x3
   104ac:	91878793          	addi	a5,a5,-1768 # 12dc0 <cmd_table>
   104b0:	08c7a703          	lw	a4,140(a5)
   104b4:	fdc42783          	lw	a5,-36(s0)
   104b8:	2781                	sext.w	a5,a5
   104ba:	00e7d863          	bge	a5,a4,104ca <shell_kill+0x34>
   104be:	b9818513          	addi	a0,gp,-1128 # 13108 <arg_num_error>
   104c2:	b3fff0ef          	jal	ra,10000 <panic>
   104c6:	57fd                	li	a5,-1
   104c8:	a885                	j	10538 <shell_kill+0xa2>
   104ca:	fd043783          	ld	a5,-48(s0)
   104ce:	fef43423          	sd	a5,-24(s0)
   104d2:	4629                	li	a2,10
   104d4:	4581                	li	a1,0
   104d6:	fe843503          	ld	a0,-24(s0)
   104da:	63e010ef          	jal	ra,11b18 <strtol>
   104de:	87aa                	mv	a5,a0
   104e0:	fef42223          	sw	a5,-28(s0)
   104e4:	fe442783          	lw	a5,-28(s0)
   104e8:	2781                	sext.w	a5,a5
   104ea:	00f05963          	blez	a5,104fc <shell_kill+0x66>
   104ee:	fe442783          	lw	a5,-28(s0)
   104f2:	0007871b          	sext.w	a4,a5
   104f6:	47a9                	li	a5,10
   104f8:	00e7d863          	bge	a5,a4,10508 <shell_kill+0x72>
   104fc:	b9818513          	addi	a0,gp,-1128 # 13108 <arg_num_error>
   10500:	b01ff0ef          	jal	ra,10000 <panic>
   10504:	57fd                	li	a5,-1
   10506:	a80d                	j	10538 <shell_kill+0xa2>
   10508:	fe442783          	lw	a5,-28(s0)
   1050c:	85be                	mv	a1,a5
   1050e:	00002517          	auipc	a0,0x2
   10512:	6d250513          	addi	a0,a0,1746 # 12be0 <clear_bss_done+0x5b2>
   10516:	0f2010ef          	jal	ra,11608 <printf>
   1051a:	c2818793          	addi	a5,gp,-984 # 13198 <__SDATA_BEGIN__>
   1051e:	439c                	lw	a5,0(a5)
   10520:	2785                	addiw	a5,a5,1
   10522:	0007871b          	sext.w	a4,a5
   10526:	c2818793          	addi	a5,gp,-984 # 13198 <__SDATA_BEGIN__>
   1052a:	c398                	sw	a4,0(a5)
   1052c:	fe442783          	lw	a5,-28(s0)
   10530:	853e                	mv	a0,a5
   10532:	011010ef          	jal	ra,11d42 <sys_kill>
   10536:	87aa                	mv	a5,a0
   10538:	853e                	mv	a0,a5
   1053a:	70a2                	ld	ra,40(sp)
   1053c:	7402                	ld	s0,32(sp)
   1053e:	6145                	addi	sp,sp,48
   10540:	8082                	ret

0000000000010542 <shell_taskset>:
   10542:	711d                	addi	sp,sp,-96
   10544:	ec86                	sd	ra,88(sp)
   10546:	e8a2                	sd	s0,80(sp)
   10548:	e4a6                	sd	s1,72(sp)
   1054a:	1080                	addi	s0,sp,96
   1054c:	87aa                	mv	a5,a0
   1054e:	fab43023          	sd	a1,-96(s0)
   10552:	faf42623          	sw	a5,-84(s0)
   10556:	00003797          	auipc	a5,0x3
   1055a:	86a78793          	addi	a5,a5,-1942 # 12dc0 <cmd_table>
   1055e:	0bc7a703          	lw	a4,188(a5)
   10562:	fac42783          	lw	a5,-84(s0)
   10566:	2781                	sext.w	a5,a5
   10568:	00e7d863          	bge	a5,a4,10578 <shell_taskset+0x36>
   1056c:	b9818513          	addi	a0,gp,-1128 # 13108 <arg_num_error>
   10570:	a91ff0ef          	jal	ra,10000 <panic>
   10574:	57fd                	li	a5,-1
   10576:	aa29                	j	10690 <shell_taskset+0x14e>
   10578:	fa043783          	ld	a5,-96(s0)
   1057c:	fcf43c23          	sd	a5,-40(s0)
   10580:	fa043783          	ld	a5,-96(s0)
   10584:	07c1                	addi	a5,a5,16
   10586:	fcf43823          	sd	a5,-48(s0)
   1058a:	fa043783          	ld	a5,-96(s0)
   1058e:	02078793          	addi	a5,a5,32
   10592:	fcf43423          	sd	a5,-56(s0)
   10596:	00002597          	auipc	a1,0x2
   1059a:	66a58593          	addi	a1,a1,1642 # 12c00 <clear_bss_done+0x5d2>
   1059e:	fd843503          	ld	a0,-40(s0)
   105a2:	354010ef          	jal	ra,118f6 <strcmp>
   105a6:	87aa                	mv	a5,a0
   105a8:	efad                	bnez	a5,10622 <shell_taskset+0xe0>
   105aa:	4641                	li	a2,16
   105ac:	4581                	li	a1,0
   105ae:	fd043503          	ld	a0,-48(s0)
   105b2:	566010ef          	jal	ra,11b18 <strtol>
   105b6:	87aa                	mv	a5,a0
   105b8:	fcf42223          	sw	a5,-60(s0)
   105bc:	4629                	li	a2,10
   105be:	4581                	li	a1,0
   105c0:	fc843503          	ld	a0,-56(s0)
   105c4:	554010ef          	jal	ra,11b18 <strtol>
   105c8:	87aa                	mv	a5,a0
   105ca:	fcf42023          	sw	a5,-64(s0)
   105ce:	fc042783          	lw	a5,-64(s0)
   105d2:	2781                	sext.w	a5,a5
   105d4:	00f05963          	blez	a5,105e6 <shell_taskset+0xa4>
   105d8:	fc042783          	lw	a5,-64(s0)
   105dc:	0007871b          	sext.w	a4,a5
   105e0:	47a9                	li	a5,10
   105e2:	00e7d863          	bge	a5,a4,105f2 <shell_taskset+0xb0>
   105e6:	b9818513          	addi	a0,gp,-1128 # 13108 <arg_num_error>
   105ea:	a17ff0ef          	jal	ra,10000 <panic>
   105ee:	57fd                	li	a5,-1
   105f0:	a045                	j	10690 <shell_taskset+0x14e>
   105f2:	fc042783          	lw	a5,-64(s0)
   105f6:	faf42c23          	sw	a5,-72(s0)
   105fa:	fc442783          	lw	a5,-60(s0)
   105fe:	faf42e23          	sw	a5,-68(s0)
   10602:	fc042783          	lw	a5,-64(s0)
   10606:	85be                	mv	a1,a5
   10608:	00002517          	auipc	a0,0x2
   1060c:	60050513          	addi	a0,a0,1536 # 12c08 <clear_bss_done+0x5da>
   10610:	7f9000ef          	jal	ra,11608 <printf>
   10614:	fb840793          	addi	a5,s0,-72
   10618:	853e                	mv	a0,a5
   1061a:	01b010ef          	jal	ra,11e34 <sys_taskset>
   1061e:	87aa                	mv	a5,a0
   10620:	a885                	j	10690 <shell_taskset+0x14e>
   10622:	4641                	li	a2,16
   10624:	4581                	li	a1,0
   10626:	fd843503          	ld	a0,-40(s0)
   1062a:	4ee010ef          	jal	ra,11b18 <strtol>
   1062e:	87aa                	mv	a5,a0
   10630:	fcf42223          	sw	a5,-60(s0)
   10634:	fac42783          	lw	a5,-84(s0)
   10638:	37fd                	addiw	a5,a5,-1
   1063a:	0007849b          	sext.w	s1,a5
   1063e:	fd843503          	ld	a0,-40(s0)
   10642:	1b0010ef          	jal	ra,117f2 <strlen>
   10646:	87aa                	mv	a5,a0
   10648:	078e                	slli	a5,a5,0x3
   1064a:	fa043703          	ld	a4,-96(s0)
   1064e:	97ba                	add	a5,a5,a4
   10650:	85be                	mv	a1,a5
   10652:	8526                	mv	a0,s1
   10654:	c21ff0ef          	jal	ra,10274 <shell_exec>
   10658:	87aa                	mv	a5,a0
   1065a:	0007d463          	bgez	a5,10662 <shell_taskset+0x120>
   1065e:	57fd                	li	a5,-1
   10660:	a805                	j	10690 <shell_taskset+0x14e>
   10662:	fc042783          	lw	a5,-64(s0)
   10666:	faf42823          	sw	a5,-80(s0)
   1066a:	fc442783          	lw	a5,-60(s0)
   1066e:	faf42a23          	sw	a5,-76(s0)
   10672:	fc042783          	lw	a5,-64(s0)
   10676:	85be                	mv	a1,a5
   10678:	00002517          	auipc	a0,0x2
   1067c:	59050513          	addi	a0,a0,1424 # 12c08 <clear_bss_done+0x5da>
   10680:	789000ef          	jal	ra,11608 <printf>
   10684:	fb040793          	addi	a5,s0,-80
   10688:	853e                	mv	a0,a5
   1068a:	7aa010ef          	jal	ra,11e34 <sys_taskset>
   1068e:	87aa                	mv	a5,a0
   10690:	853e                	mv	a0,a5
   10692:	60e6                	ld	ra,88(sp)
   10694:	6446                	ld	s0,80(sp)
   10696:	64a6                	ld	s1,72(sp)
   10698:	6125                	addi	sp,sp,96
   1069a:	8082                	ret

000000000001069c <shell_ps>:
   1069c:	1101                	addi	sp,sp,-32
   1069e:	ec06                	sd	ra,24(sp)
   106a0:	e822                	sd	s0,16(sp)
   106a2:	1000                	addi	s0,sp,32
   106a4:	87aa                	mv	a5,a0
   106a6:	feb43023          	sd	a1,-32(s0)
   106aa:	fef42623          	sw	a5,-20(s0)
   106ae:	6f0010ef          	jal	ra,11d9e <sys_process_show>
   106b2:	87aa                	mv	a5,a0
   106b4:	873e                	mv	a4,a5
   106b6:	c2818793          	addi	a5,gp,-984 # 13198 <__SDATA_BEGIN__>
   106ba:	439c                	lw	a5,0(a5)
   106bc:	9fb9                	addw	a5,a5,a4
   106be:	0007871b          	sext.w	a4,a5
   106c2:	c2818793          	addi	a5,gp,-984 # 13198 <__SDATA_BEGIN__>
   106c6:	c398                	sw	a4,0(a5)
   106c8:	4781                	li	a5,0
   106ca:	853e                	mv	a0,a5
   106cc:	60e2                	ld	ra,24(sp)
   106ce:	6442                	ld	s0,16(sp)
   106d0:	6105                	addi	sp,sp,32
   106d2:	8082                	ret

00000000000106d4 <shell_clear>:
   106d4:	1101                	addi	sp,sp,-32
   106d6:	ec06                	sd	ra,24(sp)
   106d8:	e822                	sd	s0,16(sp)
   106da:	1000                	addi	s0,sp,32
   106dc:	87aa                	mv	a5,a0
   106de:	feb43023          	sd	a1,-32(s0)
   106e2:	fef42623          	sw	a5,-20(s0)
   106e6:	183010ef          	jal	ra,12068 <sys_screen_clear>
   106ea:	c2818793          	addi	a5,gp,-984 # 13198 <__SDATA_BEGIN__>
   106ee:	0007a023          	sw	zero,0(a5)
   106f2:	177010ef          	jal	ra,12068 <sys_screen_clear>
   106f6:	45e5                	li	a1,25
   106f8:	4505                	li	a0,1
   106fa:	089010ef          	jal	ra,11f82 <sys_move_cursor>
   106fe:	00002517          	auipc	a0,0x2
   10702:	53250513          	addi	a0,a0,1330 # 12c30 <clear_bss_done+0x602>
   10706:	703000ef          	jal	ra,11608 <printf>
   1070a:	4781                	li	a5,0
   1070c:	853e                	mv	a0,a5
   1070e:	60e2                	ld	ra,24(sp)
   10710:	6442                	ld	s0,16(sp)
   10712:	6105                	addi	sp,sp,32
   10714:	8082                	ret

0000000000010716 <shell_mkfs>:
   10716:	1101                	addi	sp,sp,-32
   10718:	ec06                	sd	ra,24(sp)
   1071a:	e822                	sd	s0,16(sp)
   1071c:	1000                	addi	s0,sp,32
   1071e:	87aa                	mv	a5,a0
   10720:	feb43023          	sd	a1,-32(s0)
   10724:	fef42623          	sw	a5,-20(s0)
   10728:	42f010ef          	jal	ra,12356 <mkfs>
   1072c:	87aa                	mv	a5,a0
   1072e:	853e                	mv	a0,a5
   10730:	60e2                	ld	ra,24(sp)
   10732:	6442                	ld	s0,16(sp)
   10734:	6105                	addi	sp,sp,32
   10736:	8082                	ret

0000000000010738 <shell_statfs>:
   10738:	1101                	addi	sp,sp,-32
   1073a:	ec06                	sd	ra,24(sp)
   1073c:	e822                	sd	s0,16(sp)
   1073e:	1000                	addi	s0,sp,32
   10740:	87aa                	mv	a5,a0
   10742:	feb43023          	sd	a1,-32(s0)
   10746:	fef42623          	sw	a5,-20(s0)
   1074a:	427010ef          	jal	ra,12370 <statfs>
   1074e:	87aa                	mv	a5,a0
   10750:	853e                	mv	a0,a5
   10752:	60e2                	ld	ra,24(sp)
   10754:	6442                	ld	s0,16(sp)
   10756:	6105                	addi	sp,sp,32
   10758:	8082                	ret

000000000001075a <shell_mkdir>:
   1075a:	7179                	addi	sp,sp,-48
   1075c:	f406                	sd	ra,40(sp)
   1075e:	f022                	sd	s0,32(sp)
   10760:	1800                	addi	s0,sp,48
   10762:	87aa                	mv	a5,a0
   10764:	fcb43823          	sd	a1,-48(s0)
   10768:	fcf42e23          	sw	a5,-36(s0)
   1076c:	00002797          	auipc	a5,0x2
   10770:	65478793          	addi	a5,a5,1620 # 12dc0 <cmd_table>
   10774:	1ac7a703          	lw	a4,428(a5)
   10778:	fdc42783          	lw	a5,-36(s0)
   1077c:	2781                	sext.w	a5,a5
   1077e:	00e7d863          	bge	a5,a4,1078e <shell_mkdir+0x34>
   10782:	b9818513          	addi	a0,gp,-1128 # 13108 <arg_num_error>
   10786:	87bff0ef          	jal	ra,10000 <panic>
   1078a:	57fd                	li	a5,-1
   1078c:	a811                	j	107a0 <shell_mkdir+0x46>
   1078e:	fd043783          	ld	a5,-48(s0)
   10792:	fef43423          	sd	a5,-24(s0)
   10796:	fe843503          	ld	a0,-24(s0)
   1079a:	3f1010ef          	jal	ra,1238a <mkdir>
   1079e:	87aa                	mv	a5,a0
   107a0:	853e                	mv	a0,a5
   107a2:	70a2                	ld	ra,40(sp)
   107a4:	7402                	ld	s0,32(sp)
   107a6:	6145                	addi	sp,sp,48
   107a8:	8082                	ret

00000000000107aa <shell_rmdir>:
   107aa:	7179                	addi	sp,sp,-48
   107ac:	f406                	sd	ra,40(sp)
   107ae:	f022                	sd	s0,32(sp)
   107b0:	1800                	addi	s0,sp,48
   107b2:	87aa                	mv	a5,a0
   107b4:	fcb43823          	sd	a1,-48(s0)
   107b8:	fcf42e23          	sw	a5,-36(s0)
   107bc:	00002797          	auipc	a5,0x2
   107c0:	60478793          	addi	a5,a5,1540 # 12dc0 <cmd_table>
   107c4:	1dc7a703          	lw	a4,476(a5)
   107c8:	fdc42783          	lw	a5,-36(s0)
   107cc:	2781                	sext.w	a5,a5
   107ce:	00e7d863          	bge	a5,a4,107de <shell_rmdir+0x34>
   107d2:	b9818513          	addi	a0,gp,-1128 # 13108 <arg_num_error>
   107d6:	82bff0ef          	jal	ra,10000 <panic>
   107da:	57fd                	li	a5,-1
   107dc:	a811                	j	107f0 <shell_rmdir+0x46>
   107de:	fd043783          	ld	a5,-48(s0)
   107e2:	fef43423          	sd	a5,-24(s0)
   107e6:	fe843503          	ld	a0,-24(s0)
   107ea:	3c5010ef          	jal	ra,123ae <rmdir>
   107ee:	87aa                	mv	a5,a0
   107f0:	853e                	mv	a0,a5
   107f2:	70a2                	ld	ra,40(sp)
   107f4:	7402                	ld	s0,32(sp)
   107f6:	6145                	addi	sp,sp,48
   107f8:	8082                	ret

00000000000107fa <shell_cd>:
   107fa:	7179                	addi	sp,sp,-48
   107fc:	f406                	sd	ra,40(sp)
   107fe:	f022                	sd	s0,32(sp)
   10800:	1800                	addi	s0,sp,48
   10802:	87aa                	mv	a5,a0
   10804:	fcb43823          	sd	a1,-48(s0)
   10808:	fcf42e23          	sw	a5,-36(s0)
   1080c:	00002797          	auipc	a5,0x2
   10810:	5b478793          	addi	a5,a5,1460 # 12dc0 <cmd_table>
   10814:	20c7a703          	lw	a4,524(a5)
   10818:	fdc42783          	lw	a5,-36(s0)
   1081c:	2781                	sext.w	a5,a5
   1081e:	00e7d863          	bge	a5,a4,1082e <shell_cd+0x34>
   10822:	b9818513          	addi	a0,gp,-1128 # 13108 <arg_num_error>
   10826:	fdaff0ef          	jal	ra,10000 <panic>
   1082a:	57fd                	li	a5,-1
   1082c:	a811                	j	10840 <shell_cd+0x46>
   1082e:	fd043783          	ld	a5,-48(s0)
   10832:	fef43423          	sd	a5,-24(s0)
   10836:	fe843503          	ld	a0,-24(s0)
   1083a:	399010ef          	jal	ra,123d2 <cd>
   1083e:	87aa                	mv	a5,a0
   10840:	853e                	mv	a0,a5
   10842:	70a2                	ld	ra,40(sp)
   10844:	7402                	ld	s0,32(sp)
   10846:	6145                	addi	sp,sp,48
   10848:	8082                	ret

000000000001084a <shell_ls>:
   1084a:	715d                	addi	sp,sp,-80
   1084c:	e486                	sd	ra,72(sp)
   1084e:	e0a2                	sd	s0,64(sp)
   10850:	0880                	addi	s0,sp,80
   10852:	87aa                	mv	a5,a0
   10854:	fab43823          	sd	a1,-80(s0)
   10858:	faf42e23          	sw	a5,-68(s0)
   1085c:	fc043423          	sd	zero,-56(s0)
   10860:	fc043823          	sd	zero,-48(s0)
   10864:	fe042623          	sw	zero,-20(s0)
   10868:	fbc42783          	lw	a5,-68(s0)
   1086c:	0007871b          	sext.w	a4,a5
   10870:	4785                	li	a5,1
   10872:	00f70c63          	beq	a4,a5,1088a <shell_ls+0x40>
   10876:	fbc42783          	lw	a5,-68(s0)
   1087a:	0007871b          	sext.w	a4,a5
   1087e:	4789                	li	a5,2
   10880:	00f70563          	beq	a4,a5,1088a <shell_ls+0x40>
   10884:	57fd                	li	a5,-1
   10886:	fef42623          	sw	a5,-20(s0)
   1088a:	fb043783          	ld	a5,-80(s0)
   1088e:	fef43023          	sd	a5,-32(s0)
   10892:	fbc42783          	lw	a5,-68(s0)
   10896:	0007871b          	sext.w	a4,a5
   1089a:	4785                	li	a5,1
   1089c:	02f71e63          	bne	a4,a5,108d8 <shell_ls+0x8e>
   108a0:	fe043783          	ld	a5,-32(s0)
   108a4:	0007c783          	lbu	a5,0(a5)
   108a8:	873e                	mv	a4,a5
   108aa:	02d00793          	li	a5,45
   108ae:	00f71d63          	bne	a4,a5,108c8 <shell_ls+0x7e>
   108b2:	fe043783          	ld	a5,-32(s0)
   108b6:	0785                	addi	a5,a5,1
   108b8:	0007c783          	lbu	a5,0(a5)
   108bc:	2781                	sext.w	a5,a5
   108be:	f9f7879b          	addiw	a5,a5,-97
   108c2:	fef42623          	sw	a5,-20(s0)
   108c6:	a809                	j	108d8 <shell_ls+0x8e>
   108c8:	fc840793          	addi	a5,s0,-56
   108cc:	4641                	li	a2,16
   108ce:	fe043583          	ld	a1,-32(s0)
   108d2:	853e                	mv	a0,a5
   108d4:	755000ef          	jal	ra,11828 <memcpy>
   108d8:	fb043783          	ld	a5,-80(s0)
   108dc:	07c1                	addi	a5,a5,16
   108de:	fcf43c23          	sd	a5,-40(s0)
   108e2:	fbc42783          	lw	a5,-68(s0)
   108e6:	0007871b          	sext.w	a4,a5
   108ea:	4789                	li	a5,2
   108ec:	04f71263          	bne	a4,a5,10930 <shell_ls+0xe6>
   108f0:	fe043783          	ld	a5,-32(s0)
   108f4:	0007c783          	lbu	a5,0(a5)
   108f8:	873e                	mv	a4,a5
   108fa:	02d00793          	li	a5,45
   108fe:	00f70763          	beq	a4,a5,1090c <shell_ls+0xc2>
   10902:	b9818513          	addi	a0,gp,-1128 # 13108 <arg_num_error>
   10906:	efaff0ef          	jal	ra,10000 <panic>
   1090a:	a01d                	j	10930 <shell_ls+0xe6>
   1090c:	fe043783          	ld	a5,-32(s0)
   10910:	0785                	addi	a5,a5,1
   10912:	0007c783          	lbu	a5,0(a5)
   10916:	2781                	sext.w	a5,a5
   10918:	f9f7879b          	addiw	a5,a5,-97
   1091c:	fef42623          	sw	a5,-20(s0)
   10920:	fc840793          	addi	a5,s0,-56
   10924:	4641                	li	a2,16
   10926:	fd843583          	ld	a1,-40(s0)
   1092a:	853e                	mv	a0,a5
   1092c:	6fd000ef          	jal	ra,11828 <memcpy>
   10930:	fec42703          	lw	a4,-20(s0)
   10934:	fc840793          	addi	a5,s0,-56
   10938:	85ba                	mv	a1,a4
   1093a:	853e                	mv	a0,a5
   1093c:	2bb010ef          	jal	ra,123f6 <ls>
   10940:	87aa                	mv	a5,a0
   10942:	853e                	mv	a0,a5
   10944:	60a6                	ld	ra,72(sp)
   10946:	6406                	ld	s0,64(sp)
   10948:	6161                	addi	sp,sp,80
   1094a:	8082                	ret

000000000001094c <shell_pwd>:
   1094c:	7179                	addi	sp,sp,-48
   1094e:	f406                	sd	ra,40(sp)
   10950:	f022                	sd	s0,32(sp)
   10952:	1800                	addi	s0,sp,48
   10954:	87aa                	mv	a5,a0
   10956:	fcb43823          	sd	a1,-48(s0)
   1095a:	fcf42e23          	sw	a5,-36(s0)
   1095e:	00002797          	auipc	a5,0x2
   10962:	46278793          	addi	a5,a5,1122 # 12dc0 <cmd_table>
   10966:	26c7a703          	lw	a4,620(a5)
   1096a:	fdc42783          	lw	a5,-36(s0)
   1096e:	2781                	sext.w	a5,a5
   10970:	00e7d863          	bge	a5,a4,10980 <shell_pwd+0x34>
   10974:	b9818513          	addi	a0,gp,-1128 # 13108 <arg_num_error>
   10978:	e88ff0ef          	jal	ra,10000 <panic>
   1097c:	57fd                	li	a5,-1
   1097e:	a821                	j	10996 <shell_pwd+0x4a>
   10980:	fe040793          	addi	a5,s0,-32
   10984:	853e                	mv	a0,a5
   10986:	29f010ef          	jal	ra,12424 <pwd>
   1098a:	fe040793          	addi	a5,s0,-32
   1098e:	853e                	mv	a0,a5
   10990:	4d1000ef          	jal	ra,11660 <puts>
   10994:	4781                	li	a5,0
   10996:	853e                	mv	a0,a5
   10998:	70a2                	ld	ra,40(sp)
   1099a:	7402                	ld	s0,32(sp)
   1099c:	6145                	addi	sp,sp,48
   1099e:	8082                	ret

00000000000109a0 <shell_touch>:
   109a0:	7179                	addi	sp,sp,-48
   109a2:	f406                	sd	ra,40(sp)
   109a4:	f022                	sd	s0,32(sp)
   109a6:	1800                	addi	s0,sp,48
   109a8:	87aa                	mv	a5,a0
   109aa:	fcb43823          	sd	a1,-48(s0)
   109ae:	fcf42e23          	sw	a5,-36(s0)
   109b2:	00002797          	auipc	a5,0x2
   109b6:	40e78793          	addi	a5,a5,1038 # 12dc0 <cmd_table>
   109ba:	29c7a703          	lw	a4,668(a5)
   109be:	fdc42783          	lw	a5,-36(s0)
   109c2:	2781                	sext.w	a5,a5
   109c4:	00e7d863          	bge	a5,a4,109d4 <shell_touch+0x34>
   109c8:	b9818513          	addi	a0,gp,-1128 # 13108 <arg_num_error>
   109cc:	e34ff0ef          	jal	ra,10000 <panic>
   109d0:	57fd                	li	a5,-1
   109d2:	a811                	j	109e6 <shell_touch+0x46>
   109d4:	fd043783          	ld	a5,-48(s0)
   109d8:	fef43423          	sd	a5,-24(s0)
   109dc:	fe843503          	ld	a0,-24(s0)
   109e0:	269010ef          	jal	ra,12448 <touch>
   109e4:	87aa                	mv	a5,a0
   109e6:	853e                	mv	a0,a5
   109e8:	70a2                	ld	ra,40(sp)
   109ea:	7402                	ld	s0,32(sp)
   109ec:	6145                	addi	sp,sp,48
   109ee:	8082                	ret

00000000000109f0 <shell_cat>:
   109f0:	7179                	addi	sp,sp,-48
   109f2:	f406                	sd	ra,40(sp)
   109f4:	f022                	sd	s0,32(sp)
   109f6:	1800                	addi	s0,sp,48
   109f8:	87aa                	mv	a5,a0
   109fa:	fcb43823          	sd	a1,-48(s0)
   109fe:	fcf42e23          	sw	a5,-36(s0)
   10a02:	00002797          	auipc	a5,0x2
   10a06:	3be78793          	addi	a5,a5,958 # 12dc0 <cmd_table>
   10a0a:	2cc7a703          	lw	a4,716(a5)
   10a0e:	fdc42783          	lw	a5,-36(s0)
   10a12:	2781                	sext.w	a5,a5
   10a14:	00e7d863          	bge	a5,a4,10a24 <shell_cat+0x34>
   10a18:	b9818513          	addi	a0,gp,-1128 # 13108 <arg_num_error>
   10a1c:	de4ff0ef          	jal	ra,10000 <panic>
   10a20:	57fd                	li	a5,-1
   10a22:	a811                	j	10a36 <shell_cat+0x46>
   10a24:	fd043783          	ld	a5,-48(s0)
   10a28:	fef43423          	sd	a5,-24(s0)
   10a2c:	fe843503          	ld	a0,-24(s0)
   10a30:	23f010ef          	jal	ra,1246e <cat>
   10a34:	87aa                	mv	a5,a0
   10a36:	853e                	mv	a0,a5
   10a38:	70a2                	ld	ra,40(sp)
   10a3a:	7402                	ld	s0,32(sp)
   10a3c:	6145                	addi	sp,sp,48
   10a3e:	8082                	ret

0000000000010a40 <shell_rm>:
   10a40:	7179                	addi	sp,sp,-48
   10a42:	f406                	sd	ra,40(sp)
   10a44:	f022                	sd	s0,32(sp)
   10a46:	1800                	addi	s0,sp,48
   10a48:	87aa                	mv	a5,a0
   10a4a:	fcb43823          	sd	a1,-48(s0)
   10a4e:	fcf42e23          	sw	a5,-36(s0)
   10a52:	00002797          	auipc	a5,0x2
   10a56:	36e78793          	addi	a5,a5,878 # 12dc0 <cmd_table>
   10a5a:	2fc7a703          	lw	a4,764(a5)
   10a5e:	fdc42783          	lw	a5,-36(s0)
   10a62:	2781                	sext.w	a5,a5
   10a64:	00e7d863          	bge	a5,a4,10a74 <shell_rm+0x34>
   10a68:	b9818513          	addi	a0,gp,-1128 # 13108 <arg_num_error>
   10a6c:	d94ff0ef          	jal	ra,10000 <panic>
   10a70:	57fd                	li	a5,-1
   10a72:	a811                	j	10a86 <shell_rm+0x46>
   10a74:	fd043783          	ld	a5,-48(s0)
   10a78:	fef43423          	sd	a5,-24(s0)
   10a7c:	fe843503          	ld	a0,-24(s0)
   10a80:	2e7010ef          	jal	ra,12566 <frm>
   10a84:	87aa                	mv	a5,a0
   10a86:	853e                	mv	a0,a5
   10a88:	70a2                	ld	ra,40(sp)
   10a8a:	7402                	ld	s0,32(sp)
   10a8c:	6145                	addi	sp,sp,48
   10a8e:	8082                	ret

0000000000010a90 <shell_ln>:
   10a90:	7139                	addi	sp,sp,-64
   10a92:	fc06                	sd	ra,56(sp)
   10a94:	f822                	sd	s0,48(sp)
   10a96:	0080                	addi	s0,sp,64
   10a98:	87aa                	mv	a5,a0
   10a9a:	fcb43023          	sd	a1,-64(s0)
   10a9e:	fcf42623          	sw	a5,-52(s0)
   10aa2:	00002797          	auipc	a5,0x2
   10aa6:	31e78793          	addi	a5,a5,798 # 12dc0 <cmd_table>
   10aaa:	2fc7a703          	lw	a4,764(a5)
   10aae:	fcc42783          	lw	a5,-52(s0)
   10ab2:	2781                	sext.w	a5,a5
   10ab4:	00e7d863          	bge	a5,a4,10ac4 <shell_ln+0x34>
   10ab8:	b9818513          	addi	a0,gp,-1128 # 13108 <arg_num_error>
   10abc:	d44ff0ef          	jal	ra,10000 <panic>
   10ac0:	57fd                	li	a5,-1
   10ac2:	a855                	j	10b76 <shell_ln+0xe6>
   10ac4:	fc043783          	ld	a5,-64(s0)
   10ac8:	fef43423          	sd	a5,-24(s0)
   10acc:	fc043783          	ld	a5,-64(s0)
   10ad0:	07c1                	addi	a5,a5,16
   10ad2:	fef43023          	sd	a5,-32(s0)
   10ad6:	fcc42783          	lw	a5,-52(s0)
   10ada:	0007871b          	sext.w	a4,a5
   10ade:	4789                	li	a5,2
   10ae0:	02f71563          	bne	a4,a5,10b0a <shell_ln+0x7a>
   10ae4:	fe043603          	ld	a2,-32(s0)
   10ae8:	fe843583          	ld	a1,-24(s0)
   10aec:	00002517          	auipc	a0,0x2
   10af0:	18c50513          	addi	a0,a0,396 # 12c78 <clear_bss_done+0x64a>
   10af4:	315000ef          	jal	ra,11608 <printf>
   10af8:	fe043603          	ld	a2,-32(s0)
   10afc:	fe843583          	ld	a1,-24(s0)
   10b00:	4501                	li	a0,0
   10b02:	28b010ef          	jal	ra,1258c <ln>
   10b06:	87aa                	mv	a5,a0
   10b08:	a0bd                	j	10b76 <shell_ln+0xe6>
   10b0a:	00002597          	auipc	a1,0x2
   10b0e:	18e58593          	addi	a1,a1,398 # 12c98 <clear_bss_done+0x66a>
   10b12:	fe843503          	ld	a0,-24(s0)
   10b16:	5e1000ef          	jal	ra,118f6 <strcmp>
   10b1a:	87aa                	mv	a5,a0
   10b1c:	eb99                	bnez	a5,10b32 <shell_ln+0xa2>
   10b1e:	00002597          	auipc	a1,0x2
   10b22:	18258593          	addi	a1,a1,386 # 12ca0 <clear_bss_done+0x672>
   10b26:	fe843503          	ld	a0,-24(s0)
   10b2a:	5cd000ef          	jal	ra,118f6 <strcmp>
   10b2e:	87aa                	mv	a5,a0
   10b30:	c799                	beqz	a5,10b3e <shell_ln+0xae>
   10b32:	b9818513          	addi	a0,gp,-1128 # 13108 <arg_num_error>
   10b36:	ccaff0ef          	jal	ra,10000 <panic>
   10b3a:	57fd                	li	a5,-1
   10b3c:	a82d                	j	10b76 <shell_ln+0xe6>
   10b3e:	fc043783          	ld	a5,-64(s0)
   10b42:	02078793          	addi	a5,a5,32
   10b46:	fcf43c23          	sd	a5,-40(s0)
   10b4a:	fe843783          	ld	a5,-24(s0)
   10b4e:	0785                	addi	a5,a5,1
   10b50:	0007c783          	lbu	a5,0(a5)
   10b54:	0007871b          	sext.w	a4,a5
   10b58:	06800793          	li	a5,104
   10b5c:	00e7b7b3          	sltu	a5,a5,a4
   10b60:	0ff7f793          	andi	a5,a5,255
   10b64:	2781                	sext.w	a5,a5
   10b66:	fd843603          	ld	a2,-40(s0)
   10b6a:	fe043583          	ld	a1,-32(s0)
   10b6e:	853e                	mv	a0,a5
   10b70:	21d010ef          	jal	ra,1258c <ln>
   10b74:	87aa                	mv	a5,a0
   10b76:	853e                	mv	a0,a5
   10b78:	70e2                	ld	ra,56(sp)
   10b7a:	7442                	ld	s0,48(sp)
   10b7c:	6121                	addi	sp,sp,64
   10b7e:	8082                	ret

0000000000010b80 <main>:
   10b80:	710d                	addi	sp,sp,-352
   10b82:	ee86                	sd	ra,344(sp)
   10b84:	eaa2                	sd	s0,336(sp)
   10b86:	1280                	addi	s0,sp,352
   10b88:	c2818793          	addi	a5,gp,-984 # 13198 <__SDATA_BEGIN__>
   10b8c:	0007a023          	sw	zero,0(a5)
   10b90:	4d8010ef          	jal	ra,12068 <sys_screen_clear>
   10b94:	45e5                	li	a1,25
   10b96:	4505                	li	a0,1
   10b98:	3ea010ef          	jal	ra,11f82 <sys_move_cursor>
   10b9c:	00002517          	auipc	a0,0x2
   10ba0:	09450513          	addi	a0,a0,148 # 12c30 <clear_bss_done+0x602>
   10ba4:	265000ef          	jal	ra,11608 <printf>
   10ba8:	f6043423          	sd	zero,-152(s0)
   10bac:	f6043823          	sd	zero,-144(s0)
   10bb0:	f6043c23          	sd	zero,-136(s0)
   10bb4:	f8043023          	sd	zero,-128(s0)
   10bb8:	f8043423          	sd	zero,-120(s0)
   10bbc:	f8043823          	sd	zero,-112(s0)
   10bc0:	f8043c23          	sd	zero,-104(s0)
   10bc4:	fa043023          	sd	zero,-96(s0)
   10bc8:	fa043423          	sd	zero,-88(s0)
   10bcc:	fa043823          	sd	zero,-80(s0)
   10bd0:	fa043c23          	sd	zero,-72(s0)
   10bd4:	fc043023          	sd	zero,-64(s0)
   10bd8:	fc042423          	sw	zero,-56(s0)
   10bdc:	f4043c23          	sd	zero,-168(s0)
   10be0:	f6043023          	sd	zero,-160(s0)
   10be4:	eb840793          	addi	a5,s0,-328
   10be8:	0a000713          	li	a4,160
   10bec:	863a                	mv	a2,a4
   10bee:	4581                	li	a1,0
   10bf0:	853e                	mv	a0,a5
   10bf2:	48b000ef          	jal	ra,1187c <memset>
   10bf6:	eb840793          	addi	a5,s0,-328
   10bfa:	0a000613          	li	a2,160
   10bfe:	4581                	li	a1,0
   10c00:	853e                	mv	a0,a5
   10c02:	47b000ef          	jal	ra,1187c <memset>
   10c06:	fe042623          	sw	zero,-20(s0)
   10c0a:	fe042423          	sw	zero,-24(s0)
   10c0e:	57fd                	li	a5,-1
   10c10:	fef42223          	sw	a5,-28(s0)
   10c14:	fe042023          	sw	zero,-32(s0)
   10c18:	00002517          	auipc	a0,0x2
   10c1c:	09050513          	addi	a0,a0,144 # 12ca8 <clear_bss_done+0x67a>
   10c20:	1e9000ef          	jal	ra,11608 <printf>
   10c24:	ea840793          	addi	a5,s0,-344
   10c28:	853e                	mv	a0,a5
   10c2a:	7fa010ef          	jal	ra,12424 <pwd>
   10c2e:	ea840793          	addi	a5,s0,-344
   10c32:	85be                	mv	a1,a5
   10c34:	00002517          	auipc	a0,0x2
   10c38:	08c50513          	addi	a0,a0,140 # 12cc0 <clear_bss_done+0x692>
   10c3c:	1cd000ef          	jal	ra,11608 <printf>
   10c40:	00002517          	auipc	a0,0x2
   10c44:	08850513          	addi	a0,a0,136 # 12cc8 <clear_bss_done+0x69a>
   10c48:	1c1000ef          	jal	ra,11608 <printf>
   10c4c:	aa81                	j	10d9c <main+0x21c>
   10c4e:	38a010ef          	jal	ra,11fd8 <sys_serial_read>
   10c52:	87aa                	mv	a5,a0
   10c54:	fcf409a3          	sb	a5,-45(s0)
   10c58:	fd344783          	lbu	a5,-45(s0)
   10c5c:	0ff7f713          	andi	a4,a5,255
   10c60:	478d                	li	a5,3
   10c62:	02f70063          	beq	a4,a5,10c82 <main+0x102>
   10c66:	fd344783          	lbu	a5,-45(s0)
   10c6a:	0ff7f713          	andi	a4,a5,255
   10c6e:	4791                	li	a5,4
   10c70:	00f70963          	beq	a4,a5,10c82 <main+0x102>
   10c74:	fd344783          	lbu	a5,-45(s0)
   10c78:	0ff7f713          	andi	a4,a5,255
   10c7c:	47e1                	li	a5,24
   10c7e:	02f71063          	bne	a4,a5,10c9e <main+0x11e>
   10c82:	fd344783          	lbu	a5,-45(s0)
   10c86:	2781                	sext.w	a5,a5
   10c88:	0407879b          	addiw	a5,a5,64
   10c8c:	2781                	sext.w	a5,a5
   10c8e:	85be                	mv	a1,a5
   10c90:	00002517          	auipc	a0,0x2
   10c94:	04050513          	addi	a0,a0,64 # 12cd0 <clear_bss_done+0x6a2>
   10c98:	171000ef          	jal	ra,11608 <printf>
   10c9c:	ac81                	j	10eec <main+0x36c>
   10c9e:	fd344783          	lbu	a5,-45(s0)
   10ca2:	0ff7f713          	andi	a4,a5,255
   10ca6:	47a5                	li	a5,9
   10ca8:	02f71463          	bne	a4,a5,10cd0 <main+0x150>
   10cac:	02000513          	li	a0,32
   10cb0:	38e010ef          	jal	ra,1203e <sys_serial_write>
   10cb4:	fec42783          	lw	a5,-20(s0)
   10cb8:	0017871b          	addiw	a4,a5,1
   10cbc:	fee42623          	sw	a4,-20(s0)
   10cc0:	ff040713          	addi	a4,s0,-16
   10cc4:	97ba                	add	a5,a5,a4
   10cc6:	02000713          	li	a4,32
   10cca:	f6e78c23          	sb	a4,-136(a5)
   10cce:	a0f9                	j	10d9c <main+0x21c>
   10cd0:	fd344783          	lbu	a5,-45(s0)
   10cd4:	0ff7f713          	andi	a4,a5,255
   10cd8:	47a9                	li	a5,10
   10cda:	00f70963          	beq	a4,a5,10cec <main+0x16c>
   10cde:	fd344783          	lbu	a5,-45(s0)
   10ce2:	0ff7f713          	andi	a4,a5,255
   10ce6:	47b5                	li	a5,13
   10ce8:	02f71363          	bne	a4,a5,10d0e <main+0x18e>
   10cec:	4529                	li	a0,10
   10cee:	19b000ef          	jal	ra,11688 <putchar>
   10cf2:	c2818793          	addi	a5,gp,-984 # 13198 <__SDATA_BEGIN__>
   10cf6:	439c                	lw	a5,0(a5)
   10cf8:	2785                	addiw	a5,a5,1
   10cfa:	0007871b          	sext.w	a4,a5
   10cfe:	c2818793          	addi	a5,gp,-984 # 13198 <__SDATA_BEGIN__>
   10d02:	c398                	sw	a4,0(a5)
   10d04:	fec42783          	lw	a5,-20(s0)
   10d08:	2781                	sext.w	a5,a5
   10d0a:	e3d5                	bnez	a5,10dae <main+0x22e>
   10d0c:	a2c5                	j	10eec <main+0x36c>
   10d0e:	fd344783          	lbu	a5,-45(s0)
   10d12:	0ff7f713          	andi	a4,a5,255
   10d16:	47fd                	li	a5,31
   10d18:	02e7fd63          	bgeu	a5,a4,10d52 <main+0x1d2>
   10d1c:	fd344783          	lbu	a5,-45(s0)
   10d20:	0ff7f713          	andi	a4,a5,255
   10d24:	07e00793          	li	a5,126
   10d28:	02e7e563          	bltu	a5,a4,10d52 <main+0x1d2>
   10d2c:	fd344783          	lbu	a5,-45(s0)
   10d30:	853e                	mv	a0,a5
   10d32:	30c010ef          	jal	ra,1203e <sys_serial_write>
   10d36:	fec42783          	lw	a5,-20(s0)
   10d3a:	0017871b          	addiw	a4,a5,1
   10d3e:	fee42623          	sw	a4,-20(s0)
   10d42:	ff040713          	addi	a4,s0,-16
   10d46:	97ba                	add	a5,a5,a4
   10d48:	fd344703          	lbu	a4,-45(s0)
   10d4c:	f6e78c23          	sb	a4,-136(a5)
   10d50:	a0b1                	j	10d9c <main+0x21c>
   10d52:	fd344783          	lbu	a5,-45(s0)
   10d56:	0ff7f713          	andi	a4,a5,255
   10d5a:	47a1                	li	a5,8
   10d5c:	00f70a63          	beq	a4,a5,10d70 <main+0x1f0>
   10d60:	fd344783          	lbu	a5,-45(s0)
   10d64:	0ff7f713          	andi	a4,a5,255
   10d68:	07f00793          	li	a5,127
   10d6c:	02f71863          	bne	a4,a5,10d9c <main+0x21c>
   10d70:	fec42783          	lw	a5,-20(s0)
   10d74:	2781                	sext.w	a5,a5
   10d76:	02f05363          	blez	a5,10d9c <main+0x21c>
   10d7a:	fd344783          	lbu	a5,-45(s0)
   10d7e:	853e                	mv	a0,a5
   10d80:	2be010ef          	jal	ra,1203e <sys_serial_write>
   10d84:	fec42783          	lw	a5,-20(s0)
   10d88:	37fd                	addiw	a5,a5,-1
   10d8a:	fef42623          	sw	a5,-20(s0)
   10d8e:	fec42783          	lw	a5,-20(s0)
   10d92:	ff040713          	addi	a4,s0,-16
   10d96:	97ba                	add	a5,a5,a4
   10d98:	f6078c23          	sb	zero,-136(a5)
   10d9c:	fec42783          	lw	a5,-20(s0)
   10da0:	0007871b          	sext.w	a4,a5
   10da4:	06300793          	li	a5,99
   10da8:	eae7d3e3          	bge	a5,a4,10c4e <main+0xce>
   10dac:	a011                	j	10db0 <main+0x230>
   10dae:	0001                	nop
   10db0:	c2818793          	addi	a5,gp,-984 # 13198 <__SDATA_BEGIN__>
   10db4:	439c                	lw	a5,0(a5)
   10db6:	2785                	addiw	a5,a5,1
   10db8:	0007871b          	sext.w	a4,a5
   10dbc:	c2818793          	addi	a5,gp,-984 # 13198 <__SDATA_BEGIN__>
   10dc0:	c398                	sw	a4,0(a5)
   10dc2:	f6840793          	addi	a5,s0,-152
   10dc6:	fcf43c23          	sd	a5,-40(s0)
   10dca:	f5840793          	addi	a5,s0,-168
   10dce:	46c1                	li	a3,16
   10dd0:	02000613          	li	a2,32
   10dd4:	fd843583          	ld	a1,-40(s0)
   10dd8:	853e                	mv	a0,a5
   10dda:	46d000ef          	jal	ra,11a46 <strtok>
   10dde:	fca43c23          	sd	a0,-40(s0)
   10de2:	0001                	nop
   10de4:	fe842783          	lw	a5,-24(s0)
   10de8:	0017871b          	addiw	a4,a5,1
   10dec:	fee42423          	sw	a4,-24(s0)
   10df0:	eb840713          	addi	a4,s0,-328
   10df4:	0792                	slli	a5,a5,0x4
   10df6:	97ba                	add	a5,a5,a4
   10df8:	46c1                	li	a3,16
   10dfa:	02000613          	li	a2,32
   10dfe:	fd843583          	ld	a1,-40(s0)
   10e02:	853e                	mv	a0,a5
   10e04:	443000ef          	jal	ra,11a46 <strtok>
   10e08:	fca43c23          	sd	a0,-40(s0)
   10e0c:	fd843783          	ld	a5,-40(s0)
   10e10:	cb81                	beqz	a5,10e20 <main+0x2a0>
   10e12:	fe842783          	lw	a5,-24(s0)
   10e16:	0007871b          	sext.w	a4,a5
   10e1a:	47a5                	li	a5,9
   10e1c:	fce7d4e3          	bge	a5,a4,10de4 <main+0x264>
   10e20:	fc042a23          	sw	zero,-44(s0)
   10e24:	a851                	j	10eb8 <main+0x338>
   10e26:	00002697          	auipc	a3,0x2
   10e2a:	f9a68693          	addi	a3,a3,-102 # 12dc0 <cmd_table>
   10e2e:	fd442703          	lw	a4,-44(s0)
   10e32:	87ba                	mv	a5,a4
   10e34:	0786                	slli	a5,a5,0x1
   10e36:	97ba                	add	a5,a5,a4
   10e38:	0792                	slli	a5,a5,0x4
   10e3a:	97b6                	add	a5,a5,a3
   10e3c:	6398                	ld	a4,0(a5)
   10e3e:	f5840793          	addi	a5,s0,-168
   10e42:	85ba                	mv	a1,a4
   10e44:	853e                	mv	a0,a5
   10e46:	2b1000ef          	jal	ra,118f6 <strcmp>
   10e4a:	87aa                	mv	a5,a0
   10e4c:	c78d                	beqz	a5,10e76 <main+0x2f6>
   10e4e:	00002697          	auipc	a3,0x2
   10e52:	f7268693          	addi	a3,a3,-142 # 12dc0 <cmd_table>
   10e56:	fd442703          	lw	a4,-44(s0)
   10e5a:	87ba                	mv	a5,a4
   10e5c:	0786                	slli	a5,a5,0x1
   10e5e:	97ba                	add	a5,a5,a4
   10e60:	0792                	slli	a5,a5,0x4
   10e62:	97b6                	add	a5,a5,a3
   10e64:	6798                	ld	a4,8(a5)
   10e66:	f5840793          	addi	a5,s0,-168
   10e6a:	85ba                	mv	a1,a4
   10e6c:	853e                	mv	a0,a5
   10e6e:	289000ef          	jal	ra,118f6 <strcmp>
   10e72:	87aa                	mv	a5,a0
   10e74:	ef8d                	bnez	a5,10eae <main+0x32e>
   10e76:	4785                	li	a5,1
   10e78:	fef42023          	sw	a5,-32(s0)
   10e7c:	00002697          	auipc	a3,0x2
   10e80:	f4468693          	addi	a3,a3,-188 # 12dc0 <cmd_table>
   10e84:	fd442703          	lw	a4,-44(s0)
   10e88:	87ba                	mv	a5,a4
   10e8a:	0786                	slli	a5,a5,0x1
   10e8c:	97ba                	add	a5,a5,a4
   10e8e:	0792                	slli	a5,a5,0x4
   10e90:	97b6                	add	a5,a5,a3
   10e92:	7394                	ld	a3,32(a5)
   10e94:	fe842783          	lw	a5,-24(s0)
   10e98:	37fd                	addiw	a5,a5,-1
   10e9a:	2781                	sext.w	a5,a5
   10e9c:	eb840713          	addi	a4,s0,-328
   10ea0:	85ba                	mv	a1,a4
   10ea2:	853e                	mv	a0,a5
   10ea4:	9682                	jalr	a3
   10ea6:	87aa                	mv	a5,a0
   10ea8:	fef42223          	sw	a5,-28(s0)
   10eac:	a829                	j	10ec6 <main+0x346>
   10eae:	fd442783          	lw	a5,-44(s0)
   10eb2:	2785                	addiw	a5,a5,1
   10eb4:	fcf42a23          	sw	a5,-44(s0)
   10eb8:	fd442783          	lw	a5,-44(s0)
   10ebc:	0007871b          	sext.w	a4,a5
   10ec0:	47c1                	li	a5,16
   10ec2:	f6e7d2e3          	bge	a5,a4,10e26 <main+0x2a6>
   10ec6:	fe042783          	lw	a5,-32(s0)
   10eca:	2781                	sext.w	a5,a5
   10ecc:	e789                	bnez	a5,10ed6 <main+0x356>
   10ece:	b8018513          	addi	a0,gp,-1152 # 130f0 <cmd_not_found>
   10ed2:	92eff0ef          	jal	ra,10000 <panic>
   10ed6:	fe442783          	lw	a5,-28(s0)
   10eda:	2781                	sext.w	a5,a5
   10edc:	0007d763          	bgez	a5,10eea <main+0x36a>
   10ee0:	be018513          	addi	a0,gp,-1056 # 13150 <cmd_error>
   10ee4:	91cff0ef          	jal	ra,10000 <panic>
   10ee8:	a011                	j	10eec <main+0x36c>
   10eea:	0001                	nop
   10eec:	c2818793          	addi	a5,gp,-984 # 13198 <__SDATA_BEGIN__>
   10ef0:	439c                	lw	a5,0(a5)
   10ef2:	873e                	mv	a4,a5
   10ef4:	47c1                	li	a5,16
   10ef6:	02e7d263          	bge	a5,a4,10f1a <main+0x39a>
   10efa:	c2818793          	addi	a5,gp,-984 # 13198 <__SDATA_BEGIN__>
   10efe:	0007a023          	sw	zero,0(a5)
   10f02:	166010ef          	jal	ra,12068 <sys_screen_clear>
   10f06:	45e5                	li	a1,25
   10f08:	4505                	li	a0,1
   10f0a:	078010ef          	jal	ra,11f82 <sys_move_cursor>
   10f0e:	00002517          	auipc	a0,0x2
   10f12:	d2250513          	addi	a0,a0,-734 # 12c30 <clear_bss_done+0x602>
   10f16:	6f2000ef          	jal	ra,11608 <printf>
   10f1a:	f6840793          	addi	a5,s0,-152
   10f1e:	06400613          	li	a2,100
   10f22:	4581                	li	a1,0
   10f24:	853e                	mv	a0,a5
   10f26:	157000ef          	jal	ra,1187c <memset>
   10f2a:	f5840793          	addi	a5,s0,-168
   10f2e:	4641                	li	a2,16
   10f30:	4581                	li	a1,0
   10f32:	853e                	mv	a0,a5
   10f34:	149000ef          	jal	ra,1187c <memset>
   10f38:	eb840793          	addi	a5,s0,-328
   10f3c:	0a000613          	li	a2,160
   10f40:	4581                	li	a1,0
   10f42:	853e                	mv	a0,a5
   10f44:	139000ef          	jal	ra,1187c <memset>
   10f48:	fe042623          	sw	zero,-20(s0)
   10f4c:	fe042423          	sw	zero,-24(s0)
   10f50:	57fd                	li	a5,-1
   10f52:	fef42223          	sw	a5,-28(s0)
   10f56:	fe042023          	sw	zero,-32(s0)
   10f5a:	b97d                	j	10c18 <main+0x98>

0000000000010f5c <mini_itoa>:
   10f5c:	715d                	addi	sp,sp,-80
   10f5e:	e4a2                	sd	s0,72(sp)
   10f60:	0880                	addi	s0,sp,80
   10f62:	fca43423          	sd	a0,-56(s0)
   10f66:	fae43823          	sd	a4,-80(s0)
   10f6a:	873e                	mv	a4,a5
   10f6c:	87ae                	mv	a5,a1
   10f6e:	fcf42223          	sw	a5,-60(s0)
   10f72:	87b2                	mv	a5,a2
   10f74:	fcf42023          	sw	a5,-64(s0)
   10f78:	87b6                	mv	a5,a3
   10f7a:	faf42e23          	sw	a5,-68(s0)
   10f7e:	87ba                	mv	a5,a4
   10f80:	faf42c23          	sw	a5,-72(s0)
   10f84:	fb043783          	ld	a5,-80(s0)
   10f88:	fef43423          	sd	a5,-24(s0)
   10f8c:	fe042223          	sw	zero,-28(s0)
   10f90:	fc442783          	lw	a5,-60(s0)
   10f94:	0007871b          	sext.w	a4,a5
   10f98:	47c1                	li	a5,16
   10f9a:	00e7f463          	bgeu	a5,a4,10fa2 <mini_itoa+0x46>
   10f9e:	4781                	li	a5,0
   10fa0:	a255                	j	11144 <mini_itoa+0x1e8>
   10fa2:	fc843783          	ld	a5,-56(s0)
   10fa6:	0007df63          	bgez	a5,10fc4 <mini_itoa+0x68>
   10faa:	fbc42783          	lw	a5,-68(s0)
   10fae:	2781                	sext.w	a5,a5
   10fb0:	eb91                	bnez	a5,10fc4 <mini_itoa+0x68>
   10fb2:	4785                	li	a5,1
   10fb4:	fef42223          	sw	a5,-28(s0)
   10fb8:	fc843783          	ld	a5,-56(s0)
   10fbc:	40f007b3          	neg	a5,a5
   10fc0:	fcf43423          	sd	a5,-56(s0)
   10fc4:	fc446783          	lwu	a5,-60(s0)
   10fc8:	fc843703          	ld	a4,-56(s0)
   10fcc:	02f767b3          	rem	a5,a4,a5
   10fd0:	fcf42e23          	sw	a5,-36(s0)
   10fd4:	fdc42783          	lw	a5,-36(s0)
   10fd8:	0007871b          	sext.w	a4,a5
   10fdc:	47a5                	li	a5,9
   10fde:	00e7cb63          	blt	a5,a4,10ff4 <mini_itoa+0x98>
   10fe2:	fdc42783          	lw	a5,-36(s0)
   10fe6:	0ff7f793          	andi	a5,a5,255
   10fea:	0307879b          	addiw	a5,a5,48
   10fee:	0ff7f713          	andi	a4,a5,255
   10ff2:	a025                	j	1101a <mini_itoa+0xbe>
   10ff4:	fc042783          	lw	a5,-64(s0)
   10ff8:	2781                	sext.w	a5,a5
   10ffa:	c781                	beqz	a5,11002 <mini_itoa+0xa6>
   10ffc:	04100793          	li	a5,65
   11000:	a019                	j	11006 <mini_itoa+0xaa>
   11002:	06100793          	li	a5,97
   11006:	fdc42703          	lw	a4,-36(s0)
   1100a:	0ff77713          	andi	a4,a4,255
   1100e:	9fb9                	addw	a5,a5,a4
   11010:	0ff7f793          	andi	a5,a5,255
   11014:	37d9                	addiw	a5,a5,-10
   11016:	0ff7f713          	andi	a4,a5,255
   1101a:	fe843783          	ld	a5,-24(s0)
   1101e:	00178693          	addi	a3,a5,1
   11022:	fed43423          	sd	a3,-24(s0)
   11026:	00e78023          	sb	a4,0(a5)
   1102a:	fc446783          	lwu	a5,-60(s0)
   1102e:	fc843703          	ld	a4,-56(s0)
   11032:	02f747b3          	div	a5,a4,a5
   11036:	fcf43423          	sd	a5,-56(s0)
   1103a:	fc843783          	ld	a5,-56(s0)
   1103e:	f8f043e3          	bgtz	a5,10fc4 <mini_itoa+0x68>
   11042:	fe843703          	ld	a4,-24(s0)
   11046:	fb043783          	ld	a5,-80(s0)
   1104a:	40f707b3          	sub	a5,a4,a5
   1104e:	fef42023          	sw	a5,-32(s0)
   11052:	a005                	j	11072 <mini_itoa+0x116>
   11054:	fe843783          	ld	a5,-24(s0)
   11058:	00178713          	addi	a4,a5,1
   1105c:	fee43423          	sd	a4,-24(s0)
   11060:	03000713          	li	a4,48
   11064:	00e78023          	sb	a4,0(a5)
   11068:	fe042783          	lw	a5,-32(s0)
   1106c:	2785                	addiw	a5,a5,1
   1106e:	fef42023          	sw	a5,-32(s0)
   11072:	fe042703          	lw	a4,-32(s0)
   11076:	fb842783          	lw	a5,-72(s0)
   1107a:	2701                	sext.w	a4,a4
   1107c:	2781                	sext.w	a5,a5
   1107e:	fcf76be3          	bltu	a4,a5,11054 <mini_itoa+0xf8>
   11082:	fe442783          	lw	a5,-28(s0)
   11086:	2781                	sext.w	a5,a5
   11088:	cb99                	beqz	a5,1109e <mini_itoa+0x142>
   1108a:	fe843783          	ld	a5,-24(s0)
   1108e:	00178713          	addi	a4,a5,1
   11092:	fee43423          	sd	a4,-24(s0)
   11096:	02d00713          	li	a4,45
   1109a:	00e78023          	sb	a4,0(a5)
   1109e:	fe843783          	ld	a5,-24(s0)
   110a2:	00078023          	sb	zero,0(a5)
   110a6:	fe843703          	ld	a4,-24(s0)
   110aa:	fb043783          	ld	a5,-80(s0)
   110ae:	40f707b3          	sub	a5,a4,a5
   110b2:	fcf42c23          	sw	a5,-40(s0)
   110b6:	fe042023          	sw	zero,-32(s0)
   110ba:	a885                	j	1112a <mini_itoa+0x1ce>
   110bc:	fe046783          	lwu	a5,-32(s0)
   110c0:	fb043703          	ld	a4,-80(s0)
   110c4:	97ba                	add	a5,a5,a4
   110c6:	0007c783          	lbu	a5,0(a5)
   110ca:	fcf40ba3          	sb	a5,-41(s0)
   110ce:	fd842703          	lw	a4,-40(s0)
   110d2:	fe042783          	lw	a5,-32(s0)
   110d6:	40f707bb          	subw	a5,a4,a5
   110da:	2781                	sext.w	a5,a5
   110dc:	37fd                	addiw	a5,a5,-1
   110de:	2781                	sext.w	a5,a5
   110e0:	1782                	slli	a5,a5,0x20
   110e2:	9381                	srli	a5,a5,0x20
   110e4:	fb043703          	ld	a4,-80(s0)
   110e8:	973e                	add	a4,a4,a5
   110ea:	fe046783          	lwu	a5,-32(s0)
   110ee:	fb043683          	ld	a3,-80(s0)
   110f2:	97b6                	add	a5,a5,a3
   110f4:	00074703          	lbu	a4,0(a4)
   110f8:	00e78023          	sb	a4,0(a5)
   110fc:	fd842703          	lw	a4,-40(s0)
   11100:	fe042783          	lw	a5,-32(s0)
   11104:	40f707bb          	subw	a5,a4,a5
   11108:	2781                	sext.w	a5,a5
   1110a:	37fd                	addiw	a5,a5,-1
   1110c:	2781                	sext.w	a5,a5
   1110e:	1782                	slli	a5,a5,0x20
   11110:	9381                	srli	a5,a5,0x20
   11112:	fb043703          	ld	a4,-80(s0)
   11116:	97ba                	add	a5,a5,a4
   11118:	fd744703          	lbu	a4,-41(s0)
   1111c:	00e78023          	sb	a4,0(a5)
   11120:	fe042783          	lw	a5,-32(s0)
   11124:	2785                	addiw	a5,a5,1
   11126:	fef42023          	sw	a5,-32(s0)
   1112a:	fd842783          	lw	a5,-40(s0)
   1112e:	0017d79b          	srliw	a5,a5,0x1
   11132:	0007871b          	sext.w	a4,a5
   11136:	fe042783          	lw	a5,-32(s0)
   1113a:	2781                	sext.w	a5,a5
   1113c:	f8e7e0e3          	bltu	a5,a4,110bc <mini_itoa+0x160>
   11140:	fd842783          	lw	a5,-40(s0)
   11144:	853e                	mv	a0,a5
   11146:	6426                	ld	s0,72(sp)
   11148:	6161                	addi	sp,sp,80
   1114a:	8082                	ret

000000000001114c <_putc>:
   1114c:	1101                	addi	sp,sp,-32
   1114e:	ec22                	sd	s0,24(sp)
   11150:	1000                	addi	s0,sp,32
   11152:	87aa                	mv	a5,a0
   11154:	feb43023          	sd	a1,-32(s0)
   11158:	fef42623          	sw	a5,-20(s0)
   1115c:	fe043783          	ld	a5,-32(s0)
   11160:	6798                	ld	a4,8(a5)
   11162:	fe043783          	ld	a5,-32(s0)
   11166:	639c                	ld	a5,0(a5)
   11168:	40f707b3          	sub	a5,a4,a5
   1116c:	2781                	sext.w	a5,a5
   1116e:	2785                	addiw	a5,a5,1
   11170:	0007871b          	sext.w	a4,a5
   11174:	fe043783          	ld	a5,-32(s0)
   11178:	4b9c                	lw	a5,16(a5)
   1117a:	00f76463          	bltu	a4,a5,11182 <_putc+0x36>
   1117e:	4781                	li	a5,0
   11180:	a02d                	j	111aa <_putc+0x5e>
   11182:	fe043783          	ld	a5,-32(s0)
   11186:	679c                	ld	a5,8(a5)
   11188:	00178693          	addi	a3,a5,1
   1118c:	fe043703          	ld	a4,-32(s0)
   11190:	e714                	sd	a3,8(a4)
   11192:	fec42703          	lw	a4,-20(s0)
   11196:	0ff77713          	andi	a4,a4,255
   1119a:	00e78023          	sb	a4,0(a5)
   1119e:	fe043783          	ld	a5,-32(s0)
   111a2:	679c                	ld	a5,8(a5)
   111a4:	00078023          	sb	zero,0(a5)
   111a8:	4785                	li	a5,1
   111aa:	853e                	mv	a0,a5
   111ac:	6462                	ld	s0,24(sp)
   111ae:	6105                	addi	sp,sp,32
   111b0:	8082                	ret

00000000000111b2 <_puts>:
   111b2:	7139                	addi	sp,sp,-64
   111b4:	fc22                	sd	s0,56(sp)
   111b6:	0080                	addi	s0,sp,64
   111b8:	fca43c23          	sd	a0,-40(s0)
   111bc:	87ae                	mv	a5,a1
   111be:	fcc43423          	sd	a2,-56(s0)
   111c2:	fcf42a23          	sw	a5,-44(s0)
   111c6:	fc843783          	ld	a5,-56(s0)
   111ca:	4b9c                	lw	a5,16(a5)
   111cc:	02079713          	slli	a4,a5,0x20
   111d0:	9301                	srli	a4,a4,0x20
   111d2:	fc843783          	ld	a5,-56(s0)
   111d6:	6794                	ld	a3,8(a5)
   111d8:	fc843783          	ld	a5,-56(s0)
   111dc:	639c                	ld	a5,0(a5)
   111de:	40f687b3          	sub	a5,a3,a5
   111e2:	8f1d                	sub	a4,a4,a5
   111e4:	fd446783          	lwu	a5,-44(s0)
   111e8:	02e7c463          	blt	a5,a4,11210 <_puts+0x5e>
   111ec:	fc843783          	ld	a5,-56(s0)
   111f0:	4b98                	lw	a4,16(a5)
   111f2:	fc843783          	ld	a5,-56(s0)
   111f6:	6794                	ld	a3,8(a5)
   111f8:	fc843783          	ld	a5,-56(s0)
   111fc:	639c                	ld	a5,0(a5)
   111fe:	40f687b3          	sub	a5,a3,a5
   11202:	2781                	sext.w	a5,a5
   11204:	40f707bb          	subw	a5,a4,a5
   11208:	2781                	sext.w	a5,a5
   1120a:	37fd                	addiw	a5,a5,-1
   1120c:	fcf42a23          	sw	a5,-44(s0)
   11210:	fe042623          	sw	zero,-20(s0)
   11214:	a03d                	j	11242 <_puts+0x90>
   11216:	fec46783          	lwu	a5,-20(s0)
   1121a:	fd843703          	ld	a4,-40(s0)
   1121e:	973e                	add	a4,a4,a5
   11220:	fc843783          	ld	a5,-56(s0)
   11224:	679c                	ld	a5,8(a5)
   11226:	00178613          	addi	a2,a5,1
   1122a:	fc843683          	ld	a3,-56(s0)
   1122e:	e690                	sd	a2,8(a3)
   11230:	00074703          	lbu	a4,0(a4)
   11234:	00e78023          	sb	a4,0(a5)
   11238:	fec42783          	lw	a5,-20(s0)
   1123c:	2785                	addiw	a5,a5,1
   1123e:	fef42623          	sw	a5,-20(s0)
   11242:	fec42703          	lw	a4,-20(s0)
   11246:	fd442783          	lw	a5,-44(s0)
   1124a:	2701                	sext.w	a4,a4
   1124c:	2781                	sext.w	a5,a5
   1124e:	fcf764e3          	bltu	a4,a5,11216 <_puts+0x64>
   11252:	fc843783          	ld	a5,-56(s0)
   11256:	679c                	ld	a5,8(a5)
   11258:	00078023          	sb	zero,0(a5)
   1125c:	fd442783          	lw	a5,-44(s0)
   11260:	853e                	mv	a0,a5
   11262:	7462                	ld	s0,56(sp)
   11264:	6121                	addi	sp,sp,64
   11266:	8082                	ret

0000000000011268 <mini_vsnprintf>:
   11268:	7119                	addi	sp,sp,-128
   1126a:	fc86                	sd	ra,120(sp)
   1126c:	f8a2                	sd	s0,112(sp)
   1126e:	0100                	addi	s0,sp,128
   11270:	f8a43c23          	sd	a0,-104(s0)
   11274:	87ae                	mv	a5,a1
   11276:	f8c43423          	sd	a2,-120(s0)
   1127a:	f8d43023          	sd	a3,-128(s0)
   1127e:	f8f42a23          	sw	a5,-108(s0)
   11282:	f9843783          	ld	a5,-104(s0)
   11286:	fcf43023          	sd	a5,-64(s0)
   1128a:	f9843783          	ld	a5,-104(s0)
   1128e:	fcf43423          	sd	a5,-56(s0)
   11292:	f9442783          	lw	a5,-108(s0)
   11296:	fcf42823          	sw	a5,-48(s0)
   1129a:	a4f9                	j	11568 <mini_vsnprintf+0x300>
   1129c:	fc843703          	ld	a4,-56(s0)
   112a0:	fc043783          	ld	a5,-64(s0)
   112a4:	40f707b3          	sub	a5,a4,a5
   112a8:	2781                	sext.w	a5,a5
   112aa:	2785                	addiw	a5,a5,1
   112ac:	0007871b          	sext.w	a4,a5
   112b0:	fd042783          	lw	a5,-48(s0)
   112b4:	2cf77b63          	bgeu	a4,a5,1158a <mini_vsnprintf+0x322>
   112b8:	fef44783          	lbu	a5,-17(s0)
   112bc:	0ff7f713          	andi	a4,a5,255
   112c0:	02500793          	li	a5,37
   112c4:	00f70c63          	beq	a4,a5,112dc <mini_vsnprintf+0x74>
   112c8:	fef44783          	lbu	a5,-17(s0)
   112cc:	2781                	sext.w	a5,a5
   112ce:	fc040713          	addi	a4,s0,-64
   112d2:	85ba                	mv	a1,a4
   112d4:	853e                	mv	a0,a5
   112d6:	e77ff0ef          	jal	ra,1114c <_putc>
   112da:	a479                	j	11568 <mini_vsnprintf+0x300>
   112dc:	fe040723          	sb	zero,-18(s0)
   112e0:	fe042423          	sw	zero,-24(s0)
   112e4:	f8843783          	ld	a5,-120(s0)
   112e8:	00178713          	addi	a4,a5,1
   112ec:	f8e43423          	sd	a4,-120(s0)
   112f0:	0007c783          	lbu	a5,0(a5)
   112f4:	fef407a3          	sb	a5,-17(s0)
   112f8:	fef44783          	lbu	a5,-17(s0)
   112fc:	0ff7f713          	andi	a4,a5,255
   11300:	03000793          	li	a5,48
   11304:	06f71b63          	bne	a4,a5,1137a <mini_vsnprintf+0x112>
   11308:	a891                	j	1135c <mini_vsnprintf+0xf4>
   1130a:	fef44783          	lbu	a5,-17(s0)
   1130e:	0ff7f793          	andi	a5,a5,255
   11312:	26078e63          	beqz	a5,1158e <mini_vsnprintf+0x326>
   11316:	fef44783          	lbu	a5,-17(s0)
   1131a:	0ff7f713          	andi	a4,a5,255
   1131e:	02f00793          	li	a5,47
   11322:	04e7fc63          	bgeu	a5,a4,1137a <mini_vsnprintf+0x112>
   11326:	fef44783          	lbu	a5,-17(s0)
   1132a:	0ff7f713          	andi	a4,a5,255
   1132e:	03900793          	li	a5,57
   11332:	04e7e463          	bltu	a5,a4,1137a <mini_vsnprintf+0x112>
   11336:	fee44703          	lbu	a4,-18(s0)
   1133a:	87ba                	mv	a5,a4
   1133c:	0027979b          	slliw	a5,a5,0x2
   11340:	9fb9                	addw	a5,a5,a4
   11342:	0017979b          	slliw	a5,a5,0x1
   11346:	0ff7f793          	andi	a5,a5,255
   1134a:	fef44703          	lbu	a4,-17(s0)
   1134e:	9fb9                	addw	a5,a5,a4
   11350:	0ff7f793          	andi	a5,a5,255
   11354:	fd07879b          	addiw	a5,a5,-48
   11358:	fef40723          	sb	a5,-18(s0)
   1135c:	f8843783          	ld	a5,-120(s0)
   11360:	00178713          	addi	a4,a5,1
   11364:	f8e43423          	sd	a4,-120(s0)
   11368:	0007c783          	lbu	a5,0(a5)
   1136c:	fef407a3          	sb	a5,-17(s0)
   11370:	fef44783          	lbu	a5,-17(s0)
   11374:	0ff7f793          	andi	a5,a5,255
   11378:	fbc9                	bnez	a5,1130a <mini_vsnprintf+0xa2>
   1137a:	fef44783          	lbu	a5,-17(s0)
   1137e:	0ff7f713          	andi	a4,a5,255
   11382:	06c00793          	li	a5,108
   11386:	00f71f63          	bne	a4,a5,113a4 <mini_vsnprintf+0x13c>
   1138a:	4785                	li	a5,1
   1138c:	fef42423          	sw	a5,-24(s0)
   11390:	f8843783          	ld	a5,-120(s0)
   11394:	00178713          	addi	a4,a5,1
   11398:	f8e43423          	sd	a4,-120(s0)
   1139c:	0007c783          	lbu	a5,0(a5)
   113a0:	fef407a3          	sb	a5,-17(s0)
   113a4:	fef44783          	lbu	a5,-17(s0)
   113a8:	2781                	sext.w	a5,a5
   113aa:	1e078463          	beqz	a5,11592 <mini_vsnprintf+0x32a>
   113ae:	873e                	mv	a4,a5
   113b0:	1a074263          	bltz	a4,11554 <mini_vsnprintf+0x2ec>
   113b4:	86be                	mv	a3,a5
   113b6:	07800713          	li	a4,120
   113ba:	18d74d63          	blt	a4,a3,11554 <mini_vsnprintf+0x2ec>
   113be:	86be                	mv	a3,a5
   113c0:	05800713          	li	a4,88
   113c4:	18e6c863          	blt	a3,a4,11554 <mini_vsnprintf+0x2ec>
   113c8:	fa87869b          	addiw	a3,a5,-88
   113cc:	0006871b          	sext.w	a4,a3
   113d0:	02000793          	li	a5,32
   113d4:	18e7e063          	bltu	a5,a4,11554 <mini_vsnprintf+0x2ec>
   113d8:	02069793          	slli	a5,a3,0x20
   113dc:	9381                	srli	a5,a5,0x20
   113de:	00279713          	slli	a4,a5,0x2
   113e2:	00002797          	auipc	a5,0x2
   113e6:	8f678793          	addi	a5,a5,-1802 # 12cd8 <clear_bss_done+0x6aa>
   113ea:	97ba                	add	a5,a5,a4
   113ec:	439c                	lw	a5,0(a5)
   113ee:	0007871b          	sext.w	a4,a5
   113f2:	00002797          	auipc	a5,0x2
   113f6:	8e678793          	addi	a5,a5,-1818 # 12cd8 <clear_bss_done+0x6aa>
   113fa:	97ba                	add	a5,a5,a4
   113fc:	8782                	jr	a5
   113fe:	4785                	li	a5,1
   11400:	fef42423          	sw	a5,-24(s0)
   11404:	a295                	j	11568 <mini_vsnprintf+0x300>
   11406:	fe842783          	lw	a5,-24(s0)
   1140a:	2781                	sext.w	a5,a5
   1140c:	ef81                	bnez	a5,11424 <mini_vsnprintf+0x1bc>
   1140e:	f8043783          	ld	a5,-128(s0)
   11412:	00878713          	addi	a4,a5,8
   11416:	f8e43023          	sd	a4,-128(s0)
   1141a:	439c                	lw	a5,0(a5)
   1141c:	02079513          	slli	a0,a5,0x20
   11420:	9101                	srli	a0,a0,0x20
   11422:	a809                	j	11434 <mini_vsnprintf+0x1cc>
   11424:	f8043783          	ld	a5,-128(s0)
   11428:	00878713          	addi	a4,a5,8
   1142c:	f8e43023          	sd	a4,-128(s0)
   11430:	639c                	ld	a5,0(a5)
   11432:	853e                	mv	a0,a5
   11434:	fef44783          	lbu	a5,-17(s0)
   11438:	0007871b          	sext.w	a4,a5
   1143c:	07500793          	li	a5,117
   11440:	40f707b3          	sub	a5,a4,a5
   11444:	0017b793          	seqz	a5,a5
   11448:	0ff7f793          	andi	a5,a5,255
   1144c:	0007869b          	sext.w	a3,a5
   11450:	fee44783          	lbu	a5,-18(s0)
   11454:	2781                	sext.w	a5,a5
   11456:	fa840713          	addi	a4,s0,-88
   1145a:	4601                	li	a2,0
   1145c:	45a9                	li	a1,10
   1145e:	affff0ef          	jal	ra,10f5c <mini_itoa>
   11462:	87aa                	mv	a5,a0
   11464:	fcf42e23          	sw	a5,-36(s0)
   11468:	fc040693          	addi	a3,s0,-64
   1146c:	fdc42703          	lw	a4,-36(s0)
   11470:	fa840793          	addi	a5,s0,-88
   11474:	8636                	mv	a2,a3
   11476:	85ba                	mv	a1,a4
   11478:	853e                	mv	a0,a5
   1147a:	d39ff0ef          	jal	ra,111b2 <_puts>
   1147e:	fe042423          	sw	zero,-24(s0)
   11482:	a0dd                	j	11568 <mini_vsnprintf+0x300>
   11484:	fe842783          	lw	a5,-24(s0)
   11488:	2781                	sext.w	a5,a5
   1148a:	ef81                	bnez	a5,114a2 <mini_vsnprintf+0x23a>
   1148c:	f8043783          	ld	a5,-128(s0)
   11490:	00878713          	addi	a4,a5,8
   11494:	f8e43023          	sd	a4,-128(s0)
   11498:	439c                	lw	a5,0(a5)
   1149a:	02079513          	slli	a0,a5,0x20
   1149e:	9101                	srli	a0,a0,0x20
   114a0:	a809                	j	114b2 <mini_vsnprintf+0x24a>
   114a2:	f8043783          	ld	a5,-128(s0)
   114a6:	00878713          	addi	a4,a5,8
   114aa:	f8e43023          	sd	a4,-128(s0)
   114ae:	639c                	ld	a5,0(a5)
   114b0:	853e                	mv	a0,a5
   114b2:	fef44783          	lbu	a5,-17(s0)
   114b6:	0007871b          	sext.w	a4,a5
   114ba:	05800793          	li	a5,88
   114be:	40f707b3          	sub	a5,a4,a5
   114c2:	0017b793          	seqz	a5,a5
   114c6:	0ff7f793          	andi	a5,a5,255
   114ca:	0007861b          	sext.w	a2,a5
   114ce:	fee44783          	lbu	a5,-18(s0)
   114d2:	2781                	sext.w	a5,a5
   114d4:	fa840713          	addi	a4,s0,-88
   114d8:	4685                	li	a3,1
   114da:	45c1                	li	a1,16
   114dc:	a81ff0ef          	jal	ra,10f5c <mini_itoa>
   114e0:	87aa                	mv	a5,a0
   114e2:	fcf42e23          	sw	a5,-36(s0)
   114e6:	fc040693          	addi	a3,s0,-64
   114ea:	fdc42703          	lw	a4,-36(s0)
   114ee:	fa840793          	addi	a5,s0,-88
   114f2:	8636                	mv	a2,a3
   114f4:	85ba                	mv	a1,a4
   114f6:	853e                	mv	a0,a5
   114f8:	cbbff0ef          	jal	ra,111b2 <_puts>
   114fc:	fe042423          	sw	zero,-24(s0)
   11500:	a0a5                	j	11568 <mini_vsnprintf+0x300>
   11502:	f8043783          	ld	a5,-128(s0)
   11506:	00878713          	addi	a4,a5,8
   1150a:	f8e43023          	sd	a4,-128(s0)
   1150e:	439c                	lw	a5,0(a5)
   11510:	0ff7f793          	andi	a5,a5,255
   11514:	2781                	sext.w	a5,a5
   11516:	fc040713          	addi	a4,s0,-64
   1151a:	85ba                	mv	a1,a4
   1151c:	853e                	mv	a0,a5
   1151e:	c2fff0ef          	jal	ra,1114c <_putc>
   11522:	a099                	j	11568 <mini_vsnprintf+0x300>
   11524:	f8043783          	ld	a5,-128(s0)
   11528:	00878713          	addi	a4,a5,8
   1152c:	f8e43023          	sd	a4,-128(s0)
   11530:	639c                	ld	a5,0(a5)
   11532:	fef43023          	sd	a5,-32(s0)
   11536:	fe043503          	ld	a0,-32(s0)
   1153a:	2b8000ef          	jal	ra,117f2 <strlen>
   1153e:	87aa                	mv	a5,a0
   11540:	2781                	sext.w	a5,a5
   11542:	fc040713          	addi	a4,s0,-64
   11546:	863a                	mv	a2,a4
   11548:	85be                	mv	a1,a5
   1154a:	fe043503          	ld	a0,-32(s0)
   1154e:	c65ff0ef          	jal	ra,111b2 <_puts>
   11552:	a819                	j	11568 <mini_vsnprintf+0x300>
   11554:	fef44783          	lbu	a5,-17(s0)
   11558:	2781                	sext.w	a5,a5
   1155a:	fc040713          	addi	a4,s0,-64
   1155e:	85ba                	mv	a1,a4
   11560:	853e                	mv	a0,a5
   11562:	bebff0ef          	jal	ra,1114c <_putc>
   11566:	0001                	nop
   11568:	f8843783          	ld	a5,-120(s0)
   1156c:	00178713          	addi	a4,a5,1
   11570:	f8e43423          	sd	a4,-120(s0)
   11574:	0007c783          	lbu	a5,0(a5)
   11578:	fef407a3          	sb	a5,-17(s0)
   1157c:	fef44783          	lbu	a5,-17(s0)
   11580:	0ff7f793          	andi	a5,a5,255
   11584:	d0079ce3          	bnez	a5,1129c <mini_vsnprintf+0x34>
   11588:	a031                	j	11594 <mini_vsnprintf+0x32c>
   1158a:	0001                	nop
   1158c:	a021                	j	11594 <mini_vsnprintf+0x32c>
   1158e:	0001                	nop
   11590:	a011                	j	11594 <mini_vsnprintf+0x32c>
   11592:	0001                	nop
   11594:	fc843703          	ld	a4,-56(s0)
   11598:	fc043783          	ld	a5,-64(s0)
   1159c:	40f707b3          	sub	a5,a4,a5
   115a0:	2781                	sext.w	a5,a5
   115a2:	853e                	mv	a0,a5
   115a4:	70e6                	ld	ra,120(sp)
   115a6:	7446                	ld	s0,112(sp)
   115a8:	6109                	addi	sp,sp,128
   115aa:	8082                	ret

00000000000115ac <vprintf>:
   115ac:	7169                	addi	sp,sp,-304
   115ae:	f606                	sd	ra,296(sp)
   115b0:	f222                	sd	s0,288(sp)
   115b2:	1a00                	addi	s0,sp,304
   115b4:	eca43c23          	sd	a0,-296(s0)
   115b8:	ecb43823          	sd	a1,-304(s0)
   115bc:	ed043783          	ld	a5,-304(s0)
   115c0:	eef43023          	sd	a5,-288(s0)
   115c4:	ee043703          	ld	a4,-288(s0)
   115c8:	ee840793          	addi	a5,s0,-280
   115cc:	86ba                	mv	a3,a4
   115ce:	ed843603          	ld	a2,-296(s0)
   115d2:	10000593          	li	a1,256
   115d6:	853e                	mv	a0,a5
   115d8:	c91ff0ef          	jal	ra,11268 <mini_vsnprintf>
   115dc:	87aa                	mv	a5,a0
   115de:	fef42623          	sw	a5,-20(s0)
   115e2:	fec42783          	lw	a5,-20(s0)
   115e6:	ff040713          	addi	a4,s0,-16
   115ea:	97ba                	add	a5,a5,a4
   115ec:	ee078c23          	sb	zero,-264(a5)
   115f0:	ee840793          	addi	a5,s0,-280
   115f4:	853e                	mv	a0,a5
   115f6:	165000ef          	jal	ra,11f5a <sys_write>
   115fa:	fec42783          	lw	a5,-20(s0)
   115fe:	853e                	mv	a0,a5
   11600:	70b2                	ld	ra,296(sp)
   11602:	7412                	ld	s0,288(sp)
   11604:	6155                	addi	sp,sp,304
   11606:	8082                	ret

0000000000011608 <printf>:
   11608:	7159                	addi	sp,sp,-112
   1160a:	f406                	sd	ra,40(sp)
   1160c:	f022                	sd	s0,32(sp)
   1160e:	1800                	addi	s0,sp,48
   11610:	fca43c23          	sd	a0,-40(s0)
   11614:	e40c                	sd	a1,8(s0)
   11616:	e810                	sd	a2,16(s0)
   11618:	ec14                	sd	a3,24(s0)
   1161a:	f018                	sd	a4,32(s0)
   1161c:	f41c                	sd	a5,40(s0)
   1161e:	03043823          	sd	a6,48(s0)
   11622:	03143c23          	sd	a7,56(s0)
   11626:	fe042623          	sw	zero,-20(s0)
   1162a:	04040793          	addi	a5,s0,64
   1162e:	fcf43823          	sd	a5,-48(s0)
   11632:	fd043783          	ld	a5,-48(s0)
   11636:	fc878793          	addi	a5,a5,-56
   1163a:	fef43023          	sd	a5,-32(s0)
   1163e:	fe043783          	ld	a5,-32(s0)
   11642:	85be                	mv	a1,a5
   11644:	fd843503          	ld	a0,-40(s0)
   11648:	f65ff0ef          	jal	ra,115ac <vprintf>
   1164c:	87aa                	mv	a5,a0
   1164e:	fef42623          	sw	a5,-20(s0)
   11652:	fec42783          	lw	a5,-20(s0)
   11656:	853e                	mv	a0,a5
   11658:	70a2                	ld	ra,40(sp)
   1165a:	7402                	ld	s0,32(sp)
   1165c:	6165                	addi	sp,sp,112
   1165e:	8082                	ret

0000000000011660 <puts>:
   11660:	1101                	addi	sp,sp,-32
   11662:	ec06                	sd	ra,24(sp)
   11664:	e822                	sd	s0,16(sp)
   11666:	1000                	addi	s0,sp,32
   11668:	fea43423          	sd	a0,-24(s0)
   1166c:	fe843583          	ld	a1,-24(s0)
   11670:	00001517          	auipc	a0,0x1
   11674:	6f050513          	addi	a0,a0,1776 # 12d60 <clear_bss_done+0x732>
   11678:	f91ff0ef          	jal	ra,11608 <printf>
   1167c:	87aa                	mv	a5,a0
   1167e:	853e                	mv	a0,a5
   11680:	60e2                	ld	ra,24(sp)
   11682:	6442                	ld	s0,16(sp)
   11684:	6105                	addi	sp,sp,32
   11686:	8082                	ret

0000000000011688 <putchar>:
   11688:	1101                	addi	sp,sp,-32
   1168a:	ec06                	sd	ra,24(sp)
   1168c:	e822                	sd	s0,16(sp)
   1168e:	1000                	addi	s0,sp,32
   11690:	87aa                	mv	a5,a0
   11692:	fef42623          	sw	a5,-20(s0)
   11696:	fec42783          	lw	a5,-20(s0)
   1169a:	85be                	mv	a1,a5
   1169c:	00001517          	auipc	a0,0x1
   116a0:	6cc50513          	addi	a0,a0,1740 # 12d68 <clear_bss_done+0x73a>
   116a4:	f65ff0ef          	jal	ra,11608 <printf>
   116a8:	87aa                	mv	a5,a0
   116aa:	853e                	mv	a0,a5
   116ac:	60e2                	ld	ra,24(sp)
   116ae:	6442                	ld	s0,16(sp)
   116b0:	6105                	addi	sp,sp,32
   116b2:	8082                	ret

00000000000116b4 <isspace>:
   116b4:	1101                	addi	sp,sp,-32
   116b6:	ec22                	sd	s0,24(sp)
   116b8:	1000                	addi	s0,sp,32
   116ba:	87aa                	mv	a5,a0
   116bc:	fef42623          	sw	a5,-20(s0)
   116c0:	fec42783          	lw	a5,-20(s0)
   116c4:	0007871b          	sext.w	a4,a5
   116c8:	02000793          	li	a5,32
   116cc:	04f70563          	beq	a4,a5,11716 <isspace+0x62>
   116d0:	fec42783          	lw	a5,-20(s0)
   116d4:	0007871b          	sext.w	a4,a5
   116d8:	47a5                	li	a5,9
   116da:	02f70e63          	beq	a4,a5,11716 <isspace+0x62>
   116de:	fec42783          	lw	a5,-20(s0)
   116e2:	0007871b          	sext.w	a4,a5
   116e6:	47a9                	li	a5,10
   116e8:	02f70763          	beq	a4,a5,11716 <isspace+0x62>
   116ec:	fec42783          	lw	a5,-20(s0)
   116f0:	0007871b          	sext.w	a4,a5
   116f4:	47b1                	li	a5,12
   116f6:	02f70063          	beq	a4,a5,11716 <isspace+0x62>
   116fa:	fec42783          	lw	a5,-20(s0)
   116fe:	0007871b          	sext.w	a4,a5
   11702:	47a1                	li	a5,8
   11704:	00f70963          	beq	a4,a5,11716 <isspace+0x62>
   11708:	fec42783          	lw	a5,-20(s0)
   1170c:	0007871b          	sext.w	a4,a5
   11710:	47b5                	li	a5,13
   11712:	00f71463          	bne	a4,a5,1171a <isspace+0x66>
   11716:	4785                	li	a5,1
   11718:	a011                	j	1171c <isspace+0x68>
   1171a:	4781                	li	a5,0
   1171c:	853e                	mv	a0,a5
   1171e:	6462                	ld	s0,24(sp)
   11720:	6105                	addi	sp,sp,32
   11722:	8082                	ret

0000000000011724 <isdigit>:
   11724:	1101                	addi	sp,sp,-32
   11726:	ec22                	sd	s0,24(sp)
   11728:	1000                	addi	s0,sp,32
   1172a:	87aa                	mv	a5,a0
   1172c:	fef42623          	sw	a5,-20(s0)
   11730:	fec42783          	lw	a5,-20(s0)
   11734:	0007871b          	sext.w	a4,a5
   11738:	03900793          	li	a5,57
   1173c:	00e7cc63          	blt	a5,a4,11754 <isdigit+0x30>
   11740:	fec42783          	lw	a5,-20(s0)
   11744:	0007871b          	sext.w	a4,a5
   11748:	02f00793          	li	a5,47
   1174c:	00e7d463          	bge	a5,a4,11754 <isdigit+0x30>
   11750:	4785                	li	a5,1
   11752:	a011                	j	11756 <isdigit+0x32>
   11754:	4781                	li	a5,0
   11756:	853e                	mv	a0,a5
   11758:	6462                	ld	s0,24(sp)
   1175a:	6105                	addi	sp,sp,32
   1175c:	8082                	ret

000000000001175e <isalpha>:
   1175e:	1101                	addi	sp,sp,-32
   11760:	ec22                	sd	s0,24(sp)
   11762:	1000                	addi	s0,sp,32
   11764:	87aa                	mv	a5,a0
   11766:	fef42623          	sw	a5,-20(s0)
   1176a:	fec42783          	lw	a5,-20(s0)
   1176e:	0007871b          	sext.w	a4,a5
   11772:	06600793          	li	a5,102
   11776:	00e7ca63          	blt	a5,a4,1178a <isalpha+0x2c>
   1177a:	fec42783          	lw	a5,-20(s0)
   1177e:	0007871b          	sext.w	a4,a5
   11782:	06000793          	li	a5,96
   11786:	02e7c263          	blt	a5,a4,117aa <isalpha+0x4c>
   1178a:	fec42783          	lw	a5,-20(s0)
   1178e:	0007871b          	sext.w	a4,a5
   11792:	04600793          	li	a5,70
   11796:	00e7cc63          	blt	a5,a4,117ae <isalpha+0x50>
   1179a:	fec42783          	lw	a5,-20(s0)
   1179e:	0007871b          	sext.w	a4,a5
   117a2:	04000793          	li	a5,64
   117a6:	00e7d463          	bge	a5,a4,117ae <isalpha+0x50>
   117aa:	4785                	li	a5,1
   117ac:	a011                	j	117b0 <isalpha+0x52>
   117ae:	4781                	li	a5,0
   117b0:	853e                	mv	a0,a5
   117b2:	6462                	ld	s0,24(sp)
   117b4:	6105                	addi	sp,sp,32
   117b6:	8082                	ret

00000000000117b8 <isupper>:
   117b8:	1101                	addi	sp,sp,-32
   117ba:	ec22                	sd	s0,24(sp)
   117bc:	1000                	addi	s0,sp,32
   117be:	87aa                	mv	a5,a0
   117c0:	fef42623          	sw	a5,-20(s0)
   117c4:	fec42783          	lw	a5,-20(s0)
   117c8:	0007871b          	sext.w	a4,a5
   117cc:	04000793          	li	a5,64
   117d0:	00e7dc63          	bge	a5,a4,117e8 <isupper+0x30>
   117d4:	fec42783          	lw	a5,-20(s0)
   117d8:	0007871b          	sext.w	a4,a5
   117dc:	05a00793          	li	a5,90
   117e0:	00e7c463          	blt	a5,a4,117e8 <isupper+0x30>
   117e4:	4785                	li	a5,1
   117e6:	a011                	j	117ea <isupper+0x32>
   117e8:	4781                	li	a5,0
   117ea:	853e                	mv	a0,a5
   117ec:	6462                	ld	s0,24(sp)
   117ee:	6105                	addi	sp,sp,32
   117f0:	8082                	ret

00000000000117f2 <strlen>:
   117f2:	7179                	addi	sp,sp,-48
   117f4:	f422                	sd	s0,40(sp)
   117f6:	1800                	addi	s0,sp,48
   117f8:	fca43c23          	sd	a0,-40(s0)
   117fc:	fe042623          	sw	zero,-20(s0)
   11800:	a031                	j	1180c <strlen+0x1a>
   11802:	fec42783          	lw	a5,-20(s0)
   11806:	2785                	addiw	a5,a5,1
   11808:	fef42623          	sw	a5,-20(s0)
   1180c:	fec42783          	lw	a5,-20(s0)
   11810:	fd843703          	ld	a4,-40(s0)
   11814:	97ba                	add	a5,a5,a4
   11816:	0007c783          	lbu	a5,0(a5)
   1181a:	f7e5                	bnez	a5,11802 <strlen+0x10>
   1181c:	fec42783          	lw	a5,-20(s0)
   11820:	853e                	mv	a0,a5
   11822:	7422                	ld	s0,40(sp)
   11824:	6145                	addi	sp,sp,48
   11826:	8082                	ret

0000000000011828 <memcpy>:
   11828:	7179                	addi	sp,sp,-48
   1182a:	f422                	sd	s0,40(sp)
   1182c:	1800                	addi	s0,sp,48
   1182e:	fea43423          	sd	a0,-24(s0)
   11832:	feb43023          	sd	a1,-32(s0)
   11836:	87b2                	mv	a5,a2
   11838:	fcf42e23          	sw	a5,-36(s0)
   1183c:	a035                	j	11868 <memcpy+0x40>
   1183e:	fe043703          	ld	a4,-32(s0)
   11842:	00170793          	addi	a5,a4,1
   11846:	fef43023          	sd	a5,-32(s0)
   1184a:	fe843783          	ld	a5,-24(s0)
   1184e:	00178693          	addi	a3,a5,1
   11852:	fed43423          	sd	a3,-24(s0)
   11856:	00074703          	lbu	a4,0(a4)
   1185a:	00e78023          	sb	a4,0(a5)
   1185e:	fdc42783          	lw	a5,-36(s0)
   11862:	37fd                	addiw	a5,a5,-1
   11864:	fcf42e23          	sw	a5,-36(s0)
   11868:	fdc42783          	lw	a5,-36(s0)
   1186c:	2781                	sext.w	a5,a5
   1186e:	fbe1                	bnez	a5,1183e <memcpy+0x16>
   11870:	fe843783          	ld	a5,-24(s0)
   11874:	853e                	mv	a0,a5
   11876:	7422                	ld	s0,40(sp)
   11878:	6145                	addi	sp,sp,48
   1187a:	8082                	ret

000000000001187c <memset>:
   1187c:	7139                	addi	sp,sp,-64
   1187e:	fc22                	sd	s0,56(sp)
   11880:	0080                	addi	s0,sp,64
   11882:	fca43c23          	sd	a0,-40(s0)
   11886:	87ae                	mv	a5,a1
   11888:	fcc43423          	sd	a2,-56(s0)
   1188c:	fcf40ba3          	sb	a5,-41(s0)
   11890:	fd843783          	ld	a5,-40(s0)
   11894:	fef43423          	sd	a5,-24(s0)
   11898:	a005                	j	118b8 <memset+0x3c>
   1189a:	fe843783          	ld	a5,-24(s0)
   1189e:	00178713          	addi	a4,a5,1
   118a2:	fee43423          	sd	a4,-24(s0)
   118a6:	fd744703          	lbu	a4,-41(s0)
   118aa:	00e78023          	sb	a4,0(a5)
   118ae:	fc843783          	ld	a5,-56(s0)
   118b2:	17fd                	addi	a5,a5,-1
   118b4:	fcf43423          	sd	a5,-56(s0)
   118b8:	fc843783          	ld	a5,-56(s0)
   118bc:	fff9                	bnez	a5,1189a <memset+0x1e>
   118be:	fd843783          	ld	a5,-40(s0)
   118c2:	853e                	mv	a0,a5
   118c4:	7462                	ld	s0,56(sp)
   118c6:	6121                	addi	sp,sp,64
   118c8:	8082                	ret

00000000000118ca <bzero>:
   118ca:	1101                	addi	sp,sp,-32
   118cc:	ec06                	sd	ra,24(sp)
   118ce:	e822                	sd	s0,16(sp)
   118d0:	1000                	addi	s0,sp,32
   118d2:	fea43423          	sd	a0,-24(s0)
   118d6:	87ae                	mv	a5,a1
   118d8:	fef42223          	sw	a5,-28(s0)
   118dc:	fe446783          	lwu	a5,-28(s0)
   118e0:	863e                	mv	a2,a5
   118e2:	4581                	li	a1,0
   118e4:	fe843503          	ld	a0,-24(s0)
   118e8:	f95ff0ef          	jal	ra,1187c <memset>
   118ec:	0001                	nop
   118ee:	60e2                	ld	ra,24(sp)
   118f0:	6442                	ld	s0,16(sp)
   118f2:	6105                	addi	sp,sp,32
   118f4:	8082                	ret

00000000000118f6 <strcmp>:
   118f6:	1101                	addi	sp,sp,-32
   118f8:	ec22                	sd	s0,24(sp)
   118fa:	1000                	addi	s0,sp,32
   118fc:	fea43423          	sd	a0,-24(s0)
   11900:	feb43023          	sd	a1,-32(s0)
   11904:	a0a1                	j	1194c <strcmp+0x56>
   11906:	fe843783          	ld	a5,-24(s0)
   1190a:	0007c703          	lbu	a4,0(a5)
   1190e:	fe043783          	ld	a5,-32(s0)
   11912:	0007c783          	lbu	a5,0(a5)
   11916:	02f70163          	beq	a4,a5,11938 <strcmp+0x42>
   1191a:	fe843783          	ld	a5,-24(s0)
   1191e:	0007c783          	lbu	a5,0(a5)
   11922:	0007871b          	sext.w	a4,a5
   11926:	fe043783          	ld	a5,-32(s0)
   1192a:	0007c783          	lbu	a5,0(a5)
   1192e:	2781                	sext.w	a5,a5
   11930:	40f707bb          	subw	a5,a4,a5
   11934:	2781                	sext.w	a5,a5
   11936:	a099                	j	1197c <strcmp+0x86>
   11938:	fe843783          	ld	a5,-24(s0)
   1193c:	0785                	addi	a5,a5,1
   1193e:	fef43423          	sd	a5,-24(s0)
   11942:	fe043783          	ld	a5,-32(s0)
   11946:	0785                	addi	a5,a5,1
   11948:	fef43023          	sd	a5,-32(s0)
   1194c:	fe843783          	ld	a5,-24(s0)
   11950:	0007c783          	lbu	a5,0(a5)
   11954:	c791                	beqz	a5,11960 <strcmp+0x6a>
   11956:	fe043783          	ld	a5,-32(s0)
   1195a:	0007c783          	lbu	a5,0(a5)
   1195e:	f7c5                	bnez	a5,11906 <strcmp+0x10>
   11960:	fe843783          	ld	a5,-24(s0)
   11964:	0007c783          	lbu	a5,0(a5)
   11968:	0007871b          	sext.w	a4,a5
   1196c:	fe043783          	ld	a5,-32(s0)
   11970:	0007c783          	lbu	a5,0(a5)
   11974:	2781                	sext.w	a5,a5
   11976:	40f707bb          	subw	a5,a4,a5
   1197a:	2781                	sext.w	a5,a5
   1197c:	853e                	mv	a0,a5
   1197e:	6462                	ld	s0,24(sp)
   11980:	6105                	addi	sp,sp,32
   11982:	8082                	ret

0000000000011984 <strcpy>:
   11984:	7179                	addi	sp,sp,-48
   11986:	f422                	sd	s0,40(sp)
   11988:	1800                	addi	s0,sp,48
   1198a:	fca43c23          	sd	a0,-40(s0)
   1198e:	fcb43823          	sd	a1,-48(s0)
   11992:	fd843783          	ld	a5,-40(s0)
   11996:	fef43423          	sd	a5,-24(s0)
   1199a:	a00d                	j	119bc <strcpy+0x38>
   1199c:	fd043703          	ld	a4,-48(s0)
   119a0:	00170793          	addi	a5,a4,1
   119a4:	fcf43823          	sd	a5,-48(s0)
   119a8:	fd843783          	ld	a5,-40(s0)
   119ac:	00178693          	addi	a3,a5,1
   119b0:	fcd43c23          	sd	a3,-40(s0)
   119b4:	00074703          	lbu	a4,0(a4)
   119b8:	00e78023          	sb	a4,0(a5)
   119bc:	fd043783          	ld	a5,-48(s0)
   119c0:	0007c783          	lbu	a5,0(a5)
   119c4:	ffe1                	bnez	a5,1199c <strcpy+0x18>
   119c6:	fd843783          	ld	a5,-40(s0)
   119ca:	00078023          	sb	zero,0(a5)
   119ce:	fe843783          	ld	a5,-24(s0)
   119d2:	853e                	mv	a0,a5
   119d4:	7422                	ld	s0,40(sp)
   119d6:	6145                	addi	sp,sp,48
   119d8:	8082                	ret

00000000000119da <strcat>:
   119da:	7179                	addi	sp,sp,-48
   119dc:	f422                	sd	s0,40(sp)
   119de:	1800                	addi	s0,sp,48
   119e0:	fca43c23          	sd	a0,-40(s0)
   119e4:	fcb43823          	sd	a1,-48(s0)
   119e8:	fd843783          	ld	a5,-40(s0)
   119ec:	fef43423          	sd	a5,-24(s0)
   119f0:	a031                	j	119fc <strcat+0x22>
   119f2:	fd843783          	ld	a5,-40(s0)
   119f6:	0785                	addi	a5,a5,1
   119f8:	fcf43c23          	sd	a5,-40(s0)
   119fc:	fd843783          	ld	a5,-40(s0)
   11a00:	0007c783          	lbu	a5,0(a5)
   11a04:	f7fd                	bnez	a5,119f2 <strcat+0x18>
   11a06:	a00d                	j	11a28 <strcat+0x4e>
   11a08:	fd043703          	ld	a4,-48(s0)
   11a0c:	00170793          	addi	a5,a4,1
   11a10:	fcf43823          	sd	a5,-48(s0)
   11a14:	fd843783          	ld	a5,-40(s0)
   11a18:	00178693          	addi	a3,a5,1
   11a1c:	fcd43c23          	sd	a3,-40(s0)
   11a20:	00074703          	lbu	a4,0(a4)
   11a24:	00e78023          	sb	a4,0(a5)
   11a28:	fd043783          	ld	a5,-48(s0)
   11a2c:	0007c783          	lbu	a5,0(a5)
   11a30:	ffe1                	bnez	a5,11a08 <strcat+0x2e>
   11a32:	fd843783          	ld	a5,-40(s0)
   11a36:	00078023          	sb	zero,0(a5)
   11a3a:	fe843783          	ld	a5,-24(s0)
   11a3e:	853e                	mv	a0,a5
   11a40:	7422                	ld	s0,40(sp)
   11a42:	6145                	addi	sp,sp,48
   11a44:	8082                	ret

0000000000011a46 <strtok>:
   11a46:	7139                	addi	sp,sp,-64
   11a48:	fc06                	sd	ra,56(sp)
   11a4a:	f822                	sd	s0,48(sp)
   11a4c:	0080                	addi	s0,sp,64
   11a4e:	fca43c23          	sd	a0,-40(s0)
   11a52:	fcb43823          	sd	a1,-48(s0)
   11a56:	87b2                	mv	a5,a2
   11a58:	8736                	mv	a4,a3
   11a5a:	fcf407a3          	sb	a5,-49(s0)
   11a5e:	87ba                	mv	a5,a4
   11a60:	fcf42423          	sw	a5,-56(s0)
   11a64:	fd043503          	ld	a0,-48(s0)
   11a68:	d8bff0ef          	jal	ra,117f2 <strlen>
   11a6c:	87aa                	mv	a5,a0
   11a6e:	fef42423          	sw	a5,-24(s0)
   11a72:	fe842783          	lw	a5,-24(s0)
   11a76:	2781                	sext.w	a5,a5
   11a78:	e399                	bnez	a5,11a7e <strtok+0x38>
   11a7a:	4781                	li	a5,0
   11a7c:	a849                	j	11b0e <strtok+0xc8>
   11a7e:	fe042623          	sw	zero,-20(s0)
   11a82:	a885                	j	11af2 <strtok+0xac>
   11a84:	fec42783          	lw	a5,-20(s0)
   11a88:	fd043703          	ld	a4,-48(s0)
   11a8c:	97ba                	add	a5,a5,a4
   11a8e:	0007c703          	lbu	a4,0(a5)
   11a92:	fcf44783          	lbu	a5,-49(s0)
   11a96:	0ff7f793          	andi	a5,a5,255
   11a9a:	02e78963          	beq	a5,a4,11acc <strtok+0x86>
   11a9e:	fec42703          	lw	a4,-20(s0)
   11aa2:	fc842783          	lw	a5,-56(s0)
   11aa6:	2701                	sext.w	a4,a4
   11aa8:	2781                	sext.w	a5,a5
   11aaa:	02f75f63          	bge	a4,a5,11ae8 <strtok+0xa2>
   11aae:	fec42783          	lw	a5,-20(s0)
   11ab2:	fd043703          	ld	a4,-48(s0)
   11ab6:	973e                	add	a4,a4,a5
   11ab8:	fec42783          	lw	a5,-20(s0)
   11abc:	fd843683          	ld	a3,-40(s0)
   11ac0:	97b6                	add	a5,a5,a3
   11ac2:	00074703          	lbu	a4,0(a4)
   11ac6:	00e78023          	sb	a4,0(a5)
   11aca:	a839                	j	11ae8 <strtok+0xa2>
   11acc:	fec42783          	lw	a5,-20(s0)
   11ad0:	fd843703          	ld	a4,-40(s0)
   11ad4:	97ba                	add	a5,a5,a4
   11ad6:	00078023          	sb	zero,0(a5)
   11ada:	fec42783          	lw	a5,-20(s0)
   11ade:	0785                	addi	a5,a5,1
   11ae0:	fd043703          	ld	a4,-48(s0)
   11ae4:	97ba                	add	a5,a5,a4
   11ae6:	a025                	j	11b0e <strtok+0xc8>
   11ae8:	fec42783          	lw	a5,-20(s0)
   11aec:	2785                	addiw	a5,a5,1
   11aee:	fef42623          	sw	a5,-20(s0)
   11af2:	fec42703          	lw	a4,-20(s0)
   11af6:	fe842783          	lw	a5,-24(s0)
   11afa:	2701                	sext.w	a4,a4
   11afc:	2781                	sext.w	a5,a5
   11afe:	f8f743e3          	blt	a4,a5,11a84 <strtok+0x3e>
   11b02:	fec42783          	lw	a5,-20(s0)
   11b06:	0785                	addi	a5,a5,1
   11b08:	fd043703          	ld	a4,-48(s0)
   11b0c:	97ba                	add	a5,a5,a4
   11b0e:	853e                	mv	a0,a5
   11b10:	70e2                	ld	ra,56(sp)
   11b12:	7442                	ld	s0,48(sp)
   11b14:	6121                	addi	sp,sp,64
   11b16:	8082                	ret

0000000000011b18 <strtol>:
   11b18:	711d                	addi	sp,sp,-96
   11b1a:	ec86                	sd	ra,88(sp)
   11b1c:	e8a2                	sd	s0,80(sp)
   11b1e:	e4a6                	sd	s1,72(sp)
   11b20:	e0ca                	sd	s2,64(sp)
   11b22:	fc4e                	sd	s3,56(sp)
   11b24:	f852                	sd	s4,48(sp)
   11b26:	f456                	sd	s5,40(sp)
   11b28:	f05a                	sd	s6,32(sp)
   11b2a:	ec5e                	sd	s7,24(sp)
   11b2c:	e862                	sd	s8,16(sp)
   11b2e:	1080                	addi	s0,sp,96
   11b30:	faa43423          	sd	a0,-88(s0)
   11b34:	fab43023          	sd	a1,-96(s0)
   11b38:	8a32                	mv	s4,a2
   11b3a:	fa843903          	ld	s2,-88(s0)
   11b3e:	4b01                	li	s6,0
   11b40:	87ca                	mv	a5,s2
   11b42:	00178913          	addi	s2,a5,1
   11b46:	0007c783          	lbu	a5,0(a5)
   11b4a:	0007849b          	sext.w	s1,a5
   11b4e:	8526                	mv	a0,s1
   11b50:	b65ff0ef          	jal	ra,116b4 <isspace>
   11b54:	87aa                	mv	a5,a0
   11b56:	f7ed                	bnez	a5,11b40 <strtol+0x28>
   11b58:	8726                	mv	a4,s1
   11b5a:	02d00793          	li	a5,45
   11b5e:	00f71b63          	bne	a4,a5,11b74 <strtol+0x5c>
   11b62:	4b05                	li	s6,1
   11b64:	87ca                	mv	a5,s2
   11b66:	00178913          	addi	s2,a5,1
   11b6a:	0007c783          	lbu	a5,0(a5)
   11b6e:	0007849b          	sext.w	s1,a5
   11b72:	a829                	j	11b8c <strtol+0x74>
   11b74:	8726                	mv	a4,s1
   11b76:	02b00793          	li	a5,43
   11b7a:	00f71963          	bne	a4,a5,11b8c <strtol+0x74>
   11b7e:	87ca                	mv	a5,s2
   11b80:	00178913          	addi	s2,a5,1
   11b84:	0007c783          	lbu	a5,0(a5)
   11b88:	0007849b          	sext.w	s1,a5
   11b8c:	000a0663          	beqz	s4,11b98 <strtol+0x80>
   11b90:	8752                	mv	a4,s4
   11b92:	47c1                	li	a5,16
   11b94:	02f71d63          	bne	a4,a5,11bce <strtol+0xb6>
   11b98:	8726                	mv	a4,s1
   11b9a:	03000793          	li	a5,48
   11b9e:	02f71863          	bne	a4,a5,11bce <strtol+0xb6>
   11ba2:	00094783          	lbu	a5,0(s2)
   11ba6:	873e                	mv	a4,a5
   11ba8:	07800793          	li	a5,120
   11bac:	00f70963          	beq	a4,a5,11bbe <strtol+0xa6>
   11bb0:	00094783          	lbu	a5,0(s2)
   11bb4:	873e                	mv	a4,a5
   11bb6:	05800793          	li	a5,88
   11bba:	00f71a63          	bne	a4,a5,11bce <strtol+0xb6>
   11bbe:	00190793          	addi	a5,s2,1
   11bc2:	0007c783          	lbu	a5,0(a5)
   11bc6:	0007849b          	sext.w	s1,a5
   11bca:	0909                	addi	s2,s2,2
   11bcc:	4a41                	li	s4,16
   11bce:	000a1b63          	bnez	s4,11be4 <strtol+0xcc>
   11bd2:	8726                	mv	a4,s1
   11bd4:	03000793          	li	a5,48
   11bd8:	00f71463          	bne	a4,a5,11be0 <strtol+0xc8>
   11bdc:	47a1                	li	a5,8
   11bde:	a011                	j	11be2 <strtol+0xca>
   11be0:	47a9                	li	a5,10
   11be2:	8a3e                	mv	s4,a5
   11be4:	000b0563          	beqz	s6,11bee <strtol+0xd6>
   11be8:	57fd                	li	a5,-1
   11bea:	17fe                	slli	a5,a5,0x3f
   11bec:	a019                	j	11bf2 <strtol+0xda>
   11bee:	57fd                	li	a5,-1
   11bf0:	8385                	srli	a5,a5,0x1
   11bf2:	8abe                	mv	s5,a5
   11bf4:	87d2                	mv	a5,s4
   11bf6:	02faf7b3          	remu	a5,s5,a5
   11bfa:	00078c1b          	sext.w	s8,a5
   11bfe:	87d2                	mv	a5,s4
   11c00:	02fadab3          	divu	s5,s5,a5
   11c04:	4981                	li	s3,0
   11c06:	4b81                	li	s7,0
   11c08:	8526                	mv	a0,s1
   11c0a:	b1bff0ef          	jal	ra,11724 <isdigit>
   11c0e:	87aa                	mv	a5,a0
   11c10:	c791                	beqz	a5,11c1c <strtol+0x104>
   11c12:	fd04879b          	addiw	a5,s1,-48
   11c16:	0007849b          	sext.w	s1,a5
   11c1a:	a025                	j	11c42 <strtol+0x12a>
   11c1c:	8526                	mv	a0,s1
   11c1e:	b41ff0ef          	jal	ra,1175e <isalpha>
   11c22:	87aa                	mv	a5,a0
   11c24:	cfb1                	beqz	a5,11c80 <strtol+0x168>
   11c26:	8526                	mv	a0,s1
   11c28:	b91ff0ef          	jal	ra,117b8 <isupper>
   11c2c:	87aa                	mv	a5,a0
   11c2e:	c781                	beqz	a5,11c36 <strtol+0x11e>
   11c30:	03700793          	li	a5,55
   11c34:	a019                	j	11c3a <strtol+0x122>
   11c36:	05700793          	li	a5,87
   11c3a:	40f487bb          	subw	a5,s1,a5
   11c3e:	0007849b          	sext.w	s1,a5
   11c42:	8726                	mv	a4,s1
   11c44:	87d2                	mv	a5,s4
   11c46:	02f75f63          	bge	a4,a5,11c84 <strtol+0x16c>
   11c4a:	87de                	mv	a5,s7
   11c4c:	0007ca63          	bltz	a5,11c60 <strtol+0x148>
   11c50:	013ae863          	bltu	s5,s3,11c60 <strtol+0x148>
   11c54:	01599863          	bne	s3,s5,11c64 <strtol+0x14c>
   11c58:	8726                	mv	a4,s1
   11c5a:	87e2                	mv	a5,s8
   11c5c:	00e7d463          	bge	a5,a4,11c64 <strtol+0x14c>
   11c60:	5bfd                	li	s7,-1
   11c62:	a039                	j	11c70 <strtol+0x158>
   11c64:	4b85                	li	s7,1
   11c66:	87d2                	mv	a5,s4
   11c68:	02f989b3          	mul	s3,s3,a5
   11c6c:	87a6                	mv	a5,s1
   11c6e:	99be                	add	s3,s3,a5
   11c70:	87ca                	mv	a5,s2
   11c72:	00178913          	addi	s2,a5,1
   11c76:	0007c783          	lbu	a5,0(a5)
   11c7a:	0007849b          	sext.w	s1,a5
   11c7e:	b769                	j	11c08 <strtol+0xf0>
   11c80:	0001                	nop
   11c82:	a011                	j	11c86 <strtol+0x16e>
   11c84:	0001                	nop
   11c86:	87de                	mv	a5,s7
   11c88:	0007db63          	bgez	a5,11c9e <strtol+0x186>
   11c8c:	000b0563          	beqz	s6,11c96 <strtol+0x17e>
   11c90:	57fd                	li	a5,-1
   11c92:	17fe                	slli	a5,a5,0x3f
   11c94:	a019                	j	11c9a <strtol+0x182>
   11c96:	57fd                	li	a5,-1
   11c98:	8385                	srli	a5,a5,0x1
   11c9a:	89be                	mv	s3,a5
   11c9c:	a029                	j	11ca6 <strtol+0x18e>
   11c9e:	000b0463          	beqz	s6,11ca6 <strtol+0x18e>
   11ca2:	413009b3          	neg	s3,s3
   11ca6:	fa043783          	ld	a5,-96(s0)
   11caa:	cb99                	beqz	a5,11cc0 <strtol+0x1a8>
   11cac:	000b8563          	beqz	s7,11cb6 <strtol+0x19e>
   11cb0:	fff90793          	addi	a5,s2,-1
   11cb4:	a019                	j	11cba <strtol+0x1a2>
   11cb6:	fa843783          	ld	a5,-88(s0)
   11cba:	fa043703          	ld	a4,-96(s0)
   11cbe:	e31c                	sd	a5,0(a4)
   11cc0:	87ce                	mv	a5,s3
   11cc2:	853e                	mv	a0,a5
   11cc4:	60e6                	ld	ra,88(sp)
   11cc6:	6446                	ld	s0,80(sp)
   11cc8:	64a6                	ld	s1,72(sp)
   11cca:	6906                	ld	s2,64(sp)
   11ccc:	79e2                	ld	s3,56(sp)
   11cce:	7a42                	ld	s4,48(sp)
   11cd0:	7aa2                	ld	s5,40(sp)
   11cd2:	7b02                	ld	s6,32(sp)
   11cd4:	6be2                	ld	s7,24(sp)
   11cd6:	6c42                	ld	s8,16(sp)
   11cd8:	6125                	addi	sp,sp,96
   11cda:	8082                	ret

0000000000011cdc <sys_spawn>:
   11cdc:	7179                	addi	sp,sp,-48
   11cde:	f406                	sd	ra,40(sp)
   11ce0:	f022                	sd	s0,32(sp)
   11ce2:	1800                	addi	s0,sp,48
   11ce4:	fea43423          	sd	a0,-24(s0)
   11ce8:	87ae                	mv	a5,a1
   11cea:	fcc43c23          	sd	a2,-40(s0)
   11cee:	8736                	mv	a4,a3
   11cf0:	fef42223          	sw	a5,-28(s0)
   11cf4:	87ba                	mv	a5,a4
   11cf6:	fef42023          	sw	a5,-32(s0)
   11cfa:	fe843583          	ld	a1,-24(s0)
   11cfe:	fe442603          	lw	a2,-28(s0)
   11d02:	fd843683          	ld	a3,-40(s0)
   11d06:	fe046703          	lwu	a4,-32(s0)
   11d0a:	4781                	li	a5,0
   11d0c:	4501                	li	a0,0
   11d0e:	62a000ef          	jal	ra,12338 <invoke_syscall>
   11d12:	87aa                	mv	a5,a0
   11d14:	2781                	sext.w	a5,a5
   11d16:	853e                	mv	a0,a5
   11d18:	70a2                	ld	ra,40(sp)
   11d1a:	7402                	ld	s0,32(sp)
   11d1c:	6145                	addi	sp,sp,48
   11d1e:	8082                	ret

0000000000011d20 <sys_exit>:
   11d20:	1141                	addi	sp,sp,-16
   11d22:	e406                	sd	ra,8(sp)
   11d24:	e022                	sd	s0,0(sp)
   11d26:	0800                	addi	s0,sp,16
   11d28:	4781                	li	a5,0
   11d2a:	4701                	li	a4,0
   11d2c:	4681                	li	a3,0
   11d2e:	4601                	li	a2,0
   11d30:	4581                	li	a1,0
   11d32:	4505                	li	a0,1
   11d34:	604000ef          	jal	ra,12338 <invoke_syscall>
   11d38:	0001                	nop
   11d3a:	60a2                	ld	ra,8(sp)
   11d3c:	6402                	ld	s0,0(sp)
   11d3e:	0141                	addi	sp,sp,16
   11d40:	8082                	ret

0000000000011d42 <sys_kill>:
   11d42:	1101                	addi	sp,sp,-32
   11d44:	ec06                	sd	ra,24(sp)
   11d46:	e822                	sd	s0,16(sp)
   11d48:	1000                	addi	s0,sp,32
   11d4a:	87aa                	mv	a5,a0
   11d4c:	fef42623          	sw	a5,-20(s0)
   11d50:	fec42583          	lw	a1,-20(s0)
   11d54:	4781                	li	a5,0
   11d56:	4701                	li	a4,0
   11d58:	4681                	li	a3,0
   11d5a:	4601                	li	a2,0
   11d5c:	450d                	li	a0,3
   11d5e:	5da000ef          	jal	ra,12338 <invoke_syscall>
   11d62:	87aa                	mv	a5,a0
   11d64:	2781                	sext.w	a5,a5
   11d66:	853e                	mv	a0,a5
   11d68:	60e2                	ld	ra,24(sp)
   11d6a:	6442                	ld	s0,16(sp)
   11d6c:	6105                	addi	sp,sp,32
   11d6e:	8082                	ret

0000000000011d70 <sys_waitpid>:
   11d70:	1101                	addi	sp,sp,-32
   11d72:	ec06                	sd	ra,24(sp)
   11d74:	e822                	sd	s0,16(sp)
   11d76:	1000                	addi	s0,sp,32
   11d78:	87aa                	mv	a5,a0
   11d7a:	fef42623          	sw	a5,-20(s0)
   11d7e:	fec42583          	lw	a1,-20(s0)
   11d82:	4781                	li	a5,0
   11d84:	4701                	li	a4,0
   11d86:	4681                	li	a3,0
   11d88:	4601                	li	a2,0
   11d8a:	4511                	li	a0,4
   11d8c:	5ac000ef          	jal	ra,12338 <invoke_syscall>
   11d90:	87aa                	mv	a5,a0
   11d92:	2781                	sext.w	a5,a5
   11d94:	853e                	mv	a0,a5
   11d96:	60e2                	ld	ra,24(sp)
   11d98:	6442                	ld	s0,16(sp)
   11d9a:	6105                	addi	sp,sp,32
   11d9c:	8082                	ret

0000000000011d9e <sys_process_show>:
   11d9e:	1141                	addi	sp,sp,-16
   11da0:	e406                	sd	ra,8(sp)
   11da2:	e022                	sd	s0,0(sp)
   11da4:	0800                	addi	s0,sp,16
   11da6:	4781                	li	a5,0
   11da8:	4701                	li	a4,0
   11daa:	4681                	li	a3,0
   11dac:	4601                	li	a2,0
   11dae:	4581                	li	a1,0
   11db0:	4515                	li	a0,5
   11db2:	586000ef          	jal	ra,12338 <invoke_syscall>
   11db6:	87aa                	mv	a5,a0
   11db8:	2781                	sext.w	a5,a5
   11dba:	853e                	mv	a0,a5
   11dbc:	60a2                	ld	ra,8(sp)
   11dbe:	6402                	ld	s0,0(sp)
   11dc0:	0141                	addi	sp,sp,16
   11dc2:	8082                	ret

0000000000011dc4 <sys_getpid>:
   11dc4:	1141                	addi	sp,sp,-16
   11dc6:	e406                	sd	ra,8(sp)
   11dc8:	e022                	sd	s0,0(sp)
   11dca:	0800                	addi	s0,sp,16
   11dcc:	4781                	li	a5,0
   11dce:	4701                	li	a4,0
   11dd0:	4681                	li	a3,0
   11dd2:	4601                	li	a2,0
   11dd4:	4581                	li	a1,0
   11dd6:	4519                	li	a0,6
   11dd8:	560000ef          	jal	ra,12338 <invoke_syscall>
   11ddc:	87aa                	mv	a5,a0
   11dde:	2781                	sext.w	a5,a5
   11de0:	853e                	mv	a0,a5
   11de2:	60a2                	ld	ra,8(sp)
   11de4:	6402                	ld	s0,0(sp)
   11de6:	0141                	addi	sp,sp,16
   11de8:	8082                	ret

0000000000011dea <sys_yield>:
   11dea:	1141                	addi	sp,sp,-16
   11dec:	e406                	sd	ra,8(sp)
   11dee:	e022                	sd	s0,0(sp)
   11df0:	0800                	addi	s0,sp,16
   11df2:	4781                	li	a5,0
   11df4:	4701                	li	a4,0
   11df6:	4681                	li	a3,0
   11df8:	4601                	li	a2,0
   11dfa:	4581                	li	a1,0
   11dfc:	451d                	li	a0,7
   11dfe:	53a000ef          	jal	ra,12338 <invoke_syscall>
   11e02:	0001                	nop
   11e04:	60a2                	ld	ra,8(sp)
   11e06:	6402                	ld	s0,0(sp)
   11e08:	0141                	addi	sp,sp,16
   11e0a:	8082                	ret

0000000000011e0c <sys_setpriority>:
   11e0c:	1101                	addi	sp,sp,-32
   11e0e:	ec06                	sd	ra,24(sp)
   11e10:	e822                	sd	s0,16(sp)
   11e12:	1000                	addi	s0,sp,32
   11e14:	fea43423          	sd	a0,-24(s0)
   11e18:	4781                	li	a5,0
   11e1a:	4701                	li	a4,0
   11e1c:	4681                	li	a3,0
   11e1e:	4601                	li	a2,0
   11e20:	fe843583          	ld	a1,-24(s0)
   11e24:	4525                	li	a0,9
   11e26:	512000ef          	jal	ra,12338 <invoke_syscall>
   11e2a:	0001                	nop
   11e2c:	60e2                	ld	ra,24(sp)
   11e2e:	6442                	ld	s0,16(sp)
   11e30:	6105                	addi	sp,sp,32
   11e32:	8082                	ret

0000000000011e34 <sys_taskset>:
   11e34:	1101                	addi	sp,sp,-32
   11e36:	ec06                	sd	ra,24(sp)
   11e38:	e822                	sd	s0,16(sp)
   11e3a:	1000                	addi	s0,sp,32
   11e3c:	fea43423          	sd	a0,-24(s0)
   11e40:	fe843583          	ld	a1,-24(s0)
   11e44:	4781                	li	a5,0
   11e46:	4701                	li	a4,0
   11e48:	4681                	li	a3,0
   11e4a:	4601                	li	a2,0
   11e4c:	4529                	li	a0,10
   11e4e:	4ea000ef          	jal	ra,12338 <invoke_syscall>
   11e52:	87aa                	mv	a5,a0
   11e54:	2781                	sext.w	a5,a5
   11e56:	853e                	mv	a0,a5
   11e58:	60e2                	ld	ra,24(sp)
   11e5a:	6442                	ld	s0,16(sp)
   11e5c:	6105                	addi	sp,sp,32
   11e5e:	8082                	ret

0000000000011e60 <sys_mthread_create>:
   11e60:	7179                	addi	sp,sp,-48
   11e62:	f406                	sd	ra,40(sp)
   11e64:	f022                	sd	s0,32(sp)
   11e66:	1800                	addi	s0,sp,48
   11e68:	fea43423          	sd	a0,-24(s0)
   11e6c:	feb43023          	sd	a1,-32(s0)
   11e70:	fcc43c23          	sd	a2,-40(s0)
   11e74:	fe843583          	ld	a1,-24(s0)
   11e78:	fe043603          	ld	a2,-32(s0)
   11e7c:	fd843683          	ld	a3,-40(s0)
   11e80:	4781                	li	a5,0
   11e82:	4701                	li	a4,0
   11e84:	452d                	li	a0,11
   11e86:	4b2000ef          	jal	ra,12338 <invoke_syscall>
   11e8a:	87aa                	mv	a5,a0
   11e8c:	2781                	sext.w	a5,a5
   11e8e:	853e                	mv	a0,a5
   11e90:	70a2                	ld	ra,40(sp)
   11e92:	7402                	ld	s0,32(sp)
   11e94:	6145                	addi	sp,sp,48
   11e96:	8082                	ret

0000000000011e98 <sys_lockop>:
   11e98:	1101                	addi	sp,sp,-32
   11e9a:	ec06                	sd	ra,24(sp)
   11e9c:	e822                	sd	s0,16(sp)
   11e9e:	1000                	addi	s0,sp,32
   11ea0:	fea43423          	sd	a0,-24(s0)
   11ea4:	87ae                	mv	a5,a1
   11ea6:	fef42223          	sw	a5,-28(s0)
   11eaa:	fe843583          	ld	a1,-24(s0)
   11eae:	fe442603          	lw	a2,-28(s0)
   11eb2:	4781                	li	a5,0
   11eb4:	4701                	li	a4,0
   11eb6:	4681                	li	a3,0
   11eb8:	4535                	li	a0,13
   11eba:	47e000ef          	jal	ra,12338 <invoke_syscall>
   11ebe:	87aa                	mv	a5,a0
   11ec0:	2781                	sext.w	a5,a5
   11ec2:	853e                	mv	a0,a5
   11ec4:	60e2                	ld	ra,24(sp)
   11ec6:	6442                	ld	s0,16(sp)
   11ec8:	6105                	addi	sp,sp,32
   11eca:	8082                	ret

0000000000011ecc <sys_commop>:
   11ecc:	7179                	addi	sp,sp,-48
   11ece:	f406                	sd	ra,40(sp)
   11ed0:	f022                	sd	s0,32(sp)
   11ed2:	1800                	addi	s0,sp,48
   11ed4:	fea43423          	sd	a0,-24(s0)
   11ed8:	feb43023          	sd	a1,-32(s0)
   11edc:	87b2                	mv	a5,a2
   11ede:	fcf42e23          	sw	a5,-36(s0)
   11ee2:	fe843583          	ld	a1,-24(s0)
   11ee6:	fe043603          	ld	a2,-32(s0)
   11eea:	fdc42683          	lw	a3,-36(s0)
   11eee:	4781                	li	a5,0
   11ef0:	4701                	li	a4,0
   11ef2:	4539                	li	a0,14
   11ef4:	444000ef          	jal	ra,12338 <invoke_syscall>
   11ef8:	87aa                	mv	a5,a0
   11efa:	2781                	sext.w	a5,a5
   11efc:	853e                	mv	a0,a5
   11efe:	70a2                	ld	ra,40(sp)
   11f00:	7402                	ld	s0,32(sp)
   11f02:	6145                	addi	sp,sp,48
   11f04:	8082                	ret

0000000000011f06 <shmpageget>:
   11f06:	1101                	addi	sp,sp,-32
   11f08:	ec06                	sd	ra,24(sp)
   11f0a:	e822                	sd	s0,16(sp)
   11f0c:	1000                	addi	s0,sp,32
   11f0e:	87aa                	mv	a5,a0
   11f10:	fef42623          	sw	a5,-20(s0)
   11f14:	fec42583          	lw	a1,-20(s0)
   11f18:	4781                	li	a5,0
   11f1a:	4701                	li	a4,0
   11f1c:	4681                	li	a3,0
   11f1e:	4601                	li	a2,0
   11f20:	453d                	li	a0,15
   11f22:	416000ef          	jal	ra,12338 <invoke_syscall>
   11f26:	87aa                	mv	a5,a0
   11f28:	853e                	mv	a0,a5
   11f2a:	60e2                	ld	ra,24(sp)
   11f2c:	6442                	ld	s0,16(sp)
   11f2e:	6105                	addi	sp,sp,32
   11f30:	8082                	ret

0000000000011f32 <shmpagedt>:
   11f32:	1101                	addi	sp,sp,-32
   11f34:	ec06                	sd	ra,24(sp)
   11f36:	e822                	sd	s0,16(sp)
   11f38:	1000                	addi	s0,sp,32
   11f3a:	fea43423          	sd	a0,-24(s0)
   11f3e:	fe843583          	ld	a1,-24(s0)
   11f42:	4781                	li	a5,0
   11f44:	4701                	li	a4,0
   11f46:	4681                	li	a3,0
   11f48:	4601                	li	a2,0
   11f4a:	4541                	li	a0,16
   11f4c:	3ec000ef          	jal	ra,12338 <invoke_syscall>
   11f50:	0001                	nop
   11f52:	60e2                	ld	ra,24(sp)
   11f54:	6442                	ld	s0,16(sp)
   11f56:	6105                	addi	sp,sp,32
   11f58:	8082                	ret

0000000000011f5a <sys_write>:
   11f5a:	1101                	addi	sp,sp,-32
   11f5c:	ec06                	sd	ra,24(sp)
   11f5e:	e822                	sd	s0,16(sp)
   11f60:	1000                	addi	s0,sp,32
   11f62:	fea43423          	sd	a0,-24(s0)
   11f66:	fe843583          	ld	a1,-24(s0)
   11f6a:	4781                	li	a5,0
   11f6c:	4701                	li	a4,0
   11f6e:	4681                	li	a3,0
   11f70:	4601                	li	a2,0
   11f72:	4551                	li	a0,20
   11f74:	3c4000ef          	jal	ra,12338 <invoke_syscall>
   11f78:	0001                	nop
   11f7a:	60e2                	ld	ra,24(sp)
   11f7c:	6442                	ld	s0,16(sp)
   11f7e:	6105                	addi	sp,sp,32
   11f80:	8082                	ret

0000000000011f82 <sys_move_cursor>:
   11f82:	1101                	addi	sp,sp,-32
   11f84:	ec06                	sd	ra,24(sp)
   11f86:	e822                	sd	s0,16(sp)
   11f88:	1000                	addi	s0,sp,32
   11f8a:	87aa                	mv	a5,a0
   11f8c:	872e                	mv	a4,a1
   11f8e:	fef42623          	sw	a5,-20(s0)
   11f92:	87ba                	mv	a5,a4
   11f94:	fef42423          	sw	a5,-24(s0)
   11f98:	fec42583          	lw	a1,-20(s0)
   11f9c:	fe842603          	lw	a2,-24(s0)
   11fa0:	4781                	li	a5,0
   11fa2:	4701                	li	a4,0
   11fa4:	4681                	li	a3,0
   11fa6:	455d                	li	a0,23
   11fa8:	390000ef          	jal	ra,12338 <invoke_syscall>
   11fac:	0001                	nop
   11fae:	60e2                	ld	ra,24(sp)
   11fb0:	6442                	ld	s0,16(sp)
   11fb2:	6105                	addi	sp,sp,32
   11fb4:	8082                	ret

0000000000011fb6 <sys_reflush>:
   11fb6:	1141                	addi	sp,sp,-16
   11fb8:	e406                	sd	ra,8(sp)
   11fba:	e022                	sd	s0,0(sp)
   11fbc:	0800                	addi	s0,sp,16
   11fbe:	4781                	li	a5,0
   11fc0:	4701                	li	a4,0
   11fc2:	4681                	li	a3,0
   11fc4:	4601                	li	a2,0
   11fc6:	4581                	li	a1,0
   11fc8:	4561                	li	a0,24
   11fca:	36e000ef          	jal	ra,12338 <invoke_syscall>
   11fce:	0001                	nop
   11fd0:	60a2                	ld	ra,8(sp)
   11fd2:	6402                	ld	s0,0(sp)
   11fd4:	0141                	addi	sp,sp,16
   11fd6:	8082                	ret

0000000000011fd8 <sys_serial_read>:
   11fd8:	1101                	addi	sp,sp,-32
   11fda:	ec06                	sd	ra,24(sp)
   11fdc:	e822                	sd	s0,16(sp)
   11fde:	1000                	addi	s0,sp,32
   11fe0:	4781                	li	a5,0
   11fe2:	4701                	li	a4,0
   11fe4:	4681                	li	a3,0
   11fe6:	4601                	li	a2,0
   11fe8:	4581                	li	a1,0
   11fea:	4565                	li	a0,25
   11fec:	34c000ef          	jal	ra,12338 <invoke_syscall>
   11ff0:	87aa                	mv	a5,a0
   11ff2:	fef407a3          	sb	a5,-17(s0)
   11ff6:	fef44783          	lbu	a5,-17(s0)
   11ffa:	0ff7f793          	andi	a5,a5,255
   11ffe:	d3ed                	beqz	a5,11fe0 <sys_serial_read+0x8>
   12000:	fef40783          	lb	a5,-17(s0)
   12004:	fc07cee3          	bltz	a5,11fe0 <sys_serial_read+0x8>
   12008:	fef44783          	lbu	a5,-17(s0)
   1200c:	853e                	mv	a0,a5
   1200e:	60e2                	ld	ra,24(sp)
   12010:	6442                	ld	s0,16(sp)
   12012:	6105                	addi	sp,sp,32
   12014:	8082                	ret

0000000000012016 <sys_read_ch>:
   12016:	1141                	addi	sp,sp,-16
   12018:	e406                	sd	ra,8(sp)
   1201a:	e022                	sd	s0,0(sp)
   1201c:	0800                	addi	s0,sp,16
   1201e:	4781                	li	a5,0
   12020:	4701                	li	a4,0
   12022:	4681                	li	a3,0
   12024:	4601                	li	a2,0
   12026:	4581                	li	a1,0
   12028:	4565                	li	a0,25
   1202a:	30e000ef          	jal	ra,12338 <invoke_syscall>
   1202e:	87aa                	mv	a5,a0
   12030:	0ff7f793          	andi	a5,a5,255
   12034:	853e                	mv	a0,a5
   12036:	60a2                	ld	ra,8(sp)
   12038:	6402                	ld	s0,0(sp)
   1203a:	0141                	addi	sp,sp,16
   1203c:	8082                	ret

000000000001203e <sys_serial_write>:
   1203e:	1101                	addi	sp,sp,-32
   12040:	ec06                	sd	ra,24(sp)
   12042:	e822                	sd	s0,16(sp)
   12044:	1000                	addi	s0,sp,32
   12046:	87aa                	mv	a5,a0
   12048:	fef407a3          	sb	a5,-17(s0)
   1204c:	fef44583          	lbu	a1,-17(s0)
   12050:	4781                	li	a5,0
   12052:	4701                	li	a4,0
   12054:	4681                	li	a3,0
   12056:	4601                	li	a2,0
   12058:	4569                	li	a0,26
   1205a:	2de000ef          	jal	ra,12338 <invoke_syscall>
   1205e:	0001                	nop
   12060:	60e2                	ld	ra,24(sp)
   12062:	6442                	ld	s0,16(sp)
   12064:	6105                	addi	sp,sp,32
   12066:	8082                	ret

0000000000012068 <sys_screen_clear>:
   12068:	1141                	addi	sp,sp,-16
   1206a:	e406                	sd	ra,8(sp)
   1206c:	e022                	sd	s0,0(sp)
   1206e:	0800                	addi	s0,sp,16
   12070:	4781                	li	a5,0
   12072:	4701                	li	a4,0
   12074:	4681                	li	a3,0
   12076:	4601                	li	a2,0
   12078:	4581                	li	a1,0
   1207a:	4571                	li	a0,28
   1207c:	2bc000ef          	jal	ra,12338 <invoke_syscall>
   12080:	0001                	nop
   12082:	60a2                	ld	ra,8(sp)
   12084:	6402                	ld	s0,0(sp)
   12086:	0141                	addi	sp,sp,16
   12088:	8082                	ret

000000000001208a <sys_get_cursor>:
   1208a:	1101                	addi	sp,sp,-32
   1208c:	ec06                	sd	ra,24(sp)
   1208e:	e822                	sd	s0,16(sp)
   12090:	1000                	addi	s0,sp,32
   12092:	fea43423          	sd	a0,-24(s0)
   12096:	feb43023          	sd	a1,-32(s0)
   1209a:	fe843583          	ld	a1,-24(s0)
   1209e:	fe043603          	ld	a2,-32(s0)
   120a2:	4781                	li	a5,0
   120a4:	4701                	li	a4,0
   120a6:	4681                	li	a3,0
   120a8:	4509                	li	a0,2
   120aa:	28e000ef          	jal	ra,12338 <invoke_syscall>
   120ae:	0001                	nop
   120b0:	60e2                	ld	ra,24(sp)
   120b2:	6442                	ld	s0,16(sp)
   120b4:	6105                	addi	sp,sp,32
   120b6:	8082                	ret

00000000000120b8 <sys_get_timebase>:
   120b8:	1141                	addi	sp,sp,-16
   120ba:	e406                	sd	ra,8(sp)
   120bc:	e022                	sd	s0,0(sp)
   120be:	0800                	addi	s0,sp,16
   120c0:	4781                	li	a5,0
   120c2:	4701                	li	a4,0
   120c4:	4681                	li	a3,0
   120c6:	4601                	li	a2,0
   120c8:	4581                	li	a1,0
   120ca:	4579                	li	a0,30
   120cc:	26c000ef          	jal	ra,12338 <invoke_syscall>
   120d0:	87aa                	mv	a5,a0
   120d2:	853e                	mv	a0,a5
   120d4:	60a2                	ld	ra,8(sp)
   120d6:	6402                	ld	s0,0(sp)
   120d8:	0141                	addi	sp,sp,16
   120da:	8082                	ret

00000000000120dc <sys_get_tick>:
   120dc:	1141                	addi	sp,sp,-16
   120de:	e406                	sd	ra,8(sp)
   120e0:	e022                	sd	s0,0(sp)
   120e2:	0800                	addi	s0,sp,16
   120e4:	4781                	li	a5,0
   120e6:	4701                	li	a4,0
   120e8:	4681                	li	a3,0
   120ea:	4601                	li	a2,0
   120ec:	4581                	li	a1,0
   120ee:	457d                	li	a0,31
   120f0:	248000ef          	jal	ra,12338 <invoke_syscall>
   120f4:	87aa                	mv	a5,a0
   120f6:	853e                	mv	a0,a5
   120f8:	60a2                	ld	ra,8(sp)
   120fa:	6402                	ld	s0,0(sp)
   120fc:	0141                	addi	sp,sp,16
   120fe:	8082                	ret

0000000000012100 <sys_get_wall_time>:
   12100:	1101                	addi	sp,sp,-32
   12102:	ec06                	sd	ra,24(sp)
   12104:	e822                	sd	s0,16(sp)
   12106:	1000                	addi	s0,sp,32
   12108:	fea43423          	sd	a0,-24(s0)
   1210c:	fe843583          	ld	a1,-24(s0)
   12110:	4781                	li	a5,0
   12112:	4701                	li	a4,0
   12114:	4681                	li	a3,0
   12116:	4601                	li	a2,0
   12118:	02000513          	li	a0,32
   1211c:	21c000ef          	jal	ra,12338 <invoke_syscall>
   12120:	87aa                	mv	a5,a0
   12122:	853e                	mv	a0,a5
   12124:	60e2                	ld	ra,24(sp)
   12126:	6442                	ld	s0,16(sp)
   12128:	6105                	addi	sp,sp,32
   1212a:	8082                	ret

000000000001212c <sys_sleep>:
   1212c:	1101                	addi	sp,sp,-32
   1212e:	ec06                	sd	ra,24(sp)
   12130:	e822                	sd	s0,16(sp)
   12132:	1000                	addi	s0,sp,32
   12134:	fea43423          	sd	a0,-24(s0)
   12138:	4781                	li	a5,0
   1213a:	4701                	li	a4,0
   1213c:	4681                	li	a3,0
   1213e:	4601                	li	a2,0
   12140:	fe843583          	ld	a1,-24(s0)
   12144:	4509                	li	a0,2
   12146:	1f2000ef          	jal	ra,12338 <invoke_syscall>
   1214a:	0001                	nop
   1214c:	60e2                	ld	ra,24(sp)
   1214e:	6442                	ld	s0,16(sp)
   12150:	6105                	addi	sp,sp,32
   12152:	8082                	ret

0000000000012154 <sys_fsop>:
   12154:	1101                	addi	sp,sp,-32
   12156:	ec06                	sd	ra,24(sp)
   12158:	e822                	sd	s0,16(sp)
   1215a:	1000                	addi	s0,sp,32
   1215c:	87aa                	mv	a5,a0
   1215e:	fef42623          	sw	a5,-20(s0)
   12162:	fec42583          	lw	a1,-20(s0)
   12166:	4781                	li	a5,0
   12168:	4701                	li	a4,0
   1216a:	4681                	li	a3,0
   1216c:	4601                	li	a2,0
   1216e:	02100513          	li	a0,33
   12172:	1c6000ef          	jal	ra,12338 <invoke_syscall>
   12176:	87aa                	mv	a5,a0
   12178:	2781                	sext.w	a5,a5
   1217a:	853e                	mv	a0,a5
   1217c:	60e2                	ld	ra,24(sp)
   1217e:	6442                	ld	s0,16(sp)
   12180:	6105                	addi	sp,sp,32
   12182:	8082                	ret

0000000000012184 <sys_dirop>:
   12184:	1101                	addi	sp,sp,-32
   12186:	ec06                	sd	ra,24(sp)
   12188:	e822                	sd	s0,16(sp)
   1218a:	1000                	addi	s0,sp,32
   1218c:	87aa                	mv	a5,a0
   1218e:	feb43023          	sd	a1,-32(s0)
   12192:	8732                	mv	a4,a2
   12194:	fef42623          	sw	a5,-20(s0)
   12198:	87ba                	mv	a5,a4
   1219a:	fef42423          	sw	a5,-24(s0)
   1219e:	fec42583          	lw	a1,-20(s0)
   121a2:	fe043603          	ld	a2,-32(s0)
   121a6:	fe842683          	lw	a3,-24(s0)
   121aa:	4781                	li	a5,0
   121ac:	4701                	li	a4,0
   121ae:	02200513          	li	a0,34
   121b2:	186000ef          	jal	ra,12338 <invoke_syscall>
   121b6:	87aa                	mv	a5,a0
   121b8:	2781                	sext.w	a5,a5
   121ba:	853e                	mv	a0,a5
   121bc:	60e2                	ld	ra,24(sp)
   121be:	6442                	ld	s0,16(sp)
   121c0:	6105                	addi	sp,sp,32
   121c2:	8082                	ret

00000000000121c4 <sys_fileop>:
   121c4:	7179                	addi	sp,sp,-48
   121c6:	f406                	sd	ra,40(sp)
   121c8:	f022                	sd	s0,32(sp)
   121ca:	1800                	addi	s0,sp,48
   121cc:	87aa                	mv	a5,a0
   121ce:	feb43023          	sd	a1,-32(s0)
   121d2:	8736                	mv	a4,a3
   121d4:	fef42623          	sw	a5,-20(s0)
   121d8:	87b2                	mv	a5,a2
   121da:	fef42423          	sw	a5,-24(s0)
   121de:	87ba                	mv	a5,a4
   121e0:	fcf42e23          	sw	a5,-36(s0)
   121e4:	fec42583          	lw	a1,-20(s0)
   121e8:	fe043603          	ld	a2,-32(s0)
   121ec:	fe842683          	lw	a3,-24(s0)
   121f0:	fdc42703          	lw	a4,-36(s0)
   121f4:	4781                	li	a5,0
   121f6:	02300513          	li	a0,35
   121fa:	13e000ef          	jal	ra,12338 <invoke_syscall>
   121fe:	87aa                	mv	a5,a0
   12200:	2781                	sext.w	a5,a5
   12202:	853e                	mv	a0,a5
   12204:	70a2                	ld	ra,40(sp)
   12206:	7402                	ld	s0,32(sp)
   12208:	6145                	addi	sp,sp,48
   1220a:	8082                	ret

000000000001220c <sys_linkop>:
   1220c:	7179                	addi	sp,sp,-48
   1220e:	f406                	sd	ra,40(sp)
   12210:	f022                	sd	s0,32(sp)
   12212:	1800                	addi	s0,sp,48
   12214:	87aa                	mv	a5,a0
   12216:	feb43023          	sd	a1,-32(s0)
   1221a:	fcc43c23          	sd	a2,-40(s0)
   1221e:	fef42623          	sw	a5,-20(s0)
   12222:	fec42583          	lw	a1,-20(s0)
   12226:	fe043603          	ld	a2,-32(s0)
   1222a:	fd843683          	ld	a3,-40(s0)
   1222e:	4781                	li	a5,0
   12230:	4701                	li	a4,0
   12232:	02400513          	li	a0,36
   12236:	102000ef          	jal	ra,12338 <invoke_syscall>
   1223a:	87aa                	mv	a5,a0
   1223c:	2781                	sext.w	a5,a5
   1223e:	853e                	mv	a0,a5
   12240:	70a2                	ld	ra,40(sp)
   12242:	7402                	ld	s0,32(sp)
   12244:	6145                	addi	sp,sp,48
   12246:	8082                	ret

0000000000012248 <sys_lseek>:
   12248:	1101                	addi	sp,sp,-32
   1224a:	ec06                	sd	ra,24(sp)
   1224c:	e822                	sd	s0,16(sp)
   1224e:	1000                	addi	s0,sp,32
   12250:	87aa                	mv	a5,a0
   12252:	8736                	mv	a4,a3
   12254:	fef42623          	sw	a5,-20(s0)
   12258:	87ae                	mv	a5,a1
   1225a:	fef42423          	sw	a5,-24(s0)
   1225e:	87b2                	mv	a5,a2
   12260:	fef42223          	sw	a5,-28(s0)
   12264:	87ba                	mv	a5,a4
   12266:	fef42023          	sw	a5,-32(s0)
   1226a:	fec42583          	lw	a1,-20(s0)
   1226e:	fe842603          	lw	a2,-24(s0)
   12272:	fe442683          	lw	a3,-28(s0)
   12276:	fe042703          	lw	a4,-32(s0)
   1227a:	4781                	li	a5,0
   1227c:	02500513          	li	a0,37
   12280:	0b8000ef          	jal	ra,12338 <invoke_syscall>
   12284:	87aa                	mv	a5,a0
   12286:	2781                	sext.w	a5,a5
   12288:	853e                	mv	a0,a5
   1228a:	60e2                	ld	ra,24(sp)
   1228c:	6442                	ld	s0,16(sp)
   1228e:	6105                	addi	sp,sp,32
   12290:	8082                	ret

0000000000012292 <sys_net_recv>:
   12292:	7179                	addi	sp,sp,-48
   12294:	f406                	sd	ra,40(sp)
   12296:	f022                	sd	s0,32(sp)
   12298:	1800                	addi	s0,sp,48
   1229a:	fea43423          	sd	a0,-24(s0)
   1229e:	feb43023          	sd	a1,-32(s0)
   122a2:	87b2                	mv	a5,a2
   122a4:	fcd43823          	sd	a3,-48(s0)
   122a8:	fcf42e23          	sw	a5,-36(s0)
   122ac:	87ba                	mv	a5,a4
   122ae:	fcf42c23          	sw	a5,-40(s0)
   122b2:	fe843583          	ld	a1,-24(s0)
   122b6:	fe043603          	ld	a2,-32(s0)
   122ba:	fdc42683          	lw	a3,-36(s0)
   122be:	fd043703          	ld	a4,-48(s0)
   122c2:	fd842783          	lw	a5,-40(s0)
   122c6:	02b00513          	li	a0,43
   122ca:	06e000ef          	jal	ra,12338 <invoke_syscall>
   122ce:	87aa                	mv	a5,a0
   122d0:	853e                	mv	a0,a5
   122d2:	70a2                	ld	ra,40(sp)
   122d4:	7402                	ld	s0,32(sp)
   122d6:	6145                	addi	sp,sp,48
   122d8:	8082                	ret

00000000000122da <sys_net_send>:
   122da:	1101                	addi	sp,sp,-32
   122dc:	ec06                	sd	ra,24(sp)
   122de:	e822                	sd	s0,16(sp)
   122e0:	1000                	addi	s0,sp,32
   122e2:	fea43423          	sd	a0,-24(s0)
   122e6:	feb43023          	sd	a1,-32(s0)
   122ea:	fe843583          	ld	a1,-24(s0)
   122ee:	fe043603          	ld	a2,-32(s0)
   122f2:	4781                	li	a5,0
   122f4:	4701                	li	a4,0
   122f6:	4681                	li	a3,0
   122f8:	02c00513          	li	a0,44
   122fc:	03c000ef          	jal	ra,12338 <invoke_syscall>
   12300:	0001                	nop
   12302:	60e2                	ld	ra,24(sp)
   12304:	6442                	ld	s0,16(sp)
   12306:	6105                	addi	sp,sp,32
   12308:	8082                	ret

000000000001230a <sys_net_irq_mode>:
   1230a:	1101                	addi	sp,sp,-32
   1230c:	ec06                	sd	ra,24(sp)
   1230e:	e822                	sd	s0,16(sp)
   12310:	1000                	addi	s0,sp,32
   12312:	87aa                	mv	a5,a0
   12314:	fef42623          	sw	a5,-20(s0)
   12318:	fec42583          	lw	a1,-20(s0)
   1231c:	4781                	li	a5,0
   1231e:	4701                	li	a4,0
   12320:	4681                	li	a3,0
   12322:	4601                	li	a2,0
   12324:	02d00513          	li	a0,45
   12328:	010000ef          	jal	ra,12338 <invoke_syscall>
   1232c:	0001                	nop
   1232e:	60e2                	ld	ra,24(sp)
   12330:	6442                	ld	s0,16(sp)
   12332:	6105                	addi	sp,sp,32
   12334:	8082                	ret
	...

0000000000012338 <invoke_syscall>:
   12338:	88aa                	mv	a7,a0
   1233a:	852e                	mv	a0,a1
   1233c:	85b2                	mv	a1,a2
   1233e:	8636                	mv	a2,a3
   12340:	86ba                	mv	a3,a4
   12342:	873e                	mv	a4,a5
   12344:	00000073          	ecall

0000000000012348 <syscall_return>:
   12348:	8082                	ret
   1234a:	0001                	nop

000000000001234c <sys_fork>:
   1234c:	48a1                	li	a7,8
   1234e:	4685                	li	a3,1
   12350:	00000073          	ecall
   12354:	8082                	ret

0000000000012356 <mkfs>:
   12356:	1141                	addi	sp,sp,-16
   12358:	e406                	sd	ra,8(sp)
   1235a:	e022                	sd	s0,0(sp)
   1235c:	0800                	addi	s0,sp,16
   1235e:	4501                	li	a0,0
   12360:	df5ff0ef          	jal	ra,12154 <sys_fsop>
   12364:	87aa                	mv	a5,a0
   12366:	853e                	mv	a0,a5
   12368:	60a2                	ld	ra,8(sp)
   1236a:	6402                	ld	s0,0(sp)
   1236c:	0141                	addi	sp,sp,16
   1236e:	8082                	ret

0000000000012370 <statfs>:
   12370:	1141                	addi	sp,sp,-16
   12372:	e406                	sd	ra,8(sp)
   12374:	e022                	sd	s0,0(sp)
   12376:	0800                	addi	s0,sp,16
   12378:	4505                	li	a0,1
   1237a:	ddbff0ef          	jal	ra,12154 <sys_fsop>
   1237e:	87aa                	mv	a5,a0
   12380:	853e                	mv	a0,a5
   12382:	60a2                	ld	ra,8(sp)
   12384:	6402                	ld	s0,0(sp)
   12386:	0141                	addi	sp,sp,16
   12388:	8082                	ret

000000000001238a <mkdir>:
   1238a:	1101                	addi	sp,sp,-32
   1238c:	ec06                	sd	ra,24(sp)
   1238e:	e822                	sd	s0,16(sp)
   12390:	1000                	addi	s0,sp,32
   12392:	fea43423          	sd	a0,-24(s0)
   12396:	4601                	li	a2,0
   12398:	fe843583          	ld	a1,-24(s0)
   1239c:	4501                	li	a0,0
   1239e:	de7ff0ef          	jal	ra,12184 <sys_dirop>
   123a2:	87aa                	mv	a5,a0
   123a4:	853e                	mv	a0,a5
   123a6:	60e2                	ld	ra,24(sp)
   123a8:	6442                	ld	s0,16(sp)
   123aa:	6105                	addi	sp,sp,32
   123ac:	8082                	ret

00000000000123ae <rmdir>:
   123ae:	1101                	addi	sp,sp,-32
   123b0:	ec06                	sd	ra,24(sp)
   123b2:	e822                	sd	s0,16(sp)
   123b4:	1000                	addi	s0,sp,32
   123b6:	fea43423          	sd	a0,-24(s0)
   123ba:	4601                	li	a2,0
   123bc:	fe843583          	ld	a1,-24(s0)
   123c0:	4505                	li	a0,1
   123c2:	dc3ff0ef          	jal	ra,12184 <sys_dirop>
   123c6:	87aa                	mv	a5,a0
   123c8:	853e                	mv	a0,a5
   123ca:	60e2                	ld	ra,24(sp)
   123cc:	6442                	ld	s0,16(sp)
   123ce:	6105                	addi	sp,sp,32
   123d0:	8082                	ret

00000000000123d2 <cd>:
   123d2:	1101                	addi	sp,sp,-32
   123d4:	ec06                	sd	ra,24(sp)
   123d6:	e822                	sd	s0,16(sp)
   123d8:	1000                	addi	s0,sp,32
   123da:	fea43423          	sd	a0,-24(s0)
   123de:	4601                	li	a2,0
   123e0:	fe843583          	ld	a1,-24(s0)
   123e4:	4509                	li	a0,2
   123e6:	d9fff0ef          	jal	ra,12184 <sys_dirop>
   123ea:	87aa                	mv	a5,a0
   123ec:	853e                	mv	a0,a5
   123ee:	60e2                	ld	ra,24(sp)
   123f0:	6442                	ld	s0,16(sp)
   123f2:	6105                	addi	sp,sp,32
   123f4:	8082                	ret

00000000000123f6 <ls>:
   123f6:	1101                	addi	sp,sp,-32
   123f8:	ec06                	sd	ra,24(sp)
   123fa:	e822                	sd	s0,16(sp)
   123fc:	1000                	addi	s0,sp,32
   123fe:	fea43423          	sd	a0,-24(s0)
   12402:	87ae                	mv	a5,a1
   12404:	fef42223          	sw	a5,-28(s0)
   12408:	fe442783          	lw	a5,-28(s0)
   1240c:	863e                	mv	a2,a5
   1240e:	fe843583          	ld	a1,-24(s0)
   12412:	450d                	li	a0,3
   12414:	d71ff0ef          	jal	ra,12184 <sys_dirop>
   12418:	87aa                	mv	a5,a0
   1241a:	853e                	mv	a0,a5
   1241c:	60e2                	ld	ra,24(sp)
   1241e:	6442                	ld	s0,16(sp)
   12420:	6105                	addi	sp,sp,32
   12422:	8082                	ret

0000000000012424 <pwd>:
   12424:	1101                	addi	sp,sp,-32
   12426:	ec06                	sd	ra,24(sp)
   12428:	e822                	sd	s0,16(sp)
   1242a:	1000                	addi	s0,sp,32
   1242c:	fea43423          	sd	a0,-24(s0)
   12430:	4601                	li	a2,0
   12432:	fe843583          	ld	a1,-24(s0)
   12436:	4511                	li	a0,4
   12438:	d4dff0ef          	jal	ra,12184 <sys_dirop>
   1243c:	87aa                	mv	a5,a0
   1243e:	853e                	mv	a0,a5
   12440:	60e2                	ld	ra,24(sp)
   12442:	6442                	ld	s0,16(sp)
   12444:	6105                	addi	sp,sp,32
   12446:	8082                	ret

0000000000012448 <touch>:
   12448:	1101                	addi	sp,sp,-32
   1244a:	ec06                	sd	ra,24(sp)
   1244c:	e822                	sd	s0,16(sp)
   1244e:	1000                	addi	s0,sp,32
   12450:	fea43423          	sd	a0,-24(s0)
   12454:	4681                	li	a3,0
   12456:	4601                	li	a2,0
   12458:	fe843583          	ld	a1,-24(s0)
   1245c:	4501                	li	a0,0
   1245e:	d67ff0ef          	jal	ra,121c4 <sys_fileop>
   12462:	87aa                	mv	a5,a0
   12464:	853e                	mv	a0,a5
   12466:	60e2                	ld	ra,24(sp)
   12468:	6442                	ld	s0,16(sp)
   1246a:	6105                	addi	sp,sp,32
   1246c:	8082                	ret

000000000001246e <cat>:
   1246e:	1101                	addi	sp,sp,-32
   12470:	ec06                	sd	ra,24(sp)
   12472:	e822                	sd	s0,16(sp)
   12474:	1000                	addi	s0,sp,32
   12476:	fea43423          	sd	a0,-24(s0)
   1247a:	4681                	li	a3,0
   1247c:	4601                	li	a2,0
   1247e:	fe843583          	ld	a1,-24(s0)
   12482:	4505                	li	a0,1
   12484:	d41ff0ef          	jal	ra,121c4 <sys_fileop>
   12488:	87aa                	mv	a5,a0
   1248a:	853e                	mv	a0,a5
   1248c:	60e2                	ld	ra,24(sp)
   1248e:	6442                	ld	s0,16(sp)
   12490:	6105                	addi	sp,sp,32
   12492:	8082                	ret

0000000000012494 <fopen>:
   12494:	1101                	addi	sp,sp,-32
   12496:	ec06                	sd	ra,24(sp)
   12498:	e822                	sd	s0,16(sp)
   1249a:	1000                	addi	s0,sp,32
   1249c:	fea43423          	sd	a0,-24(s0)
   124a0:	87ae                	mv	a5,a1
   124a2:	fef42223          	sw	a5,-28(s0)
   124a6:	fe442783          	lw	a5,-28(s0)
   124aa:	4681                	li	a3,0
   124ac:	863e                	mv	a2,a5
   124ae:	fe843583          	ld	a1,-24(s0)
   124b2:	4509                	li	a0,2
   124b4:	d11ff0ef          	jal	ra,121c4 <sys_fileop>
   124b8:	87aa                	mv	a5,a0
   124ba:	853e                	mv	a0,a5
   124bc:	60e2                	ld	ra,24(sp)
   124be:	6442                	ld	s0,16(sp)
   124c0:	6105                	addi	sp,sp,32
   124c2:	8082                	ret

00000000000124c4 <fread>:
   124c4:	1101                	addi	sp,sp,-32
   124c6:	ec06                	sd	ra,24(sp)
   124c8:	e822                	sd	s0,16(sp)
   124ca:	1000                	addi	s0,sp,32
   124cc:	87aa                	mv	a5,a0
   124ce:	feb43023          	sd	a1,-32(s0)
   124d2:	8732                	mv	a4,a2
   124d4:	fef42623          	sw	a5,-20(s0)
   124d8:	87ba                	mv	a5,a4
   124da:	fef42423          	sw	a5,-24(s0)
   124de:	fe842703          	lw	a4,-24(s0)
   124e2:	fec42783          	lw	a5,-20(s0)
   124e6:	86ba                	mv	a3,a4
   124e8:	863e                	mv	a2,a5
   124ea:	fe043583          	ld	a1,-32(s0)
   124ee:	450d                	li	a0,3
   124f0:	cd5ff0ef          	jal	ra,121c4 <sys_fileop>
   124f4:	87aa                	mv	a5,a0
   124f6:	853e                	mv	a0,a5
   124f8:	60e2                	ld	ra,24(sp)
   124fa:	6442                	ld	s0,16(sp)
   124fc:	6105                	addi	sp,sp,32
   124fe:	8082                	ret

0000000000012500 <fwrite>:
   12500:	1101                	addi	sp,sp,-32
   12502:	ec06                	sd	ra,24(sp)
   12504:	e822                	sd	s0,16(sp)
   12506:	1000                	addi	s0,sp,32
   12508:	87aa                	mv	a5,a0
   1250a:	feb43023          	sd	a1,-32(s0)
   1250e:	8732                	mv	a4,a2
   12510:	fef42623          	sw	a5,-20(s0)
   12514:	87ba                	mv	a5,a4
   12516:	fef42423          	sw	a5,-24(s0)
   1251a:	fe842703          	lw	a4,-24(s0)
   1251e:	fec42783          	lw	a5,-20(s0)
   12522:	86ba                	mv	a3,a4
   12524:	863e                	mv	a2,a5
   12526:	fe043583          	ld	a1,-32(s0)
   1252a:	4511                	li	a0,4
   1252c:	c99ff0ef          	jal	ra,121c4 <sys_fileop>
   12530:	87aa                	mv	a5,a0
   12532:	853e                	mv	a0,a5
   12534:	60e2                	ld	ra,24(sp)
   12536:	6442                	ld	s0,16(sp)
   12538:	6105                	addi	sp,sp,32
   1253a:	8082                	ret

000000000001253c <fclose>:
   1253c:	1101                	addi	sp,sp,-32
   1253e:	ec06                	sd	ra,24(sp)
   12540:	e822                	sd	s0,16(sp)
   12542:	1000                	addi	s0,sp,32
   12544:	87aa                	mv	a5,a0
   12546:	fef42623          	sw	a5,-20(s0)
   1254a:	fec42783          	lw	a5,-20(s0)
   1254e:	4681                	li	a3,0
   12550:	863e                	mv	a2,a5
   12552:	4581                	li	a1,0
   12554:	4515                	li	a0,5
   12556:	c6fff0ef          	jal	ra,121c4 <sys_fileop>
   1255a:	87aa                	mv	a5,a0
   1255c:	853e                	mv	a0,a5
   1255e:	60e2                	ld	ra,24(sp)
   12560:	6442                	ld	s0,16(sp)
   12562:	6105                	addi	sp,sp,32
   12564:	8082                	ret

0000000000012566 <frm>:
   12566:	1101                	addi	sp,sp,-32
   12568:	ec06                	sd	ra,24(sp)
   1256a:	e822                	sd	s0,16(sp)
   1256c:	1000                	addi	s0,sp,32
   1256e:	fea43423          	sd	a0,-24(s0)
   12572:	4681                	li	a3,0
   12574:	4601                	li	a2,0
   12576:	fe843583          	ld	a1,-24(s0)
   1257a:	4519                	li	a0,6
   1257c:	c49ff0ef          	jal	ra,121c4 <sys_fileop>
   12580:	87aa                	mv	a5,a0
   12582:	853e                	mv	a0,a5
   12584:	60e2                	ld	ra,24(sp)
   12586:	6442                	ld	s0,16(sp)
   12588:	6105                	addi	sp,sp,32
   1258a:	8082                	ret

000000000001258c <ln>:
   1258c:	7179                	addi	sp,sp,-48
   1258e:	f406                	sd	ra,40(sp)
   12590:	f022                	sd	s0,32(sp)
   12592:	1800                	addi	s0,sp,48
   12594:	87aa                	mv	a5,a0
   12596:	feb43023          	sd	a1,-32(s0)
   1259a:	fcc43c23          	sd	a2,-40(s0)
   1259e:	fef42623          	sw	a5,-20(s0)
   125a2:	fec42783          	lw	a5,-20(s0)
   125a6:	fd843603          	ld	a2,-40(s0)
   125aa:	fe043583          	ld	a1,-32(s0)
   125ae:	853e                	mv	a0,a5
   125b0:	c5dff0ef          	jal	ra,1220c <sys_linkop>
   125b4:	87aa                	mv	a5,a0
   125b6:	853e                	mv	a0,a5
   125b8:	70a2                	ld	ra,40(sp)
   125ba:	7402                	ld	s0,32(sp)
   125bc:	6145                	addi	sp,sp,48
   125be:	8082                	ret

00000000000125c0 <lseek>:
   125c0:	1101                	addi	sp,sp,-32
   125c2:	ec06                	sd	ra,24(sp)
   125c4:	e822                	sd	s0,16(sp)
   125c6:	1000                	addi	s0,sp,32
   125c8:	87aa                	mv	a5,a0
   125ca:	8736                	mv	a4,a3
   125cc:	fef42623          	sw	a5,-20(s0)
   125d0:	87ae                	mv	a5,a1
   125d2:	fef42423          	sw	a5,-24(s0)
   125d6:	87b2                	mv	a5,a2
   125d8:	fef42223          	sw	a5,-28(s0)
   125dc:	87ba                	mv	a5,a4
   125de:	fef42023          	sw	a5,-32(s0)
   125e2:	fe042683          	lw	a3,-32(s0)
   125e6:	fe442603          	lw	a2,-28(s0)
   125ea:	fe842703          	lw	a4,-24(s0)
   125ee:	fec42783          	lw	a5,-20(s0)
   125f2:	85ba                	mv	a1,a4
   125f4:	853e                	mv	a0,a5
   125f6:	c53ff0ef          	jal	ra,12248 <sys_lseek>
   125fa:	87aa                	mv	a5,a0
   125fc:	853e                	mv	a0,a5
   125fe:	60e2                	ld	ra,24(sp)
   12600:	6442                	ld	s0,16(sp)
   12602:	6105                	addi	sp,sp,32
   12604:	8082                	ret
	...

0000000000012608 <sys_exit_crt0>:
   12608:	4885                	li	a7,1
   1260a:	00000073          	ecall
   1260e:	8082                	ret

0000000000012610 <_start>:
   12610:	00001197          	auipc	gp,0x1
   12614:	f6018193          	addi	gp,gp,-160 # 13570 <__global_pointer$>
   12618:	c2818693          	addi	a3,gp,-984 # 13198 <__SDATA_BEGIN__>
   1261c:	c3018713          	addi	a4,gp,-976 # 131a0 <__BSS_END__>
   12620:	00e6d763          	bge	a3,a4,1262e <clear_bss_done>

0000000000012624 <clear_bss>:
   12624:	0006b023          	sd	zero,0(a3)
   12628:	06a1                	addi	a3,a3,8
   1262a:	fee6cde3          	blt	a3,a4,12624 <clear_bss>

000000000001262e <clear_bss_done>:
   1262e:	d52fe0ef          	jal	ra,10b80 <main>
   12632:	fd7ff0ef          	jal	ra,12608 <sys_exit_crt0>
	...
