
main:     file format elf64-littleriscv


Disassembly of section .text:

ffffffc050400000 <_start>:
ffffffc050400000:	10401073          	csrw	sie,zero
ffffffc050400004:	14401073          	csrw	sip,zero
ffffffc050400008:	6299                	lui	t0,0x6
ffffffc05040000a:	1002b073          	csrc	sstatus,t0
ffffffc05040000e:	0004d197          	auipc	gp,0x4d
ffffffc050400012:	19a18193          	addi	gp,gp,410 # ffffffc05044d1a8 <__global_pointer$>
ffffffc050400016:	f14022f3          	csrr	t0,mhartid
ffffffc05040001a:	02029863          	bnez	t0,ffffffc05040004a <set_secondary_stack>
ffffffc05040001e:	85c18693          	addi	a3,gp,-1956 # ffffffc05044ca04 <_edata>
ffffffc050400022:	00055717          	auipc	a4,0x55
ffffffc050400026:	81670713          	addi	a4,a4,-2026 # ffffffc050454838 <__BSS_END__>
ffffffc05040002a:	00e6d763          	bge	a3,a4,ffffffc050400038 <clear_bss_done>

ffffffc05040002e <clear_bss>:
ffffffc05040002e:	0006b023          	sd	zero,0(a3)
ffffffc050400032:	06a1                	addi	a3,a3,8
ffffffc050400034:	fee6cde3          	blt	a3,a4,ffffffc05040002e <clear_bss>

ffffffc050400038 <clear_bss_done>:
ffffffc050400038:	0004d117          	auipc	sp,0x4d
ffffffc05040003c:	97013103          	ld	sp,-1680(sp) # ffffffc05044c9a8 <pid0_stack_core_m>
ffffffc050400040:	00008217          	auipc	tp,0x8
ffffffc050400044:	c5820213          	addi	tp,tp,-936 # ffffffc050407c98 <pid0_pcb_core_m>
ffffffc050400048:	a819                	j	ffffffc05040005e <set_env_finish>

ffffffc05040004a <set_secondary_stack>:
ffffffc05040004a:	00008217          	auipc	tp,0x8
ffffffc05040004e:	e1e20213          	addi	tp,tp,-482 # ffffffc050407e68 <pid0_pcb_core_s>
ffffffc050400052:	0004d117          	auipc	sp,0x4d
ffffffc050400056:	95e13103          	ld	sp,-1698(sp) # ffffffc05044c9b0 <pid0_stack_core_s>
ffffffc05040005a:	14001073          	csrw	sscratch,zero

ffffffc05040005e <set_env_finish>:
ffffffc05040005e:	00052517          	auipc	a0,0x52
ffffffc050400062:	86a50513          	addi	a0,a0,-1942 # ffffffc0504518c8 <riscv_dtb>
ffffffc050400066:	e10c                	sd	a1,0(a0)
ffffffc050400068:	8516                	mv	a0,t0
ffffffc05040006a:	6a9000ef          	jal	ra,ffffffc050400f12 <main>

ffffffc05040006e <loop>:
ffffffc05040006e:	10500073          	wfi
ffffffc050400072:	bff5                	j	ffffffc05040006e <loop>
ffffffc050400074:	0000                	unimp
	...

ffffffc050400078 <setup_exception>:
ffffffc050400078:	00000297          	auipc	t0,0x0
ffffffc05040007c:	15028293          	addi	t0,t0,336 # ffffffc0504001c8 <exception_handler_entry>
ffffffc050400080:	10529073          	csrw	stvec,t0
ffffffc050400084:	f14022f3          	csrr	t0,mhartid
ffffffc050400088:	00028563          	beqz	t0,ffffffc050400092 <setsie>
ffffffc05040008c:	02200293          	li	t0,34
ffffffc050400090:	a019                	j	ffffffc050400096 <setup_exception_ret>

ffffffc050400092 <setsie>:
ffffffc050400092:	02000293          	li	t0,32

ffffffc050400096 <setup_exception_ret>:
ffffffc050400096:	10429073          	csrw	sie,t0
ffffffc05040009a:	8082                	ret
ffffffc05040009c:	0000                	unimp
	...

ffffffc0504000a0 <enable_preempt>:
ffffffc0504000a0:	f14022f3          	csrr	t0,mhartid
ffffffc0504000a4:	00029763          	bnez	t0,ffffffc0504000b2 <enable_core_s>
ffffffc0504000a8:	00052317          	auipc	t1,0x52
ffffffc0504000ac:	f7033303          	ld	t1,-144(t1) # ffffffc050452018 <current_running_core_m>
ffffffc0504000b0:	a029                	j	ffffffc0504000ba <enable_pre>

ffffffc0504000b2 <enable_core_s>:
ffffffc0504000b2:	00054317          	auipc	t1,0x54
ffffffc0504000b6:	c7633303          	ld	t1,-906(t1) # ffffffc050453d28 <current_running_core_s>

ffffffc0504000ba <enable_pre>:
ffffffc0504000ba:	01033283          	ld	t0,16(t1)
ffffffc0504000be:	00028863          	beqz	t0,ffffffc0504000ce <k_enable>
ffffffc0504000c2:	12fd                	addi	t0,t0,-1
ffffffc0504000c4:	00533823          	sd	t0,16(t1)
ffffffc0504000c8:	00028363          	beqz	t0,ffffffc0504000ce <k_enable>
ffffffc0504000cc:	8082                	ret

ffffffc0504000ce <k_enable>:
ffffffc0504000ce:	fff04293          	not	t0,zero
ffffffc0504000d2:	1042a073          	csrs	sie,t0
ffffffc0504000d6:	8082                	ret

ffffffc0504000d8 <disable_preempt>:
ffffffc0504000d8:	10401073          	csrw	sie,zero
ffffffc0504000dc:	f14022f3          	csrr	t0,mhartid
ffffffc0504000e0:	00029763          	bnez	t0,ffffffc0504000ee <disable_core_s>
ffffffc0504000e4:	00052317          	auipc	t1,0x52
ffffffc0504000e8:	f3433303          	ld	t1,-204(t1) # ffffffc050452018 <current_running_core_m>
ffffffc0504000ec:	a029                	j	ffffffc0504000f6 <disable_pre>

ffffffc0504000ee <disable_core_s>:
ffffffc0504000ee:	00054317          	auipc	t1,0x54
ffffffc0504000f2:	c3a33303          	ld	t1,-966(t1) # ffffffc050453d28 <current_running_core_s>

ffffffc0504000f6 <disable_pre>:
ffffffc0504000f6:	01033283          	ld	t0,16(t1)
ffffffc0504000fa:	0285                	addi	t0,t0,1
ffffffc0504000fc:	00533823          	sd	t0,16(t1)
ffffffc050400100:	8082                	ret
ffffffc050400102:	0001                	nop

ffffffc050400104 <enable_interrupt>:
ffffffc050400104:	4289                	li	t0,2
ffffffc050400106:	1002a073          	csrs	sstatus,t0
ffffffc05040010a:	8082                	ret

ffffffc05040010c <disable_interrupt>:
ffffffc05040010c:	4289                	li	t0,2
ffffffc05040010e:	1002b073          	csrc	sstatus,t0
ffffffc050400112:	8082                	ret

ffffffc050400114 <switch_to>:
ffffffc050400114:	828a                	mv	t0,sp
ffffffc050400116:	00053103          	ld	sp,0(a0)
ffffffc05040011a:	e006                	sd	ra,0(sp)
ffffffc05040011c:	e416                	sd	t0,8(sp)
ffffffc05040011e:	e822                	sd	s0,16(sp)
ffffffc050400120:	ec26                	sd	s1,24(sp)
ffffffc050400122:	f04a                	sd	s2,32(sp)
ffffffc050400124:	f44e                	sd	s3,40(sp)
ffffffc050400126:	f852                	sd	s4,48(sp)
ffffffc050400128:	fc56                	sd	s5,56(sp)
ffffffc05040012a:	e0da                	sd	s6,64(sp)
ffffffc05040012c:	e4de                	sd	s7,72(sp)
ffffffc05040012e:	e8e2                	sd	s8,80(sp)
ffffffc050400130:	ece6                	sd	s9,88(sp)
ffffffc050400132:	f0ea                	sd	s10,96(sp)
ffffffc050400134:	f4ee                	sd	s11,104(sp)
ffffffc050400136:	0005b103          	ld	sp,0(a1)
ffffffc05040013a:	6082                	ld	ra,0(sp)
ffffffc05040013c:	6442                	ld	s0,16(sp)
ffffffc05040013e:	64e2                	ld	s1,24(sp)
ffffffc050400140:	7902                	ld	s2,32(sp)
ffffffc050400142:	79a2                	ld	s3,40(sp)
ffffffc050400144:	7a42                	ld	s4,48(sp)
ffffffc050400146:	7ae2                	ld	s5,56(sp)
ffffffc050400148:	6b06                	ld	s6,64(sp)
ffffffc05040014a:	6ba6                	ld	s7,72(sp)
ffffffc05040014c:	6c46                	ld	s8,80(sp)
ffffffc05040014e:	6ce6                	ld	s9,88(sp)
ffffffc050400150:	7d06                	ld	s10,96(sp)
ffffffc050400152:	7da6                	ld	s11,104(sp)
ffffffc050400154:	6122                	ld	sp,8(sp)
ffffffc050400156:	822e                	mv	tp,a1
ffffffc050400158:	8082                	ret
ffffffc05040015a:	0001                	nop

ffffffc05040015c <ret_from_exception>:
ffffffc05040015c:	2dd050ef          	jal	ra,ffffffc050405c38 <unlock_kernel>
ffffffc050400160:	850a                	mv	a0,sp
ffffffc050400162:	00023103          	ld	sp,0(tp) # 0 <_start-0xffffffc050400000>
ffffffc050400166:	e42a                	sd	a0,8(sp)
ffffffc050400168:	6165                	addi	sp,sp,112
ffffffc05040016a:	6512                	ld	a0,256(sp)
ffffffc05040016c:	65b2                	ld	a1,264(sp)
ffffffc05040016e:	10051073          	csrw	sstatus,a0
ffffffc050400172:	14159073          	csrw	sepc,a1
ffffffc050400176:	00013003          	ld	zero,0(sp)
ffffffc05040017a:	60a2                	ld	ra,8(sp)
ffffffc05040017c:	61e2                	ld	gp,24(sp)
ffffffc05040017e:	72a2                	ld	t0,40(sp)
ffffffc050400180:	7342                	ld	t1,48(sp)
ffffffc050400182:	73e2                	ld	t2,56(sp)
ffffffc050400184:	6406                	ld	s0,64(sp)
ffffffc050400186:	64a6                	ld	s1,72(sp)
ffffffc050400188:	6546                	ld	a0,80(sp)
ffffffc05040018a:	65e6                	ld	a1,88(sp)
ffffffc05040018c:	7606                	ld	a2,96(sp)
ffffffc05040018e:	76a6                	ld	a3,104(sp)
ffffffc050400190:	7746                	ld	a4,112(sp)
ffffffc050400192:	77e6                	ld	a5,120(sp)
ffffffc050400194:	680a                	ld	a6,128(sp)
ffffffc050400196:	68aa                	ld	a7,136(sp)
ffffffc050400198:	694a                	ld	s2,144(sp)
ffffffc05040019a:	69ea                	ld	s3,152(sp)
ffffffc05040019c:	7a0a                	ld	s4,160(sp)
ffffffc05040019e:	7aaa                	ld	s5,168(sp)
ffffffc0504001a0:	7b4a                	ld	s6,176(sp)
ffffffc0504001a2:	7bea                	ld	s7,184(sp)
ffffffc0504001a4:	6c0e                	ld	s8,192(sp)
ffffffc0504001a6:	6cae                	ld	s9,200(sp)
ffffffc0504001a8:	6d4e                	ld	s10,208(sp)
ffffffc0504001aa:	6dee                	ld	s11,216(sp)
ffffffc0504001ac:	7e0e                	ld	t3,224(sp)
ffffffc0504001ae:	7eae                	ld	t4,232(sp)
ffffffc0504001b0:	7f4e                	ld	t5,240(sp)
ffffffc0504001b2:	7fee                	ld	t6,248(sp)
ffffffc0504001b4:	000402b7          	lui	t0,0x40
ffffffc0504001b8:	1002a073          	csrs	sstatus,t0
ffffffc0504001bc:	14021073          	csrw	sscratch,tp
ffffffc0504001c0:	00823103          	ld	sp,8(tp) # 8 <_start-0xffffffc0503ffff8>
ffffffc0504001c4:	10200073          	sret

ffffffc0504001c8 <exception_handler_entry>:
ffffffc0504001c8:	14021273          	csrrw	tp,sscratch,tp
ffffffc0504001cc:	00021463          	bnez	tp,ffffffc0504001d4 <_save_context>

ffffffc0504001d0 <_restore_kernel_tpsp>:
ffffffc0504001d0:	14002273          	csrr	tp,sscratch

ffffffc0504001d4 <_save_context>:
ffffffc0504001d4:	00223423          	sd	sp,8(tp) # 8 <_start-0xffffffc0503ffff8>
ffffffc0504001d8:	00023103          	ld	sp,0(tp) # 0 <_start-0xffffffc050400000>
ffffffc0504001dc:	6165                	addi	sp,sp,112
ffffffc0504001de:	e002                	sd	zero,0(sp)
ffffffc0504001e0:	e406                	sd	ra,8(sp)
ffffffc0504001e2:	ec0e                	sd	gp,24(sp)
ffffffc0504001e4:	f416                	sd	t0,40(sp)
ffffffc0504001e6:	f81a                	sd	t1,48(sp)
ffffffc0504001e8:	fc1e                	sd	t2,56(sp)
ffffffc0504001ea:	e0a2                	sd	s0,64(sp)
ffffffc0504001ec:	e4a6                	sd	s1,72(sp)
ffffffc0504001ee:	e8aa                	sd	a0,80(sp)
ffffffc0504001f0:	ecae                	sd	a1,88(sp)
ffffffc0504001f2:	f0b2                	sd	a2,96(sp)
ffffffc0504001f4:	f4b6                	sd	a3,104(sp)
ffffffc0504001f6:	f8ba                	sd	a4,112(sp)
ffffffc0504001f8:	fcbe                	sd	a5,120(sp)
ffffffc0504001fa:	e142                	sd	a6,128(sp)
ffffffc0504001fc:	e546                	sd	a7,136(sp)
ffffffc0504001fe:	e94a                	sd	s2,144(sp)
ffffffc050400200:	ed4e                	sd	s3,152(sp)
ffffffc050400202:	f152                	sd	s4,160(sp)
ffffffc050400204:	f556                	sd	s5,168(sp)
ffffffc050400206:	f95a                	sd	s6,176(sp)
ffffffc050400208:	fd5e                	sd	s7,184(sp)
ffffffc05040020a:	e1e2                	sd	s8,192(sp)
ffffffc05040020c:	e5e6                	sd	s9,200(sp)
ffffffc05040020e:	e9ea                	sd	s10,208(sp)
ffffffc050400210:	edee                	sd	s11,216(sp)
ffffffc050400212:	f1f2                	sd	t3,224(sp)
ffffffc050400214:	f5f6                	sd	t4,232(sp)
ffffffc050400216:	f9fa                	sd	t5,240(sp)
ffffffc050400218:	fdfe                	sd	t6,248(sp)
ffffffc05040021a:	6299                	lui	t0,0x6
ffffffc05040021c:	1002b573          	csrrc	a0,sstatus,t0
ffffffc050400220:	000402b7          	lui	t0,0x40
ffffffc050400224:	1002a073          	csrs	sstatus,t0
ffffffc050400228:	141025f3          	csrr	a1,sepc
ffffffc05040022c:	14302673          	csrr	a2,stval
ffffffc050400230:	142026f3          	csrr	a3,scause
ffffffc050400234:	14002773          	csrr	a4,sscratch
ffffffc050400238:	104027f3          	csrr	a5,sie
ffffffc05040023c:	e22a                	sd	a0,256(sp)
ffffffc05040023e:	e62e                	sd	a1,264(sp)
ffffffc050400240:	ea32                	sd	a2,272(sp)
ffffffc050400242:	ee36                	sd	a3,280(sp)
ffffffc050400244:	f03a                	sd	a4,32(sp)
ffffffc050400246:	f23e                	sd	a5,288(sp)
ffffffc050400248:	00023103          	ld	sp,0(tp) # 0 <_start-0xffffffc050400000>
ffffffc05040024c:	1cf050ef          	jal	ra,ffffffc050405c1a <lock_kernel>
ffffffc050400250:	14001073          	csrw	sscratch,zero
ffffffc050400254:	0004d197          	auipc	gp,0x4d
ffffffc050400258:	f5418193          	addi	gp,gp,-172 # ffffffc05044d1a8 <__global_pointer$>
ffffffc05040025c:	00000097          	auipc	ra,0x0
ffffffc050400260:	f0008093          	addi	ra,ra,-256 # ffffffc05040015c <ret_from_exception>
ffffffc050400264:	00023103          	ld	sp,0(tp) # 0 <_start-0xffffffc050400000>
ffffffc050400268:	6165                	addi	sp,sp,112
ffffffc05040026a:	850a                	mv	a0,sp
ffffffc05040026c:	7159                	addi	sp,sp,-112
ffffffc05040026e:	6122                	ld	sp,8(sp)
ffffffc050400270:	105025f3          	csrr	a1,stvec
ffffffc050400274:	14202673          	csrr	a2,scause
ffffffc050400278:	635002ef          	jal	t0,ffffffc0504010ac <interrupt_helper>
ffffffc05040027c:	00023103          	ld	sp,0(tp) # 0 <_start-0xffffffc050400000>
ffffffc050400280:	8082                	ret

ffffffc050400282 <sbi_console_putstr>:
ffffffc050400282:	1101                	addi	sp,sp,-32
ffffffc050400284:	ec22                	sd	s0,24(sp)
ffffffc050400286:	1000                	addi	s0,sp,32
ffffffc050400288:	fea43423          	sd	a0,-24(s0)
ffffffc05040028c:	a839                	j	ffffffc0504002aa <sbi_console_putstr+0x28>
ffffffc05040028e:	fe843783          	ld	a5,-24(s0)
ffffffc050400292:	00178713          	addi	a4,a5,1
ffffffc050400296:	fee43423          	sd	a4,-24(s0)
ffffffc05040029a:	0007c783          	lbu	a5,0(a5)
ffffffc05040029e:	853e                	mv	a0,a5
ffffffc0504002a0:	4581                	li	a1,0
ffffffc0504002a2:	4601                	li	a2,0
ffffffc0504002a4:	4885                	li	a7,1
ffffffc0504002a6:	00000073          	ecall
ffffffc0504002aa:	fe843783          	ld	a5,-24(s0)
ffffffc0504002ae:	0007c783          	lbu	a5,0(a5)
ffffffc0504002b2:	fff1                	bnez	a5,ffffffc05040028e <sbi_console_putstr+0xc>
ffffffc0504002b4:	0001                	nop
ffffffc0504002b6:	0001                	nop
ffffffc0504002b8:	6462                	ld	s0,24(sp)
ffffffc0504002ba:	6105                	addi	sp,sp,32
ffffffc0504002bc:	8082                	ret

ffffffc0504002be <sbi_console_putchar>:
ffffffc0504002be:	1101                	addi	sp,sp,-32
ffffffc0504002c0:	ec22                	sd	s0,24(sp)
ffffffc0504002c2:	1000                	addi	s0,sp,32
ffffffc0504002c4:	87aa                	mv	a5,a0
ffffffc0504002c6:	fef42623          	sw	a5,-20(s0)
ffffffc0504002ca:	fec42783          	lw	a5,-20(s0)
ffffffc0504002ce:	853e                	mv	a0,a5
ffffffc0504002d0:	4581                	li	a1,0
ffffffc0504002d2:	4601                	li	a2,0
ffffffc0504002d4:	4885                	li	a7,1
ffffffc0504002d6:	00000073          	ecall
ffffffc0504002da:	0001                	nop
ffffffc0504002dc:	6462                	ld	s0,24(sp)
ffffffc0504002de:	6105                	addi	sp,sp,32
ffffffc0504002e0:	8082                	ret

ffffffc0504002e2 <port_write_ch>:
ffffffc0504002e2:	1101                	addi	sp,sp,-32
ffffffc0504002e4:	ec06                	sd	ra,24(sp)
ffffffc0504002e6:	e822                	sd	s0,16(sp)
ffffffc0504002e8:	1000                	addi	s0,sp,32
ffffffc0504002ea:	87aa                	mv	a5,a0
ffffffc0504002ec:	fef407a3          	sb	a5,-17(s0)
ffffffc0504002f0:	fef44783          	lbu	a5,-17(s0)
ffffffc0504002f4:	2781                	sext.w	a5,a5
ffffffc0504002f6:	853e                	mv	a0,a5
ffffffc0504002f8:	fc7ff0ef          	jal	ra,ffffffc0504002be <sbi_console_putchar>
ffffffc0504002fc:	0001                	nop
ffffffc0504002fe:	60e2                	ld	ra,24(sp)
ffffffc050400300:	6442                	ld	s0,16(sp)
ffffffc050400302:	6105                	addi	sp,sp,32
ffffffc050400304:	8082                	ret

ffffffc050400306 <port_write>:
ffffffc050400306:	1101                	addi	sp,sp,-32
ffffffc050400308:	ec06                	sd	ra,24(sp)
ffffffc05040030a:	e822                	sd	s0,16(sp)
ffffffc05040030c:	1000                	addi	s0,sp,32
ffffffc05040030e:	fea43423          	sd	a0,-24(s0)
ffffffc050400312:	fe843503          	ld	a0,-24(s0)
ffffffc050400316:	f6dff0ef          	jal	ra,ffffffc050400282 <sbi_console_putstr>
ffffffc05040031a:	0001                	nop
ffffffc05040031c:	60e2                	ld	ra,24(sp)
ffffffc05040031e:	6442                	ld	s0,16(sp)
ffffffc050400320:	6105                	addi	sp,sp,32
ffffffc050400322:	8082                	ret

ffffffc050400324 <get_current_cpu_id>:
ffffffc050400324:	f1402573          	csrr	a0,mhartid
ffffffc050400328:	8082                	ret

ffffffc05040032a <init_list_head>:
ffffffc05040032a:	1101                	addi	sp,sp,-32
ffffffc05040032c:	ec22                	sd	s0,24(sp)
ffffffc05040032e:	1000                	addi	s0,sp,32
ffffffc050400330:	fea43423          	sd	a0,-24(s0)
ffffffc050400334:	fe843783          	ld	a5,-24(s0)
ffffffc050400338:	fe843703          	ld	a4,-24(s0)
ffffffc05040033c:	e398                	sd	a4,0(a5)
ffffffc05040033e:	fe843783          	ld	a5,-24(s0)
ffffffc050400342:	fe843703          	ld	a4,-24(s0)
ffffffc050400346:	e798                	sd	a4,8(a5)
ffffffc050400348:	0001                	nop
ffffffc05040034a:	6462                	ld	s0,24(sp)
ffffffc05040034c:	6105                	addi	sp,sp,32
ffffffc05040034e:	8082                	ret

ffffffc050400350 <__list_add>:
ffffffc050400350:	7179                	addi	sp,sp,-48
ffffffc050400352:	f422                	sd	s0,40(sp)
ffffffc050400354:	1800                	addi	s0,sp,48
ffffffc050400356:	fea43423          	sd	a0,-24(s0)
ffffffc05040035a:	feb43023          	sd	a1,-32(s0)
ffffffc05040035e:	fcc43c23          	sd	a2,-40(s0)
ffffffc050400362:	fd843783          	ld	a5,-40(s0)
ffffffc050400366:	fe843703          	ld	a4,-24(s0)
ffffffc05040036a:	e798                	sd	a4,8(a5)
ffffffc05040036c:	fe843783          	ld	a5,-24(s0)
ffffffc050400370:	fd843703          	ld	a4,-40(s0)
ffffffc050400374:	e398                	sd	a4,0(a5)
ffffffc050400376:	fe843783          	ld	a5,-24(s0)
ffffffc05040037a:	fe043703          	ld	a4,-32(s0)
ffffffc05040037e:	e798                	sd	a4,8(a5)
ffffffc050400380:	fe043783          	ld	a5,-32(s0)
ffffffc050400384:	fe843703          	ld	a4,-24(s0)
ffffffc050400388:	e398                	sd	a4,0(a5)
ffffffc05040038a:	0001                	nop
ffffffc05040038c:	7422                	ld	s0,40(sp)
ffffffc05040038e:	6145                	addi	sp,sp,48
ffffffc050400390:	8082                	ret

ffffffc050400392 <list_add_tail>:
ffffffc050400392:	1101                	addi	sp,sp,-32
ffffffc050400394:	ec06                	sd	ra,24(sp)
ffffffc050400396:	e822                	sd	s0,16(sp)
ffffffc050400398:	1000                	addi	s0,sp,32
ffffffc05040039a:	fea43423          	sd	a0,-24(s0)
ffffffc05040039e:	feb43023          	sd	a1,-32(s0)
ffffffc0504003a2:	fe043783          	ld	a5,-32(s0)
ffffffc0504003a6:	679c                	ld	a5,8(a5)
ffffffc0504003a8:	fe043603          	ld	a2,-32(s0)
ffffffc0504003ac:	85be                	mv	a1,a5
ffffffc0504003ae:	fe843503          	ld	a0,-24(s0)
ffffffc0504003b2:	f9fff0ef          	jal	ra,ffffffc050400350 <__list_add>
ffffffc0504003b6:	0001                	nop
ffffffc0504003b8:	60e2                	ld	ra,24(sp)
ffffffc0504003ba:	6442                	ld	s0,16(sp)
ffffffc0504003bc:	6105                	addi	sp,sp,32
ffffffc0504003be:	8082                	ret

ffffffc0504003c0 <sbi_console_getchar>:
ffffffc0504003c0:	1141                	addi	sp,sp,-16
ffffffc0504003c2:	e422                	sd	s0,8(sp)
ffffffc0504003c4:	0800                	addi	s0,sp,16
ffffffc0504003c6:	4501                	li	a0,0
ffffffc0504003c8:	4581                	li	a1,0
ffffffc0504003ca:	4601                	li	a2,0
ffffffc0504003cc:	4889                	li	a7,2
ffffffc0504003ce:	00000073          	ecall
ffffffc0504003d2:	87aa                	mv	a5,a0
ffffffc0504003d4:	2781                	sext.w	a5,a5
ffffffc0504003d6:	853e                	mv	a0,a5
ffffffc0504003d8:	6422                	ld	s0,8(sp)
ffffffc0504003da:	0141                	addi	sp,sp,16
ffffffc0504003dc:	8082                	ret

ffffffc0504003de <sbi_set_timer>:
ffffffc0504003de:	1101                	addi	sp,sp,-32
ffffffc0504003e0:	ec22                	sd	s0,24(sp)
ffffffc0504003e2:	1000                	addi	s0,sp,32
ffffffc0504003e4:	fea43423          	sd	a0,-24(s0)
ffffffc0504003e8:	fe843503          	ld	a0,-24(s0)
ffffffc0504003ec:	4581                	li	a1,0
ffffffc0504003ee:	4601                	li	a2,0
ffffffc0504003f0:	4881                	li	a7,0
ffffffc0504003f2:	00000073          	ecall
ffffffc0504003f6:	0001                	nop
ffffffc0504003f8:	6462                	ld	s0,24(sp)
ffffffc0504003fa:	6105                	addi	sp,sp,32
ffffffc0504003fc:	8082                	ret

ffffffc0504003fe <sbi_read_fdt>:
ffffffc0504003fe:	1101                	addi	sp,sp,-32
ffffffc050400400:	ec22                	sd	s0,24(sp)
ffffffc050400402:	1000                	addi	s0,sp,32
ffffffc050400404:	87aa                	mv	a5,a0
ffffffc050400406:	fef42623          	sw	a5,-20(s0)
ffffffc05040040a:	fec42783          	lw	a5,-20(s0)
ffffffc05040040e:	853e                	mv	a0,a5
ffffffc050400410:	4581                	li	a1,0
ffffffc050400412:	4601                	li	a2,0
ffffffc050400414:	48b1                	li	a7,12
ffffffc050400416:	00000073          	ecall
ffffffc05040041a:	87aa                	mv	a5,a0
ffffffc05040041c:	2781                	sext.w	a5,a5
ffffffc05040041e:	853e                	mv	a0,a5
ffffffc050400420:	6462                	ld	s0,24(sp)
ffffffc050400422:	6105                	addi	sp,sp,32
ffffffc050400424:	8082                	ret

ffffffc050400426 <local_flush_tlb_all>:
ffffffc050400426:	1141                	addi	sp,sp,-16
ffffffc050400428:	e422                	sd	s0,8(sp)
ffffffc05040042a:	0800                	addi	s0,sp,16
ffffffc05040042c:	12000073          	sfence.vma
ffffffc050400430:	0001                	nop
ffffffc050400432:	6422                	ld	s0,8(sp)
ffffffc050400434:	0141                	addi	sp,sp,16
ffffffc050400436:	8082                	ret

ffffffc050400438 <kva2pa>:
ffffffc050400438:	1101                	addi	sp,sp,-32
ffffffc05040043a:	ec22                	sd	s0,24(sp)
ffffffc05040043c:	1000                	addi	s0,sp,32
ffffffc05040043e:	fea43423          	sd	a0,-24(s0)
ffffffc050400442:	fe843703          	ld	a4,-24(s0)
ffffffc050400446:	4785                	li	a5,1
ffffffc050400448:	179a                	slli	a5,a5,0x26
ffffffc05040044a:	97ba                	add	a5,a5,a4
ffffffc05040044c:	853e                	mv	a0,a5
ffffffc05040044e:	6462                	ld	s0,24(sp)
ffffffc050400450:	6105                	addi	sp,sp,32
ffffffc050400452:	8082                	ret

ffffffc050400454 <pa2kva>:
ffffffc050400454:	1101                	addi	sp,sp,-32
ffffffc050400456:	ec22                	sd	s0,24(sp)
ffffffc050400458:	1000                	addi	s0,sp,32
ffffffc05040045a:	fea43423          	sd	a0,-24(s0)
ffffffc05040045e:	fe843703          	ld	a4,-24(s0)
ffffffc050400462:	57fd                	li	a5,-1
ffffffc050400464:	179a                	slli	a5,a5,0x26
ffffffc050400466:	97ba                	add	a5,a5,a4
ffffffc050400468:	853e                	mv	a0,a5
ffffffc05040046a:	6462                	ld	s0,24(sp)
ffffffc05040046c:	6105                	addi	sp,sp,32
ffffffc05040046e:	8082                	ret

ffffffc050400470 <clear_pgdir>:
ffffffc050400470:	7179                	addi	sp,sp,-48
ffffffc050400472:	f422                	sd	s0,40(sp)
ffffffc050400474:	1800                	addi	s0,sp,48
ffffffc050400476:	fca43c23          	sd	a0,-40(s0)
ffffffc05040047a:	fe043423          	sd	zero,-24(s0)
ffffffc05040047e:	a829                	j	ffffffc050400498 <clear_pgdir+0x28>
ffffffc050400480:	fd843703          	ld	a4,-40(s0)
ffffffc050400484:	fe843783          	ld	a5,-24(s0)
ffffffc050400488:	97ba                	add	a5,a5,a4
ffffffc05040048a:	0007b023          	sd	zero,0(a5)
ffffffc05040048e:	fe843783          	ld	a5,-24(s0)
ffffffc050400492:	07a1                	addi	a5,a5,8
ffffffc050400494:	fef43423          	sd	a5,-24(s0)
ffffffc050400498:	fe843703          	ld	a4,-24(s0)
ffffffc05040049c:	6785                	lui	a5,0x1
ffffffc05040049e:	fef761e3          	bltu	a4,a5,ffffffc050400480 <clear_pgdir+0x10>
ffffffc0504004a2:	0001                	nop
ffffffc0504004a4:	0001                	nop
ffffffc0504004a6:	7422                	ld	s0,40(sp)
ffffffc0504004a8:	6145                	addi	sp,sp,48
ffffffc0504004aa:	8082                	ret

ffffffc0504004ac <is_elf_format>:
ffffffc0504004ac:	7179                	addi	sp,sp,-48
ffffffc0504004ae:	f422                	sd	s0,40(sp)
ffffffc0504004b0:	1800                	addi	s0,sp,48
ffffffc0504004b2:	fca43c23          	sd	a0,-40(s0)
ffffffc0504004b6:	fd843783          	ld	a5,-40(s0)
ffffffc0504004ba:	fef43423          	sd	a5,-24(s0)
ffffffc0504004be:	fe843783          	ld	a5,-24(s0)
ffffffc0504004c2:	0007c783          	lbu	a5,0(a5) # 1000 <_start-0xffffffc0503ff000>
ffffffc0504004c6:	eb9d                	bnez	a5,ffffffc0504004fc <is_elf_format+0x50>
ffffffc0504004c8:	fe843783          	ld	a5,-24(s0)
ffffffc0504004cc:	0017c783          	lbu	a5,1(a5)
ffffffc0504004d0:	873e                	mv	a4,a5
ffffffc0504004d2:	4785                	li	a5,1
ffffffc0504004d4:	02f71463          	bne	a4,a5,ffffffc0504004fc <is_elf_format+0x50>
ffffffc0504004d8:	fe843783          	ld	a5,-24(s0)
ffffffc0504004dc:	0027c783          	lbu	a5,2(a5)
ffffffc0504004e0:	873e                	mv	a4,a5
ffffffc0504004e2:	4789                	li	a5,2
ffffffc0504004e4:	00f71c63          	bne	a4,a5,ffffffc0504004fc <is_elf_format+0x50>
ffffffc0504004e8:	fe843783          	ld	a5,-24(s0)
ffffffc0504004ec:	0037c783          	lbu	a5,3(a5)
ffffffc0504004f0:	873e                	mv	a4,a5
ffffffc0504004f2:	478d                	li	a5,3
ffffffc0504004f4:	00f71463          	bne	a4,a5,ffffffc0504004fc <is_elf_format+0x50>
ffffffc0504004f8:	4781                	li	a5,0
ffffffc0504004fa:	a011                	j	ffffffc0504004fe <is_elf_format+0x52>
ffffffc0504004fc:	4785                	li	a5,1
ffffffc0504004fe:	853e                	mv	a0,a5
ffffffc050400500:	7422                	ld	s0,40(sp)
ffffffc050400502:	6145                	addi	sp,sp,48
ffffffc050400504:	8082                	ret

ffffffc050400506 <load_elf>:
ffffffc050400506:	7159                	addi	sp,sp,-112
ffffffc050400508:	f486                	sd	ra,104(sp)
ffffffc05040050a:	f0a2                	sd	s0,96(sp)
ffffffc05040050c:	1880                	addi	s0,sp,112
ffffffc05040050e:	faa43423          	sd	a0,-88(s0)
ffffffc050400512:	87ae                	mv	a5,a1
ffffffc050400514:	f8c43c23          	sd	a2,-104(s0)
ffffffc050400518:	f8d43823          	sd	a3,-112(s0)
ffffffc05040051c:	faf42223          	sw	a5,-92(s0)
ffffffc050400520:	fa843783          	ld	a5,-88(s0)
ffffffc050400524:	fcf43823          	sd	a5,-48(s0)
ffffffc050400528:	fc043423          	sd	zero,-56(s0)
ffffffc05040052c:	fe043423          	sd	zero,-24(s0)
ffffffc050400530:	fe042023          	sw	zero,-32(s0)
ffffffc050400534:	fa442783          	lw	a5,-92(s0)
ffffffc050400538:	0007871b          	sext.w	a4,a5
ffffffc05040053c:	478d                	li	a5,3
ffffffc05040053e:	00e7f863          	bgeu	a5,a4,ffffffc05040054e <load_elf+0x48>
ffffffc050400542:	fa843503          	ld	a0,-88(s0)
ffffffc050400546:	f67ff0ef          	jal	ra,ffffffc0504004ac <is_elf_format>
ffffffc05040054a:	87aa                	mv	a5,a0
ffffffc05040054c:	e399                	bnez	a5,ffffffc050400552 <load_elf+0x4c>
ffffffc05040054e:	4781                	li	a5,0
ffffffc050400550:	a259                	j	ffffffc0504006d6 <load_elf+0x1d0>
ffffffc050400552:	fd043783          	ld	a5,-48(s0)
ffffffc050400556:	739c                	ld	a5,32(a5)
ffffffc050400558:	fa843703          	ld	a4,-88(s0)
ffffffc05040055c:	97ba                	add	a5,a5,a4
ffffffc05040055e:	fef43423          	sd	a5,-24(s0)
ffffffc050400562:	fd043783          	ld	a5,-48(s0)
ffffffc050400566:	0387d783          	lhu	a5,56(a5)
ffffffc05040056a:	fef41323          	sh	a5,-26(s0)
ffffffc05040056e:	fd043783          	ld	a5,-48(s0)
ffffffc050400572:	0367d783          	lhu	a5,54(a5)
ffffffc050400576:	fcf41323          	sh	a5,-58(s0)
ffffffc05040057a:	a299                	j	ffffffc0504006c0 <load_elf+0x1ba>
ffffffc05040057c:	fe843783          	ld	a5,-24(s0)
ffffffc050400580:	fcf43423          	sd	a5,-56(s0)
ffffffc050400584:	fc843783          	ld	a5,-56(s0)
ffffffc050400588:	439c                	lw	a5,0(a5)
ffffffc05040058a:	873e                	mv	a4,a5
ffffffc05040058c:	4785                	li	a5,1
ffffffc05040058e:	12f71263          	bne	a4,a5,ffffffc0504006b2 <load_elf+0x1ac>
ffffffc050400592:	fe042023          	sw	zero,-32(s0)
ffffffc050400596:	a239                	j	ffffffc0504006a4 <load_elf+0x19e>
ffffffc050400598:	fe042703          	lw	a4,-32(s0)
ffffffc05040059c:	fc843783          	ld	a5,-56(s0)
ffffffc0504005a0:	739c                	ld	a5,32(a5)
ffffffc0504005a2:	0af77463          	bgeu	a4,a5,ffffffc05040064a <load_elf+0x144>
ffffffc0504005a6:	fc843783          	ld	a5,-56(s0)
ffffffc0504005aa:	6b98                	ld	a4,16(a5)
ffffffc0504005ac:	fe042783          	lw	a5,-32(s0)
ffffffc0504005b0:	97ba                	add	a5,a5,a4
ffffffc0504005b2:	f9043703          	ld	a4,-112(s0)
ffffffc0504005b6:	f9843583          	ld	a1,-104(s0)
ffffffc0504005ba:	853e                	mv	a0,a5
ffffffc0504005bc:	9702                	jalr	a4
ffffffc0504005be:	87aa                	mv	a5,a0
ffffffc0504005c0:	faf43823          	sd	a5,-80(s0)
ffffffc0504005c4:	fc843783          	ld	a5,-56(s0)
ffffffc0504005c8:	6798                	ld	a4,8(a5)
ffffffc0504005ca:	fe042783          	lw	a5,-32(s0)
ffffffc0504005ce:	97ba                	add	a5,a5,a4
ffffffc0504005d0:	fa843703          	ld	a4,-88(s0)
ffffffc0504005d4:	00f706b3          	add	a3,a4,a5
ffffffc0504005d8:	fc843783          	ld	a5,-56(s0)
ffffffc0504005dc:	7398                	ld	a4,32(a5)
ffffffc0504005de:	fe042783          	lw	a5,-32(s0)
ffffffc0504005e2:	40f707b3          	sub	a5,a4,a5
ffffffc0504005e6:	6705                	lui	a4,0x1
ffffffc0504005e8:	00f77363          	bgeu	a4,a5,ffffffc0504005ee <load_elf+0xe8>
ffffffc0504005ec:	6785                	lui	a5,0x1
ffffffc0504005ee:	2781                	sext.w	a5,a5
ffffffc0504005f0:	863e                	mv	a2,a5
ffffffc0504005f2:	85b6                	mv	a1,a3
ffffffc0504005f4:	fb043503          	ld	a0,-80(s0)
ffffffc0504005f8:	31a060ef          	jal	ra,ffffffc050406912 <memcpy>
ffffffc0504005fc:	fc843783          	ld	a5,-56(s0)
ffffffc050400600:	7398                	ld	a4,32(a5)
ffffffc050400602:	fe042783          	lw	a5,-32(s0)
ffffffc050400606:	8f1d                	sub	a4,a4,a5
ffffffc050400608:	6785                	lui	a5,0x1
ffffffc05040060a:	08f77663          	bgeu	a4,a5,ffffffc050400696 <load_elf+0x190>
ffffffc05040060e:	fc843783          	ld	a5,-56(s0)
ffffffc050400612:	739c                	ld	a5,32(a5)
ffffffc050400614:	0007871b          	sext.w	a4,a5
ffffffc050400618:	6785                	lui	a5,0x1
ffffffc05040061a:	17fd                	addi	a5,a5,-1
ffffffc05040061c:	8ff9                	and	a5,a5,a4
ffffffc05040061e:	fcf42e23          	sw	a5,-36(s0)
ffffffc050400622:	a829                	j	ffffffc05040063c <load_elf+0x136>
ffffffc050400624:	fdc42783          	lw	a5,-36(s0)
ffffffc050400628:	fb043703          	ld	a4,-80(s0)
ffffffc05040062c:	97ba                	add	a5,a5,a4
ffffffc05040062e:	00078023          	sb	zero,0(a5) # 1000 <_start-0xffffffc0503ff000>
ffffffc050400632:	fdc42783          	lw	a5,-36(s0)
ffffffc050400636:	2785                	addiw	a5,a5,1
ffffffc050400638:	fcf42e23          	sw	a5,-36(s0)
ffffffc05040063c:	fdc42783          	lw	a5,-36(s0)
ffffffc050400640:	873e                	mv	a4,a5
ffffffc050400642:	6785                	lui	a5,0x1
ffffffc050400644:	fef760e3          	bltu	a4,a5,ffffffc050400624 <load_elf+0x11e>
ffffffc050400648:	a0b9                	j	ffffffc050400696 <load_elf+0x190>
ffffffc05040064a:	fc843783          	ld	a5,-56(s0)
ffffffc05040064e:	6b98                	ld	a4,16(a5)
ffffffc050400650:	fe042783          	lw	a5,-32(s0)
ffffffc050400654:	97ba                	add	a5,a5,a4
ffffffc050400656:	f9043703          	ld	a4,-112(s0)
ffffffc05040065a:	f9843583          	ld	a1,-104(s0)
ffffffc05040065e:	853e                	mv	a0,a5
ffffffc050400660:	9702                	jalr	a4
ffffffc050400662:	87aa                	mv	a5,a0
ffffffc050400664:	faf43c23          	sd	a5,-72(s0)
ffffffc050400668:	fc042c23          	sw	zero,-40(s0)
ffffffc05040066c:	a831                	j	ffffffc050400688 <load_elf+0x182>
ffffffc05040066e:	fd842783          	lw	a5,-40(s0)
ffffffc050400672:	078e                	slli	a5,a5,0x3
ffffffc050400674:	fb843703          	ld	a4,-72(s0)
ffffffc050400678:	97ba                	add	a5,a5,a4
ffffffc05040067a:	0007b023          	sd	zero,0(a5) # 1000 <_start-0xffffffc0503ff000>
ffffffc05040067e:	fd842783          	lw	a5,-40(s0)
ffffffc050400682:	2785                	addiw	a5,a5,1
ffffffc050400684:	fcf42c23          	sw	a5,-40(s0)
ffffffc050400688:	fd842783          	lw	a5,-40(s0)
ffffffc05040068c:	873e                	mv	a4,a5
ffffffc05040068e:	1ff00793          	li	a5,511
ffffffc050400692:	fce7fee3          	bgeu	a5,a4,ffffffc05040066e <load_elf+0x168>
ffffffc050400696:	fe042703          	lw	a4,-32(s0)
ffffffc05040069a:	6785                	lui	a5,0x1
ffffffc05040069c:	9fb9                	addw	a5,a5,a4
ffffffc05040069e:	2781                	sext.w	a5,a5
ffffffc0504006a0:	fef42023          	sw	a5,-32(s0)
ffffffc0504006a4:	fe042703          	lw	a4,-32(s0)
ffffffc0504006a8:	fc843783          	ld	a5,-56(s0)
ffffffc0504006ac:	779c                	ld	a5,40(a5)
ffffffc0504006ae:	eef765e3          	bltu	a4,a5,ffffffc050400598 <load_elf+0x92>
ffffffc0504006b2:	fc645783          	lhu	a5,-58(s0)
ffffffc0504006b6:	fe843703          	ld	a4,-24(s0)
ffffffc0504006ba:	97ba                	add	a5,a5,a4
ffffffc0504006bc:	fef43423          	sd	a5,-24(s0)
ffffffc0504006c0:	fe645783          	lhu	a5,-26(s0)
ffffffc0504006c4:	fff7871b          	addiw	a4,a5,-1
ffffffc0504006c8:	fee41323          	sh	a4,-26(s0)
ffffffc0504006cc:	ea0798e3          	bnez	a5,ffffffc05040057c <load_elf+0x76>
ffffffc0504006d0:	fd043783          	ld	a5,-48(s0)
ffffffc0504006d4:	6f9c                	ld	a5,24(a5)
ffffffc0504006d6:	853e                	mv	a0,a5
ffffffc0504006d8:	70a6                	ld	ra,104(sp)
ffffffc0504006da:	7406                	ld	s0,96(sp)
ffffffc0504006dc:	6165                	addi	sp,sp,112
ffffffc0504006de:	8082                	ret

ffffffc0504006e0 <init_pcb_stack>:
ffffffc0504006e0:	711d                	addi	sp,sp,-96
ffffffc0504006e2:	eca2                	sd	s0,88(sp)
ffffffc0504006e4:	1080                	addi	s0,sp,96
ffffffc0504006e6:	fca43423          	sd	a0,-56(s0)
ffffffc0504006ea:	fcb43023          	sd	a1,-64(s0)
ffffffc0504006ee:	fac43c23          	sd	a2,-72(s0)
ffffffc0504006f2:	fad43823          	sd	a3,-80(s0)
ffffffc0504006f6:	faf43023          	sd	a5,-96(s0)
ffffffc0504006fa:	87ba                	mv	a5,a4
ffffffc0504006fc:	faf42623          	sw	a5,-84(s0)
ffffffc050400700:	fc843783          	ld	a5,-56(s0)
ffffffc050400704:	ed878793          	addi	a5,a5,-296 # ed8 <_start-0xffffffc0503ff128>
ffffffc050400708:	fcf43c23          	sd	a5,-40(s0)
ffffffc05040070c:	fe042623          	sw	zero,-20(s0)
ffffffc050400710:	a831                	j	ffffffc05040072c <init_pcb_stack+0x4c>
ffffffc050400712:	fd843703          	ld	a4,-40(s0)
ffffffc050400716:	fec42783          	lw	a5,-20(s0)
ffffffc05040071a:	078e                	slli	a5,a5,0x3
ffffffc05040071c:	97ba                	add	a5,a5,a4
ffffffc05040071e:	0007b023          	sd	zero,0(a5)
ffffffc050400722:	fec42783          	lw	a5,-20(s0)
ffffffc050400726:	2785                	addiw	a5,a5,1
ffffffc050400728:	fef42623          	sw	a5,-20(s0)
ffffffc05040072c:	fec42783          	lw	a5,-20(s0)
ffffffc050400730:	0007871b          	sext.w	a4,a5
ffffffc050400734:	47fd                	li	a5,31
ffffffc050400736:	fce7dee3          	bge	a5,a4,ffffffc050400712 <init_pcb_stack+0x32>
ffffffc05040073a:	fd843783          	ld	a5,-40(s0)
ffffffc05040073e:	fb843703          	ld	a4,-72(s0)
ffffffc050400742:	e798                	sd	a4,8(a5)
ffffffc050400744:	00018713          	mv	a4,gp
ffffffc050400748:	fd843783          	ld	a5,-40(s0)
ffffffc05040074c:	ef98                	sd	a4,24(a5)
ffffffc05040074e:	fb043703          	ld	a4,-80(s0)
ffffffc050400752:	fd843783          	ld	a5,-40(s0)
ffffffc050400756:	f398                	sd	a4,32(a5)
ffffffc050400758:	fac42703          	lw	a4,-84(s0)
ffffffc05040075c:	fd843783          	ld	a5,-40(s0)
ffffffc050400760:	ebb8                	sd	a4,80(a5)
ffffffc050400762:	fa043703          	ld	a4,-96(s0)
ffffffc050400766:	fd843783          	ld	a5,-40(s0)
ffffffc05040076a:	efb8                	sd	a4,88(a5)
ffffffc05040076c:	fd843783          	ld	a5,-40(s0)
ffffffc050400770:	fb843703          	ld	a4,-72(s0)
ffffffc050400774:	10e7b423          	sd	a4,264(a5)
ffffffc050400778:	fd843783          	ld	a5,-40(s0)
ffffffc05040077c:	1007bc23          	sd	zero,280(a5)
ffffffc050400780:	fd843783          	ld	a5,-40(s0)
ffffffc050400784:	1007b823          	sd	zero,272(a5)
ffffffc050400788:	fd843783          	ld	a5,-40(s0)
ffffffc05040078c:	1207b023          	sd	zero,288(a5)
ffffffc050400790:	fb043783          	ld	a5,-80(s0)
ffffffc050400794:	57dc                	lw	a5,44(a5)
ffffffc050400796:	873e                	mv	a4,a5
ffffffc050400798:	4789                	li	a5,2
ffffffc05040079a:	00f70963          	beq	a4,a5,ffffffc0504007ac <init_pcb_stack+0xcc>
ffffffc05040079e:	fb043783          	ld	a5,-80(s0)
ffffffc0504007a2:	57dc                	lw	a5,44(a5)
ffffffc0504007a4:	873e                	mv	a4,a5
ffffffc0504007a6:	478d                	li	a5,3
ffffffc0504007a8:	00f71c63          	bne	a4,a5,ffffffc0504007c0 <init_pcb_stack+0xe0>
ffffffc0504007ac:	fd843783          	ld	a5,-40(s0)
ffffffc0504007b0:	fc043703          	ld	a4,-64(s0)
ffffffc0504007b4:	eb98                	sd	a4,16(a5)
ffffffc0504007b6:	fd843783          	ld	a5,-40(s0)
ffffffc0504007ba:	1007b023          	sd	zero,256(a5)
ffffffc0504007be:	a015                	j	ffffffc0504007e2 <init_pcb_stack+0x102>
ffffffc0504007c0:	fc843783          	ld	a5,-56(s0)
ffffffc0504007c4:	e6878713          	addi	a4,a5,-408
ffffffc0504007c8:	fd843783          	ld	a5,-40(s0)
ffffffc0504007cc:	eb98                	sd	a4,16(a5)
ffffffc0504007ce:	fd843783          	ld	a5,-40(s0)
ffffffc0504007d2:	1007b783          	ld	a5,256(a5)
ffffffc0504007d6:	1207e713          	ori	a4,a5,288
ffffffc0504007da:	fd843783          	ld	a5,-40(s0)
ffffffc0504007de:	10e7b023          	sd	a4,256(a5)
ffffffc0504007e2:	fc843783          	ld	a5,-56(s0)
ffffffc0504007e6:	e6878713          	addi	a4,a5,-408
ffffffc0504007ea:	fb043783          	ld	a5,-80(s0)
ffffffc0504007ee:	e398                	sd	a4,0(a5)
ffffffc0504007f0:	fb043783          	ld	a5,-80(s0)
ffffffc0504007f4:	639c                	ld	a5,0(a5)
ffffffc0504007f6:	fcf43823          	sd	a5,-48(s0)
ffffffc0504007fa:	fb043783          	ld	a5,-80(s0)
ffffffc0504007fe:	57dc                	lw	a5,44(a5)
ffffffc050400800:	873e                	mv	a4,a5
ffffffc050400802:	4789                	li	a5,2
ffffffc050400804:	00f70963          	beq	a4,a5,ffffffc050400816 <init_pcb_stack+0x136>
ffffffc050400808:	fb043783          	ld	a5,-80(s0)
ffffffc05040080c:	57dc                	lw	a5,44(a5)
ffffffc05040080e:	873e                	mv	a4,a5
ffffffc050400810:	478d                	li	a5,3
ffffffc050400812:	00f71a63          	bne	a4,a5,ffffffc050400826 <init_pcb_stack+0x146>
ffffffc050400816:	00000717          	auipc	a4,0x0
ffffffc05040081a:	94670713          	addi	a4,a4,-1722 # ffffffc05040015c <ret_from_exception>
ffffffc05040081e:	fd043783          	ld	a5,-48(s0)
ffffffc050400822:	e398                	sd	a4,0(a5)
ffffffc050400824:	a031                	j	ffffffc050400830 <init_pcb_stack+0x150>
ffffffc050400826:	fd043783          	ld	a5,-48(s0)
ffffffc05040082a:	fb843703          	ld	a4,-72(s0)
ffffffc05040082e:	e398                	sd	a4,0(a5)
ffffffc050400830:	fb043783          	ld	a5,-80(s0)
ffffffc050400834:	6398                	ld	a4,0(a5)
ffffffc050400836:	fd043783          	ld	a5,-48(s0)
ffffffc05040083a:	e798                	sd	a4,8(a5)
ffffffc05040083c:	4789                	li	a5,2
ffffffc05040083e:	fef42423          	sw	a5,-24(s0)
ffffffc050400842:	a035                	j	ffffffc05040086e <init_pcb_stack+0x18e>
ffffffc050400844:	fe842783          	lw	a5,-24(s0)
ffffffc050400848:	279d                	addiw	a5,a5,7
ffffffc05040084a:	2781                	sext.w	a5,a5
ffffffc05040084c:	fd843703          	ld	a4,-40(s0)
ffffffc050400850:	078e                	slli	a5,a5,0x3
ffffffc050400852:	97ba                	add	a5,a5,a4
ffffffc050400854:	6398                	ld	a4,0(a5)
ffffffc050400856:	fd043683          	ld	a3,-48(s0)
ffffffc05040085a:	fe842783          	lw	a5,-24(s0)
ffffffc05040085e:	078e                	slli	a5,a5,0x3
ffffffc050400860:	97b6                	add	a5,a5,a3
ffffffc050400862:	e398                	sd	a4,0(a5)
ffffffc050400864:	fe842783          	lw	a5,-24(s0)
ffffffc050400868:	2785                	addiw	a5,a5,1
ffffffc05040086a:	fef42423          	sw	a5,-24(s0)
ffffffc05040086e:	fe842783          	lw	a5,-24(s0)
ffffffc050400872:	0007871b          	sext.w	a4,a5
ffffffc050400876:	478d                	li	a5,3
ffffffc050400878:	fce7d6e3          	bge	a5,a4,ffffffc050400844 <init_pcb_stack+0x164>
ffffffc05040087c:	4791                	li	a5,4
ffffffc05040087e:	fef42223          	sw	a5,-28(s0)
ffffffc050400882:	a035                	j	ffffffc0504008ae <init_pcb_stack+0x1ce>
ffffffc050400884:	fe442783          	lw	a5,-28(s0)
ffffffc050400888:	27bd                	addiw	a5,a5,15
ffffffc05040088a:	2781                	sext.w	a5,a5
ffffffc05040088c:	fd843703          	ld	a4,-40(s0)
ffffffc050400890:	078e                	slli	a5,a5,0x3
ffffffc050400892:	97ba                	add	a5,a5,a4
ffffffc050400894:	6398                	ld	a4,0(a5)
ffffffc050400896:	fd043683          	ld	a3,-48(s0)
ffffffc05040089a:	fe442783          	lw	a5,-28(s0)
ffffffc05040089e:	078e                	slli	a5,a5,0x3
ffffffc0504008a0:	97b6                	add	a5,a5,a3
ffffffc0504008a2:	e398                	sd	a4,0(a5)
ffffffc0504008a4:	fe442783          	lw	a5,-28(s0)
ffffffc0504008a8:	2785                	addiw	a5,a5,1
ffffffc0504008aa:	fef42223          	sw	a5,-28(s0)
ffffffc0504008ae:	fe442783          	lw	a5,-28(s0)
ffffffc0504008b2:	0007871b          	sext.w	a4,a5
ffffffc0504008b6:	47b5                	li	a5,13
ffffffc0504008b8:	fce7d6e3          	bge	a5,a4,ffffffc050400884 <init_pcb_stack+0x1a4>
ffffffc0504008bc:	0001                	nop
ffffffc0504008be:	0001                	nop
ffffffc0504008c0:	6466                	ld	s0,88(sp)
ffffffc0504008c2:	6125                	addi	sp,sp,96
ffffffc0504008c4:	8082                	ret

ffffffc0504008c6 <init_pcb_stack_pointer>:
ffffffc0504008c6:	7139                	addi	sp,sp,-64
ffffffc0504008c8:	fc06                	sd	ra,56(sp)
ffffffc0504008ca:	f822                	sd	s0,48(sp)
ffffffc0504008cc:	f426                	sd	s1,40(sp)
ffffffc0504008ce:	0080                	addi	s0,sp,64
ffffffc0504008d0:	fca43423          	sd	a0,-56(s0)
ffffffc0504008d4:	544050ef          	jal	ra,ffffffc050405e18 <allocPage>
ffffffc0504008d8:	872a                	mv	a4,a0
ffffffc0504008da:	77fd                	lui	a5,0xfffff
ffffffc0504008dc:	97ba                	add	a5,a5,a4
ffffffc0504008de:	873e                	mv	a4,a5
ffffffc0504008e0:	fc843783          	ld	a5,-56(s0)
ffffffc0504008e4:	1ae7b423          	sd	a4,424(a5) # fffffffffffff1a8 <__BSS_END__+0x3fafbaa970>
ffffffc0504008e8:	fc843783          	ld	a5,-56(s0)
ffffffc0504008ec:	1a87b783          	ld	a5,424(a5)
ffffffc0504008f0:	853e                	mv	a0,a5
ffffffc0504008f2:	b7fff0ef          	jal	ra,ffffffc050400470 <clear_pgdir>
ffffffc0504008f6:	fc843783          	ld	a5,-56(s0)
ffffffc0504008fa:	1a87b483          	ld	s1,424(a5)
ffffffc0504008fe:	5e000537          	lui	a0,0x5e000
ffffffc050400902:	b53ff0ef          	jal	ra,ffffffc050400454 <pa2kva>
ffffffc050400906:	87aa                	mv	a5,a0
ffffffc050400908:	6605                	lui	a2,0x1
ffffffc05040090a:	85be                	mv	a1,a5
ffffffc05040090c:	8526                	mv	a0,s1
ffffffc05040090e:	004060ef          	jal	ra,ffffffc050406912 <memcpy>
ffffffc050400912:	fc843783          	ld	a5,-56(s0)
ffffffc050400916:	00f00737          	lui	a4,0xf00
ffffffc05040091a:	0745                	addi	a4,a4,17
ffffffc05040091c:	0732                	slli	a4,a4,0xc
ffffffc05040091e:	e798                	sd	a4,8(a5)
ffffffc050400920:	fc843783          	ld	a5,-56(s0)
ffffffc050400924:	1a87b783          	ld	a5,424(a5)
ffffffc050400928:	4681                	li	a3,0
ffffffc05040092a:	4605                	li	a2,1
ffffffc05040092c:	85be                	mv	a1,a5
ffffffc05040092e:	000f07b7          	lui	a5,0xf0
ffffffc050400932:	0785                	addi	a5,a5,1
ffffffc050400934:	01079513          	slli	a0,a5,0x10
ffffffc050400938:	397050ef          	jal	ra,ffffffc0504064ce <alloc_page_helper>
ffffffc05040093c:	872a                	mv	a4,a0
ffffffc05040093e:	fc843783          	ld	a5,-56(s0)
ffffffc050400942:	eb98                	sd	a4,16(a5)
ffffffc050400944:	fc843783          	ld	a5,-56(s0)
ffffffc050400948:	6b98                	ld	a4,16(a5)
ffffffc05040094a:	77fd                	lui	a5,0xfffff
ffffffc05040094c:	0785                	addi	a5,a5,1
ffffffc05040094e:	973e                	add	a4,a4,a5
ffffffc050400950:	fc843783          	ld	a5,-56(s0)
ffffffc050400954:	f398                	sd	a4,32(a5)
ffffffc050400956:	fc843783          	ld	a5,-56(s0)
ffffffc05040095a:	6b9c                	ld	a5,16(a5)
ffffffc05040095c:	f007f713          	andi	a4,a5,-256
ffffffc050400960:	fc843783          	ld	a5,-56(s0)
ffffffc050400964:	eb98                	sd	a4,16(a5)
ffffffc050400966:	fc843783          	ld	a5,-56(s0)
ffffffc05040096a:	1a87b783          	ld	a5,424(a5) # fffffffffffff1a8 <__BSS_END__+0x3fafbaa970>
ffffffc05040096e:	4681                	li	a3,0
ffffffc050400970:	4601                	li	a2,0
ffffffc050400972:	85be                	mv	a1,a5
ffffffc050400974:	57fd                	li	a5,-1
ffffffc050400976:	02679513          	slli	a0,a5,0x26
ffffffc05040097a:	355050ef          	jal	ra,ffffffc0504064ce <alloc_page_helper>
ffffffc05040097e:	872a                	mv	a4,a0
ffffffc050400980:	fc843783          	ld	a5,-56(s0)
ffffffc050400984:	e398                	sd	a4,0(a5)
ffffffc050400986:	fc843783          	ld	a5,-56(s0)
ffffffc05040098a:	6398                	ld	a4,0(a5)
ffffffc05040098c:	77fd                	lui	a5,0xfffff
ffffffc05040098e:	0785                	addi	a5,a5,1
ffffffc050400990:	973e                	add	a4,a4,a5
ffffffc050400992:	fc843783          	ld	a5,-56(s0)
ffffffc050400996:	ef98                	sd	a4,24(a5)
ffffffc050400998:	fc843783          	ld	a5,-56(s0)
ffffffc05040099c:	639c                	ld	a5,0(a5)
ffffffc05040099e:	f007f713          	andi	a4,a5,-256
ffffffc0504009a2:	fc843783          	ld	a5,-56(s0)
ffffffc0504009a6:	e398                	sd	a4,0(a5)
ffffffc0504009a8:	fc843783          	ld	a5,-56(s0)
ffffffc0504009ac:	1b078793          	addi	a5,a5,432 # fffffffffffff1b0 <__BSS_END__+0x3fafbaa978>
ffffffc0504009b0:	853e                	mv	a0,a5
ffffffc0504009b2:	979ff0ef          	jal	ra,ffffffc05040032a <init_list_head>
ffffffc0504009b6:	fc843783          	ld	a5,-56(s0)
ffffffc0504009ba:	1c078793          	addi	a5,a5,448
ffffffc0504009be:	853e                	mv	a0,a5
ffffffc0504009c0:	96bff0ef          	jal	ra,ffffffc05040032a <init_list_head>
ffffffc0504009c4:	03000513          	li	a0,48
ffffffc0504009c8:	508050ef          	jal	ra,ffffffc050405ed0 <kmalloc>
ffffffc0504009cc:	fca43c23          	sd	a0,-40(s0)
ffffffc0504009d0:	03000513          	li	a0,48
ffffffc0504009d4:	4fc050ef          	jal	ra,ffffffc050405ed0 <kmalloc>
ffffffc0504009d8:	fca43823          	sd	a0,-48(s0)
ffffffc0504009dc:	fc843783          	ld	a5,-56(s0)
ffffffc0504009e0:	6f9c                	ld	a5,24(a5)
ffffffc0504009e2:	853e                	mv	a0,a5
ffffffc0504009e4:	a55ff0ef          	jal	ra,ffffffc050400438 <kva2pa>
ffffffc0504009e8:	872a                	mv	a4,a0
ffffffc0504009ea:	fd843783          	ld	a5,-40(s0)
ffffffc0504009ee:	e398                	sd	a4,0(a5)
ffffffc0504009f0:	fc843783          	ld	a5,-56(s0)
ffffffc0504009f4:	6f98                	ld	a4,24(a5)
ffffffc0504009f6:	fd843783          	ld	a5,-40(s0)
ffffffc0504009fa:	e798                	sd	a4,8(a5)
ffffffc0504009fc:	fd843783          	ld	a5,-40(s0)
ffffffc050400a00:	4705                	li	a4,1
ffffffc050400a02:	cb98                	sw	a4,16(a5)
ffffffc050400a04:	fc843783          	ld	a5,-56(s0)
ffffffc050400a08:	739c                	ld	a5,32(a5)
ffffffc050400a0a:	853e                	mv	a0,a5
ffffffc050400a0c:	a2dff0ef          	jal	ra,ffffffc050400438 <kva2pa>
ffffffc050400a10:	872a                	mv	a4,a0
ffffffc050400a12:	fd043783          	ld	a5,-48(s0)
ffffffc050400a16:	e398                	sd	a4,0(a5)
ffffffc050400a18:	fc843783          	ld	a5,-56(s0)
ffffffc050400a1c:	7398                	ld	a4,32(a5)
ffffffc050400a1e:	fd043783          	ld	a5,-48(s0)
ffffffc050400a22:	e798                	sd	a4,8(a5)
ffffffc050400a24:	fd043783          	ld	a5,-48(s0)
ffffffc050400a28:	4705                	li	a4,1
ffffffc050400a2a:	cb98                	sw	a4,16(a5)
ffffffc050400a2c:	fd843783          	ld	a5,-40(s0)
ffffffc050400a30:	02078713          	addi	a4,a5,32
ffffffc050400a34:	fc843783          	ld	a5,-56(s0)
ffffffc050400a38:	1b078793          	addi	a5,a5,432
ffffffc050400a3c:	85be                	mv	a1,a5
ffffffc050400a3e:	853a                	mv	a0,a4
ffffffc050400a40:	953ff0ef          	jal	ra,ffffffc050400392 <list_add_tail>
ffffffc050400a44:	fd043783          	ld	a5,-48(s0)
ffffffc050400a48:	02078713          	addi	a4,a5,32
ffffffc050400a4c:	fc843783          	ld	a5,-56(s0)
ffffffc050400a50:	1c078793          	addi	a5,a5,448
ffffffc050400a54:	85be                	mv	a1,a5
ffffffc050400a56:	853a                	mv	a0,a4
ffffffc050400a58:	93bff0ef          	jal	ra,ffffffc050400392 <list_add_tail>
ffffffc050400a5c:	0001                	nop
ffffffc050400a5e:	70e2                	ld	ra,56(sp)
ffffffc050400a60:	7442                	ld	s0,48(sp)
ffffffc050400a62:	74a2                	ld	s1,40(sp)
ffffffc050400a64:	6121                	addi	sp,sp,64
ffffffc050400a66:	8082                	ret

ffffffc050400a68 <init_pcb_block>:
ffffffc050400a68:	7179                	addi	sp,sp,-48
ffffffc050400a6a:	f406                	sd	ra,40(sp)
ffffffc050400a6c:	f022                	sd	s0,32(sp)
ffffffc050400a6e:	1800                	addi	s0,sp,48
ffffffc050400a70:	fca43c23          	sd	a0,-40(s0)
ffffffc050400a74:	fd843503          	ld	a0,-40(s0)
ffffffc050400a78:	e4fff0ef          	jal	ra,ffffffc0504008c6 <init_pcb_stack_pointer>
ffffffc050400a7c:	fd843783          	ld	a5,-40(s0)
ffffffc050400a80:	470d                	li	a4,3
ffffffc050400a82:	d7d8                	sw	a4,44(a5)
ffffffc050400a84:	6bd040ef          	jal	ra,ffffffc050405940 <get_ticks>
ffffffc050400a88:	87aa                	mv	a5,a0
ffffffc050400a8a:	fef42623          	sw	a5,-20(s0)
ffffffc050400a8e:	fd843783          	ld	a5,-40(s0)
ffffffc050400a92:	0407b823          	sd	zero,80(a5)
ffffffc050400a96:	fd843783          	ld	a5,-40(s0)
ffffffc050400a9a:	05878793          	addi	a5,a5,88
ffffffc050400a9e:	853e                	mv	a0,a5
ffffffc050400aa0:	88bff0ef          	jal	ra,ffffffc05040032a <init_list_head>
ffffffc050400aa4:	fd843783          	ld	a5,-40(s0)
ffffffc050400aa8:	0607b423          	sd	zero,104(a5)
ffffffc050400aac:	fd843783          	ld	a5,-40(s0)
ffffffc050400ab0:	1407a423          	sw	zero,328(a5)
ffffffc050400ab4:	fd843783          	ld	a5,-40(s0)
ffffffc050400ab8:	1807ae23          	sw	zero,412(a5)
ffffffc050400abc:	fd843783          	ld	a5,-40(s0)
ffffffc050400ac0:	4709                	li	a4,2
ffffffc050400ac2:	db98                	sw	a4,48(a5)
ffffffc050400ac4:	fd843783          	ld	a5,-40(s0)
ffffffc050400ac8:	0207ac23          	sw	zero,56(a5)
ffffffc050400acc:	fd843783          	ld	a5,-40(s0)
ffffffc050400ad0:	0207ae23          	sw	zero,60(a5)
ffffffc050400ad4:	fd843783          	ld	a5,-40(s0)
ffffffc050400ad8:	0807a023          	sw	zero,128(a5)
ffffffc050400adc:	fd843783          	ld	a5,-40(s0)
ffffffc050400ae0:	0407b023          	sd	zero,64(a5)
ffffffc050400ae4:	fec42703          	lw	a4,-20(s0)
ffffffc050400ae8:	fd843783          	ld	a5,-40(s0)
ffffffc050400aec:	e7b8                	sd	a4,72(a5)
ffffffc050400aee:	0001                	nop
ffffffc050400af0:	70a2                	ld	ra,40(sp)
ffffffc050400af2:	7402                	ld	s0,32(sp)
ffffffc050400af4:	6145                	addi	sp,sp,48
ffffffc050400af6:	8082                	ret

ffffffc050400af8 <init_pcb>:
ffffffc050400af8:	715d                	addi	sp,sp,-80
ffffffc050400afa:	e486                	sd	ra,72(sp)
ffffffc050400afc:	e0a2                	sd	s0,64(sp)
ffffffc050400afe:	0880                	addi	s0,sp,80
ffffffc050400b00:	87aa                	mv	a5,a0
ffffffc050400b02:	faf42e23          	sw	a5,-68(s0)
ffffffc050400b06:	fbc42783          	lw	a5,-68(s0)
ffffffc050400b0a:	2781                	sext.w	a5,a5
ffffffc050400b0c:	0e079563          	bnez	a5,ffffffc050400bf6 <init_pcb+0xfe>
ffffffc050400b10:	00007517          	auipc	a0,0x7
ffffffc050400b14:	52850513          	addi	a0,a0,1320 # ffffffc050408038 <ready_queue>
ffffffc050400b18:	813ff0ef          	jal	ra,ffffffc05040032a <init_list_head>
ffffffc050400b1c:	6789                	lui	a5,0x2
ffffffc050400b1e:	d0078613          	addi	a2,a5,-768 # 1d00 <_start-0xffffffc0503fe300>
ffffffc050400b22:	4581                	li	a1,0
ffffffc050400b24:	00051517          	auipc	a0,0x51
ffffffc050400b28:	4fc50513          	addi	a0,a0,1276 # ffffffc050452020 <pcb>
ffffffc050400b2c:	639050ef          	jal	ra,ffffffc050406964 <memset>
ffffffc050400b30:	00051517          	auipc	a0,0x51
ffffffc050400b34:	4f050513          	addi	a0,a0,1264 # ffffffc050452020 <pcb>
ffffffc050400b38:	f31ff0ef          	jal	ra,ffffffc050400a68 <init_pcb_block>
ffffffc050400b3c:	84018793          	addi	a5,gp,-1984 # ffffffc05044c9e8 <_length___test_test_shell_elf>
ffffffc050400b40:	439c                	lw	a5,0(a5)
ffffffc050400b42:	0007871b          	sext.w	a4,a5
ffffffc050400b46:	00051797          	auipc	a5,0x51
ffffffc050400b4a:	4da78793          	addi	a5,a5,1242 # ffffffc050452020 <pcb>
ffffffc050400b4e:	1a87b783          	ld	a5,424(a5)
ffffffc050400b52:	00006697          	auipc	a3,0x6
ffffffc050400b56:	b7a68693          	addi	a3,a3,-1158 # ffffffc0504066cc <alloc_page_helper_user>
ffffffc050400b5a:	863e                	mv	a2,a5
ffffffc050400b5c:	85ba                	mv	a1,a4
ffffffc050400b5e:	00007517          	auipc	a0,0x7
ffffffc050400b62:	51a50513          	addi	a0,a0,1306 # ffffffc050408078 <_elf___test_test_shell_elf>
ffffffc050400b66:	9a1ff0ef          	jal	ra,ffffffc050400506 <load_elf>
ffffffc050400b6a:	fca43823          	sd	a0,-48(s0)
ffffffc050400b6e:	00051797          	auipc	a5,0x51
ffffffc050400b72:	4b278793          	addi	a5,a5,1202 # ffffffc050452020 <pcb>
ffffffc050400b76:	4705                	li	a4,1
ffffffc050400b78:	d798                	sw	a4,40(a5)
ffffffc050400b7a:	00051797          	auipc	a5,0x51
ffffffc050400b7e:	4a678793          	addi	a5,a5,1190 # ffffffc050452020 <pcb>
ffffffc050400b82:	470d                	li	a4,3
ffffffc050400b84:	1ae7a023          	sw	a4,416(a5)
ffffffc050400b88:	00051797          	auipc	a5,0x51
ffffffc050400b8c:	49878793          	addi	a5,a5,1176 # ffffffc050452020 <pcb>
ffffffc050400b90:	6388                	ld	a0,0(a5)
ffffffc050400b92:	00051797          	auipc	a5,0x51
ffffffc050400b96:	48e78793          	addi	a5,a5,1166 # ffffffc050452020 <pcb>
ffffffc050400b9a:	678c                	ld	a1,8(a5)
ffffffc050400b9c:	4781                	li	a5,0
ffffffc050400b9e:	4701                	li	a4,0
ffffffc050400ba0:	00051697          	auipc	a3,0x51
ffffffc050400ba4:	48068693          	addi	a3,a3,1152 # ffffffc050452020 <pcb>
ffffffc050400ba8:	fd043603          	ld	a2,-48(s0)
ffffffc050400bac:	b35ff0ef          	jal	ra,ffffffc0504006e0 <init_pcb_stack>
ffffffc050400bb0:	00007597          	auipc	a1,0x7
ffffffc050400bb4:	48858593          	addi	a1,a1,1160 # ffffffc050408038 <ready_queue>
ffffffc050400bb8:	00051517          	auipc	a0,0x51
ffffffc050400bbc:	4c050513          	addi	a0,a0,1216 # ffffffc050452078 <pcb+0x58>
ffffffc050400bc0:	fd2ff0ef          	jal	ra,ffffffc050400392 <list_add_tail>
ffffffc050400bc4:	00007797          	auipc	a5,0x7
ffffffc050400bc8:	0d478793          	addi	a5,a5,212 # ffffffc050407c98 <pid0_pcb_core_m>
ffffffc050400bcc:	639c                	ld	a5,0(a5)
ffffffc050400bce:	fcf43423          	sd	a5,-56(s0)
ffffffc050400bd2:	00007797          	auipc	a5,0x7
ffffffc050400bd6:	0c678793          	addi	a5,a5,198 # ffffffc050407c98 <pid0_pcb_core_m>
ffffffc050400bda:	6398                	ld	a4,0(a5)
ffffffc050400bdc:	fc843783          	ld	a5,-56(s0)
ffffffc050400be0:	e798                	sd	a4,8(a5)
ffffffc050400be2:	00051797          	auipc	a5,0x51
ffffffc050400be6:	43678793          	addi	a5,a5,1078 # ffffffc050452018 <current_running_core_m>
ffffffc050400bea:	00007717          	auipc	a4,0x7
ffffffc050400bee:	0ae70713          	addi	a4,a4,174 # ffffffc050407c98 <pid0_pcb_core_m>
ffffffc050400bf2:	e398                	sd	a4,0(a5)
ffffffc050400bf4:	a0dd                	j	ffffffc050400cda <init_pcb+0x1e2>
ffffffc050400bf6:	00051517          	auipc	a0,0x51
ffffffc050400bfa:	24250513          	addi	a0,a0,578 # ffffffc050451e38 <bubble_pcb>
ffffffc050400bfe:	e6bff0ef          	jal	ra,ffffffc050400a68 <init_pcb_block>
ffffffc050400c02:	00007517          	auipc	a0,0x7
ffffffc050400c06:	93e50513          	addi	a0,a0,-1730 # ffffffc050407540 <match_elf+0x64>
ffffffc050400c0a:	0d3060ef          	jal	ra,ffffffc0504074dc <match_elf>
ffffffc050400c0e:	87aa                	mv	a5,a0
ffffffc050400c10:	fef42623          	sw	a5,-20(s0)
ffffffc050400c14:	0004c697          	auipc	a3,0x4c
ffffffc050400c18:	cec68693          	addi	a3,a3,-788 # ffffffc05044c900 <elf_files>
ffffffc050400c1c:	fec42703          	lw	a4,-20(s0)
ffffffc050400c20:	87ba                	mv	a5,a4
ffffffc050400c22:	0786                	slli	a5,a5,0x1
ffffffc050400c24:	97ba                	add	a5,a5,a4
ffffffc050400c26:	078e                	slli	a5,a5,0x3
ffffffc050400c28:	97b6                	add	a5,a5,a3
ffffffc050400c2a:	6788                	ld	a0,8(a5)
ffffffc050400c2c:	0004c697          	auipc	a3,0x4c
ffffffc050400c30:	cd468693          	addi	a3,a3,-812 # ffffffc05044c900 <elf_files>
ffffffc050400c34:	fec42703          	lw	a4,-20(s0)
ffffffc050400c38:	87ba                	mv	a5,a4
ffffffc050400c3a:	0786                	slli	a5,a5,0x1
ffffffc050400c3c:	97ba                	add	a5,a5,a4
ffffffc050400c3e:	078e                	slli	a5,a5,0x3
ffffffc050400c40:	97b6                	add	a5,a5,a3
ffffffc050400c42:	6b9c                	ld	a5,16(a5)
ffffffc050400c44:	0007871b          	sext.w	a4,a5
ffffffc050400c48:	00051797          	auipc	a5,0x51
ffffffc050400c4c:	1f078793          	addi	a5,a5,496 # ffffffc050451e38 <bubble_pcb>
ffffffc050400c50:	1a87b783          	ld	a5,424(a5)
ffffffc050400c54:	00006697          	auipc	a3,0x6
ffffffc050400c58:	a7868693          	addi	a3,a3,-1416 # ffffffc0504066cc <alloc_page_helper_user>
ffffffc050400c5c:	863e                	mv	a2,a5
ffffffc050400c5e:	85ba                	mv	a1,a4
ffffffc050400c60:	8a7ff0ef          	jal	ra,ffffffc050400506 <load_elf>
ffffffc050400c64:	fea43023          	sd	a0,-32(s0)
ffffffc050400c68:	00051797          	auipc	a5,0x51
ffffffc050400c6c:	1d078793          	addi	a5,a5,464 # ffffffc050451e38 <bubble_pcb>
ffffffc050400c70:	577d                	li	a4,-1
ffffffc050400c72:	d798                	sw	a4,40(a5)
ffffffc050400c74:	00051797          	auipc	a5,0x51
ffffffc050400c78:	1c478793          	addi	a5,a5,452 # ffffffc050451e38 <bubble_pcb>
ffffffc050400c7c:	470d                	li	a4,3
ffffffc050400c7e:	1ae7a023          	sw	a4,416(a5)
ffffffc050400c82:	00051797          	auipc	a5,0x51
ffffffc050400c86:	1b678793          	addi	a5,a5,438 # ffffffc050451e38 <bubble_pcb>
ffffffc050400c8a:	6388                	ld	a0,0(a5)
ffffffc050400c8c:	00051797          	auipc	a5,0x51
ffffffc050400c90:	1ac78793          	addi	a5,a5,428 # ffffffc050451e38 <bubble_pcb>
ffffffc050400c94:	678c                	ld	a1,8(a5)
ffffffc050400c96:	4781                	li	a5,0
ffffffc050400c98:	4701                	li	a4,0
ffffffc050400c9a:	00051697          	auipc	a3,0x51
ffffffc050400c9e:	19e68693          	addi	a3,a3,414 # ffffffc050451e38 <bubble_pcb>
ffffffc050400ca2:	fe043603          	ld	a2,-32(s0)
ffffffc050400ca6:	a3bff0ef          	jal	ra,ffffffc0504006e0 <init_pcb_stack>
ffffffc050400caa:	00007797          	auipc	a5,0x7
ffffffc050400cae:	1be78793          	addi	a5,a5,446 # ffffffc050407e68 <pid0_pcb_core_s>
ffffffc050400cb2:	639c                	ld	a5,0(a5)
ffffffc050400cb4:	fcf43c23          	sd	a5,-40(s0)
ffffffc050400cb8:	00007797          	auipc	a5,0x7
ffffffc050400cbc:	1b078793          	addi	a5,a5,432 # ffffffc050407e68 <pid0_pcb_core_s>
ffffffc050400cc0:	6398                	ld	a4,0(a5)
ffffffc050400cc2:	fd843783          	ld	a5,-40(s0)
ffffffc050400cc6:	e798                	sd	a4,8(a5)
ffffffc050400cc8:	00053797          	auipc	a5,0x53
ffffffc050400ccc:	06078793          	addi	a5,a5,96 # ffffffc050453d28 <current_running_core_s>
ffffffc050400cd0:	00007717          	auipc	a4,0x7
ffffffc050400cd4:	19870713          	addi	a4,a4,408 # ffffffc050407e68 <pid0_pcb_core_s>
ffffffc050400cd8:	e398                	sd	a4,0(a5)
ffffffc050400cda:	0001                	nop
ffffffc050400cdc:	60a6                	ld	ra,72(sp)
ffffffc050400cde:	6406                	ld	s0,64(sp)
ffffffc050400ce0:	6161                	addi	sp,sp,80
ffffffc050400ce2:	8082                	ret

ffffffc050400ce4 <init_syscall>:
ffffffc050400ce4:	1101                	addi	sp,sp,-32
ffffffc050400ce6:	ec22                	sd	s0,24(sp)
ffffffc050400ce8:	1000                	addi	s0,sp,32
ffffffc050400cea:	fe042623          	sw	zero,-20(s0)
ffffffc050400cee:	a01d                	j	ffffffc050400d14 <init_syscall+0x30>
ffffffc050400cf0:	00054717          	auipc	a4,0x54
ffffffc050400cf4:	94870713          	addi	a4,a4,-1720 # ffffffc050454638 <syscall>
ffffffc050400cf8:	fec42783          	lw	a5,-20(s0)
ffffffc050400cfc:	078e                	slli	a5,a5,0x3
ffffffc050400cfe:	97ba                	add	a5,a5,a4
ffffffc050400d00:	00000717          	auipc	a4,0x0
ffffffc050400d04:	6b270713          	addi	a4,a4,1714 # ffffffc0504013b2 <unknown_syscall>
ffffffc050400d08:	e398                	sd	a4,0(a5)
ffffffc050400d0a:	fec42783          	lw	a5,-20(s0)
ffffffc050400d0e:	2785                	addiw	a5,a5,1
ffffffc050400d10:	fef42623          	sw	a5,-20(s0)
ffffffc050400d14:	fec42783          	lw	a5,-20(s0)
ffffffc050400d18:	0007871b          	sext.w	a4,a5
ffffffc050400d1c:	03f00793          	li	a5,63
ffffffc050400d20:	fce7d8e3          	bge	a5,a4,ffffffc050400cf0 <init_syscall+0xc>
ffffffc050400d24:	00054797          	auipc	a5,0x54
ffffffc050400d28:	91478793          	addi	a5,a5,-1772 # ffffffc050454638 <syscall>
ffffffc050400d2c:	00004717          	auipc	a4,0x4
ffffffc050400d30:	f4270713          	addi	a4,a4,-190 # ffffffc050404c6e <k_spawn>
ffffffc050400d34:	e398                	sd	a4,0(a5)
ffffffc050400d36:	00054797          	auipc	a5,0x54
ffffffc050400d3a:	90278793          	addi	a5,a5,-1790 # ffffffc050454638 <syscall>
ffffffc050400d3e:	00004717          	auipc	a4,0x4
ffffffc050400d42:	0fa70713          	addi	a4,a4,250 # ffffffc050404e38 <k_exit>
ffffffc050400d46:	e798                	sd	a4,8(a5)
ffffffc050400d48:	00054797          	auipc	a5,0x54
ffffffc050400d4c:	8f078793          	addi	a5,a5,-1808 # ffffffc050454638 <syscall>
ffffffc050400d50:	00003717          	auipc	a4,0x3
ffffffc050400d54:	7fc70713          	addi	a4,a4,2044 # ffffffc05040454c <k_sleep>
ffffffc050400d58:	eb98                	sd	a4,16(a5)
ffffffc050400d5a:	00054797          	auipc	a5,0x54
ffffffc050400d5e:	8de78793          	addi	a5,a5,-1826 # ffffffc050454638 <syscall>
ffffffc050400d62:	00004717          	auipc	a4,0x4
ffffffc050400d66:	0fc70713          	addi	a4,a4,252 # ffffffc050404e5e <k_kill>
ffffffc050400d6a:	ef98                	sd	a4,24(a5)
ffffffc050400d6c:	00054797          	auipc	a5,0x54
ffffffc050400d70:	8cc78793          	addi	a5,a5,-1844 # ffffffc050454638 <syscall>
ffffffc050400d74:	00004717          	auipc	a4,0x4
ffffffc050400d78:	4a270713          	addi	a4,a4,1186 # ffffffc050405216 <k_waitpid>
ffffffc050400d7c:	f398                	sd	a4,32(a5)
ffffffc050400d7e:	00054797          	auipc	a5,0x54
ffffffc050400d82:	8ba78793          	addi	a5,a5,-1862 # ffffffc050454638 <syscall>
ffffffc050400d86:	00004717          	auipc	a4,0x4
ffffffc050400d8a:	6d670713          	addi	a4,a4,1750 # ffffffc05040545c <k_process_show>
ffffffc050400d8e:	f798                	sd	a4,40(a5)
ffffffc050400d90:	00054797          	auipc	a5,0x54
ffffffc050400d94:	8a878793          	addi	a5,a5,-1880 # ffffffc050454638 <syscall>
ffffffc050400d98:	00005717          	auipc	a4,0x5
ffffffc050400d9c:	97470713          	addi	a4,a4,-1676 # ffffffc05040570c <k_getpid>
ffffffc050400da0:	fb98                	sd	a4,48(a5)
ffffffc050400da2:	00054797          	auipc	a5,0x54
ffffffc050400da6:	89678793          	addi	a5,a5,-1898 # ffffffc050454638 <syscall>
ffffffc050400daa:	00003717          	auipc	a4,0x3
ffffffc050400dae:	51e70713          	addi	a4,a4,1310 # ffffffc0504042c8 <k_scheduler>
ffffffc050400db2:	ff98                	sd	a4,56(a5)
ffffffc050400db4:	00054797          	auipc	a5,0x54
ffffffc050400db8:	88478793          	addi	a5,a5,-1916 # ffffffc050454638 <syscall>
ffffffc050400dbc:	00004717          	auipc	a4,0x4
ffffffc050400dc0:	99470713          	addi	a4,a4,-1644 # ffffffc050404750 <k_fork>
ffffffc050400dc4:	e3b8                	sd	a4,64(a5)
ffffffc050400dc6:	00054797          	auipc	a5,0x54
ffffffc050400dca:	87278793          	addi	a5,a5,-1934 # ffffffc050454638 <syscall>
ffffffc050400dce:	00004717          	auipc	a4,0x4
ffffffc050400dd2:	d3870713          	addi	a4,a4,-712 # ffffffc050404b06 <set_priority>
ffffffc050400dd6:	e7b8                	sd	a4,72(a5)
ffffffc050400dd8:	00054797          	auipc	a5,0x54
ffffffc050400ddc:	86078793          	addi	a5,a5,-1952 # ffffffc050454638 <syscall>
ffffffc050400de0:	00005717          	auipc	a4,0x5
ffffffc050400de4:	8bc70713          	addi	a4,a4,-1860 # ffffffc05040569c <k_taskset>
ffffffc050400de8:	ebb8                	sd	a4,80(a5)
ffffffc050400dea:	00054797          	auipc	a5,0x54
ffffffc050400dee:	84e78793          	addi	a5,a5,-1970 # ffffffc050454638 <syscall>
ffffffc050400df2:	00001717          	auipc	a4,0x1
ffffffc050400df6:	d8470713          	addi	a4,a4,-636 # ffffffc050401b76 <k_mutex_lock_op>
ffffffc050400dfa:	f7b8                	sd	a4,104(a5)
ffffffc050400dfc:	00054797          	auipc	a5,0x54
ffffffc050400e00:	83c78793          	addi	a5,a5,-1988 # ffffffc050454638 <syscall>
ffffffc050400e04:	00001717          	auipc	a4,0x1
ffffffc050400e08:	5a070713          	addi	a4,a4,1440 # ffffffc0504023a4 <k_commop>
ffffffc050400e0c:	e3d8                	sd	a4,128(a5)
ffffffc050400e0e:	00054797          	auipc	a5,0x54
ffffffc050400e12:	82a78793          	addi	a5,a5,-2006 # ffffffc050454638 <syscall>
ffffffc050400e16:	00005717          	auipc	a4,0x5
ffffffc050400e1a:	0ee70713          	addi	a4,a4,238 # ffffffc050405f04 <shm_page_get>
ffffffc050400e1e:	fbb8                	sd	a4,112(a5)
ffffffc050400e20:	00054797          	auipc	a5,0x54
ffffffc050400e24:	81878793          	addi	a5,a5,-2024 # ffffffc050454638 <syscall>
ffffffc050400e28:	00005717          	auipc	a4,0x5
ffffffc050400e2c:	39270713          	addi	a4,a4,914 # ffffffc0504061ba <shm_page_dt>
ffffffc050400e30:	ffb8                	sd	a4,120(a5)
ffffffc050400e32:	00054797          	auipc	a5,0x54
ffffffc050400e36:	80678793          	addi	a5,a5,-2042 # ffffffc050454638 <syscall>
ffffffc050400e3a:	00001717          	auipc	a4,0x1
ffffffc050400e3e:	9fe70713          	addi	a4,a4,-1538 # ffffffc050401838 <screen_write>
ffffffc050400e42:	f3d8                	sd	a4,160(a5)
ffffffc050400e44:	00053797          	auipc	a5,0x53
ffffffc050400e48:	7f478793          	addi	a5,a5,2036 # ffffffc050454638 <syscall>
ffffffc050400e4c:	00001717          	auipc	a4,0x1
ffffffc050400e50:	97670713          	addi	a4,a4,-1674 # ffffffc0504017c2 <screen_move_cursor>
ffffffc050400e54:	ffd8                	sd	a4,184(a5)
ffffffc050400e56:	00053797          	auipc	a5,0x53
ffffffc050400e5a:	7e278793          	addi	a5,a5,2018 # ffffffc050454638 <syscall>
ffffffc050400e5e:	00001717          	auipc	a4,0x1
ffffffc050400e62:	a7c70713          	addi	a4,a4,-1412 # ffffffc0504018da <screen_reflush>
ffffffc050400e66:	e3f8                	sd	a4,192(a5)
ffffffc050400e68:	00053797          	auipc	a5,0x53
ffffffc050400e6c:	7d078793          	addi	a5,a5,2000 # ffffffc050454638 <syscall>
ffffffc050400e70:	fffff717          	auipc	a4,0xfffff
ffffffc050400e74:	55070713          	addi	a4,a4,1360 # ffffffc0504003c0 <sbi_console_getchar>
ffffffc050400e78:	e7f8                	sd	a4,200(a5)
ffffffc050400e7a:	00053797          	auipc	a5,0x53
ffffffc050400e7e:	7be78793          	addi	a5,a5,1982 # ffffffc050454638 <syscall>
ffffffc050400e82:	00000717          	auipc	a4,0x0
ffffffc050400e86:	67470713          	addi	a4,a4,1652 # ffffffc0504014f6 <screen_write_ch>
ffffffc050400e8a:	ebf8                	sd	a4,208(a5)
ffffffc050400e8c:	00053797          	auipc	a5,0x53
ffffffc050400e90:	7ac78793          	addi	a5,a5,1964 # ffffffc050454638 <syscall>
ffffffc050400e94:	00001717          	auipc	a4,0x1
ffffffc050400e98:	8a070713          	addi	a4,a4,-1888 # ffffffc050401734 <screen_clear>
ffffffc050400e9c:	f3f8                	sd	a4,224(a5)
ffffffc050400e9e:	00053797          	auipc	a5,0x53
ffffffc050400ea2:	79a78793          	addi	a5,a5,1946 # ffffffc050454638 <syscall>
ffffffc050400ea6:	00001717          	auipc	a4,0x1
ffffffc050400eaa:	9f670713          	addi	a4,a4,-1546 # ffffffc05040189c <get_cursor>
ffffffc050400eae:	f7f8                	sd	a4,232(a5)
ffffffc050400eb0:	00053797          	auipc	a5,0x53
ffffffc050400eb4:	78878793          	addi	a5,a5,1928 # ffffffc050454638 <syscall>
ffffffc050400eb8:	00005717          	auipc	a4,0x5
ffffffc050400ebc:	aa670713          	addi	a4,a4,-1370 # ffffffc05040595e <get_timer>
ffffffc050400ec0:	fbf8                	sd	a4,240(a5)
ffffffc050400ec2:	00053797          	auipc	a5,0x53
ffffffc050400ec6:	77678793          	addi	a5,a5,1910 # ffffffc050454638 <syscall>
ffffffc050400eca:	00005717          	auipc	a4,0x5
ffffffc050400ece:	a7670713          	addi	a4,a4,-1418 # ffffffc050405940 <get_ticks>
ffffffc050400ed2:	fff8                	sd	a4,248(a5)
ffffffc050400ed4:	00053797          	auipc	a5,0x53
ffffffc050400ed8:	76478793          	addi	a5,a5,1892 # ffffffc050454638 <syscall>
ffffffc050400edc:	00005717          	auipc	a4,0x5
ffffffc050400ee0:	ac070713          	addi	a4,a4,-1344 # ffffffc05040599c <get_wall_time>
ffffffc050400ee4:	10e7b023          	sd	a4,256(a5)
ffffffc050400ee8:	0001                	nop
ffffffc050400eea:	6462                	ld	s0,24(sp)
ffffffc050400eec:	6105                	addi	sp,sp,32
ffffffc050400eee:	8082                	ret

ffffffc050400ef0 <cancel_direct_map>:
ffffffc050400ef0:	1101                	addi	sp,sp,-32
ffffffc050400ef2:	ec22                	sd	s0,24(sp)
ffffffc050400ef4:	1000                	addi	s0,sp,32
ffffffc050400ef6:	fe02f7b7          	lui	a5,0xfe02f
ffffffc050400efa:	07b6                	slli	a5,a5,0xd
ffffffc050400efc:	07a1                	addi	a5,a5,8
ffffffc050400efe:	fef43423          	sd	a5,-24(s0)
ffffffc050400f02:	fe843783          	ld	a5,-24(s0)
ffffffc050400f06:	0007b023          	sd	zero,0(a5) # fffffffffe02f000 <__BSS_END__+0x3fadbda7c8>
ffffffc050400f0a:	0001                	nop
ffffffc050400f0c:	6462                	ld	s0,24(sp)
ffffffc050400f0e:	6105                	addi	sp,sp,32
ffffffc050400f10:	8082                	ret

ffffffc050400f12 <main>:
ffffffc050400f12:	7179                	addi	sp,sp,-48
ffffffc050400f14:	f406                	sd	ra,40(sp)
ffffffc050400f16:	f022                	sd	s0,32(sp)
ffffffc050400f18:	ec26                	sd	s1,24(sp)
ffffffc050400f1a:	1800                	addi	s0,sp,48
ffffffc050400f1c:	87aa                	mv	a5,a0
ffffffc050400f1e:	fcf42e23          	sw	a5,-36(s0)
ffffffc050400f22:	fdc42783          	lw	a5,-36(s0)
ffffffc050400f26:	2781                	sext.w	a5,a5
ffffffc050400f28:	efc9                	bnez	a5,ffffffc050400fc2 <main+0xb0>
ffffffc050400f2a:	4b7040ef          	jal	ra,ffffffc050405be0 <smp_init>
ffffffc050400f2e:	4ed040ef          	jal	ra,ffffffc050405c1a <lock_kernel>
ffffffc050400f32:	cf4ff0ef          	jal	ra,ffffffc050400426 <local_flush_tlb_all>
ffffffc050400f36:	4501                	li	a0,0
ffffffc050400f38:	bc1ff0ef          	jal	ra,ffffffc050400af8 <init_pcb>
ffffffc050400f3c:	00051797          	auipc	a5,0x51
ffffffc050400f40:	0d478793          	addi	a5,a5,212 # ffffffc050452010 <current_running>
ffffffc050400f44:	00051717          	auipc	a4,0x51
ffffffc050400f48:	0d470713          	addi	a4,a4,212 # ffffffc050452018 <current_running_core_m>
ffffffc050400f4c:	e398                	sd	a4,0(a5)
ffffffc050400f4e:	00006517          	auipc	a0,0x6
ffffffc050400f52:	5fa50513          	addi	a0,a0,1530 # ffffffc050407548 <match_elf+0x6c>
ffffffc050400f56:	3fe060ef          	jal	ra,ffffffc050407354 <printk>
ffffffc050400f5a:	248000ef          	jal	ra,ffffffc0504011a2 <init_exception>
ffffffc050400f5e:	00006517          	auipc	a0,0x6
ffffffc050400f62:	61a50513          	addi	a0,a0,1562 # ffffffc050407578 <match_elf+0x9c>
ffffffc050400f66:	3ee060ef          	jal	ra,ffffffc050407354 <printk>
ffffffc050400f6a:	d7bff0ef          	jal	ra,ffffffc050400ce4 <init_syscall>
ffffffc050400f6e:	00006517          	auipc	a0,0x6
ffffffc050400f72:	64a50513          	addi	a0,a0,1610 # ffffffc0504075b8 <match_elf+0xdc>
ffffffc050400f76:	3de060ef          	jal	ra,ffffffc050407354 <printk>
ffffffc050400f7a:	7a0000ef          	jal	ra,ffffffc05040171a <init_screen>
ffffffc050400f7e:	00006517          	auipc	a0,0x6
ffffffc050400f82:	67250513          	addi	a0,a0,1650 # ffffffc0504075f0 <match_elf+0x114>
ffffffc050400f86:	3ce060ef          	jal	ra,ffffffc050407354 <printk>
ffffffc050400f8a:	4501                	li	a0,0
ffffffc050400f8c:	c72ff0ef          	jal	ra,ffffffc0504003fe <sbi_read_fdt>
ffffffc050400f90:	87aa                	mv	a5,a0
ffffffc050400f92:	0007871b          	sext.w	a4,a5
ffffffc050400f96:	86818793          	addi	a5,gp,-1944 # ffffffc05044ca10 <time_base>
ffffffc050400f9a:	c398                	sw	a4,0(a5)
ffffffc050400f9c:	86818793          	addi	a5,gp,-1944 # ffffffc05044ca10 <time_base>
ffffffc050400fa0:	439c                	lw	a5,0(a5)
ffffffc050400fa2:	85be                	mv	a1,a5
ffffffc050400fa4:	00006517          	auipc	a0,0x6
ffffffc050400fa8:	67c50513          	addi	a0,a0,1660 # ffffffc050407620 <match_elf+0x144>
ffffffc050400fac:	3a8060ef          	jal	ra,ffffffc050407354 <printk>
ffffffc050400fb0:	44f040ef          	jal	ra,ffffffc050405bfe <wakeup_other_hart>
ffffffc050400fb4:	00006517          	auipc	a0,0x6
ffffffc050400fb8:	67c50513          	addi	a0,a0,1660 # ffffffc050407630 <match_elf+0x154>
ffffffc050400fbc:	398060ef          	jal	ra,ffffffc050407354 <printk>
ffffffc050400fc0:	a889                	j	ffffffc050401012 <main+0x100>
ffffffc050400fc2:	459040ef          	jal	ra,ffffffc050405c1a <lock_kernel>
ffffffc050400fc6:	f2bff0ef          	jal	ra,ffffffc050400ef0 <cancel_direct_map>
ffffffc050400fca:	4505                	li	a0,1
ffffffc050400fcc:	b2dff0ef          	jal	ra,ffffffc050400af8 <init_pcb>
ffffffc050400fd0:	00051797          	auipc	a5,0x51
ffffffc050400fd4:	04078793          	addi	a5,a5,64 # ffffffc050452010 <current_running>
ffffffc050400fd8:	00053717          	auipc	a4,0x53
ffffffc050400fdc:	d5070713          	addi	a4,a4,-688 # ffffffc050453d28 <current_running_core_s>
ffffffc050400fe0:	e398                	sd	a4,0(a5)
ffffffc050400fe2:	896ff0ef          	jal	ra,ffffffc050400078 <setup_exception>
ffffffc050400fe6:	00006517          	auipc	a0,0x6
ffffffc050400fea:	67a50513          	addi	a0,a0,1658 # ffffffc050407660 <match_elf+0x184>
ffffffc050400fee:	366060ef          	jal	ra,ffffffc050407354 <printk>
ffffffc050400ff2:	14f040ef          	jal	ra,ffffffc050405940 <get_ticks>
ffffffc050400ff6:	84aa                	mv	s1,a0
ffffffc050400ff8:	18d040ef          	jal	ra,ffffffc050405984 <get_time_base>
ffffffc050400ffc:	872a                	mv	a4,a0
ffffffc050400ffe:	06400793          	li	a5,100
ffffffc050401002:	02f757b3          	divu	a5,a4,a5
ffffffc050401006:	97a6                	add	a5,a5,s1
ffffffc050401008:	853e                	mv	a0,a5
ffffffc05040100a:	bd4ff0ef          	jal	ra,ffffffc0504003de <sbi_set_timer>
ffffffc05040100e:	2ba030ef          	jal	ra,ffffffc0504042c8 <k_scheduler>
ffffffc050401012:	05c000ef          	jal	ra,ffffffc05040106e <reset_irq_timer>
ffffffc050401016:	10500073          	wfi
ffffffc05040101a:	bfe5                	j	ffffffc050401012 <main+0x100>

ffffffc05040101c <sbi_set_timer>:
ffffffc05040101c:	1101                	addi	sp,sp,-32
ffffffc05040101e:	ec22                	sd	s0,24(sp)
ffffffc050401020:	1000                	addi	s0,sp,32
ffffffc050401022:	fea43423          	sd	a0,-24(s0)
ffffffc050401026:	fe843503          	ld	a0,-24(s0)
ffffffc05040102a:	4581                	li	a1,0
ffffffc05040102c:	4601                	li	a2,0
ffffffc05040102e:	4881                	li	a7,0
ffffffc050401030:	00000073          	ecall
ffffffc050401034:	0001                	nop
ffffffc050401036:	6462                	ld	s0,24(sp)
ffffffc050401038:	6105                	addi	sp,sp,32
ffffffc05040103a:	8082                	ret

ffffffc05040103c <_panic>:
ffffffc05040103c:	7179                	addi	sp,sp,-48
ffffffc05040103e:	f406                	sd	ra,40(sp)
ffffffc050401040:	f022                	sd	s0,32(sp)
ffffffc050401042:	1800                	addi	s0,sp,48
ffffffc050401044:	fea43423          	sd	a0,-24(s0)
ffffffc050401048:	87ae                	mv	a5,a1
ffffffc05040104a:	fcc43c23          	sd	a2,-40(s0)
ffffffc05040104e:	fef42223          	sw	a5,-28(s0)
ffffffc050401052:	fe442783          	lw	a5,-28(s0)
ffffffc050401056:	86be                	mv	a3,a5
ffffffc050401058:	fe843603          	ld	a2,-24(s0)
ffffffc05040105c:	fd843583          	ld	a1,-40(s0)
ffffffc050401060:	00006517          	auipc	a0,0x6
ffffffc050401064:	72850513          	addi	a0,a0,1832 # ffffffc050407788 <match_elf+0x2ac>
ffffffc050401068:	376060ef          	jal	ra,ffffffc0504073de <prints>
ffffffc05040106c:	a001                	j	ffffffc05040106c <_panic+0x30>

ffffffc05040106e <reset_irq_timer>:
ffffffc05040106e:	1101                	addi	sp,sp,-32
ffffffc050401070:	ec06                	sd	ra,24(sp)
ffffffc050401072:	e822                	sd	s0,16(sp)
ffffffc050401074:	e426                	sd	s1,8(sp)
ffffffc050401076:	1000                	addi	s0,sp,32
ffffffc050401078:	063000ef          	jal	ra,ffffffc0504018da <screen_reflush>
ffffffc05040107c:	28b040ef          	jal	ra,ffffffc050405b06 <check_timer>
ffffffc050401080:	0c1040ef          	jal	ra,ffffffc050405940 <get_ticks>
ffffffc050401084:	84aa                	mv	s1,a0
ffffffc050401086:	0ff040ef          	jal	ra,ffffffc050405984 <get_time_base>
ffffffc05040108a:	872a                	mv	a4,a0
ffffffc05040108c:	06400793          	li	a5,100
ffffffc050401090:	02f757b3          	divu	a5,a4,a5
ffffffc050401094:	97a6                	add	a5,a5,s1
ffffffc050401096:	853e                	mv	a0,a5
ffffffc050401098:	f85ff0ef          	jal	ra,ffffffc05040101c <sbi_set_timer>
ffffffc05040109c:	22c030ef          	jal	ra,ffffffc0504042c8 <k_scheduler>
ffffffc0504010a0:	0001                	nop
ffffffc0504010a2:	60e2                	ld	ra,24(sp)
ffffffc0504010a4:	6442                	ld	s0,16(sp)
ffffffc0504010a6:	64a2                	ld	s1,8(sp)
ffffffc0504010a8:	6105                	addi	sp,sp,32
ffffffc0504010aa:	8082                	ret

ffffffc0504010ac <interrupt_helper>:
ffffffc0504010ac:	7139                	addi	sp,sp,-64
ffffffc0504010ae:	fc06                	sd	ra,56(sp)
ffffffc0504010b0:	f822                	sd	s0,48(sp)
ffffffc0504010b2:	0080                	addi	s0,sp,64
ffffffc0504010b4:	fca43c23          	sd	a0,-40(s0)
ffffffc0504010b8:	fcb43823          	sd	a1,-48(s0)
ffffffc0504010bc:	fcc43423          	sd	a2,-56(s0)
ffffffc0504010c0:	a64ff0ef          	jal	ra,ffffffc050400324 <get_current_cpu_id>
ffffffc0504010c4:	87aa                	mv	a5,a0
ffffffc0504010c6:	e791                	bnez	a5,ffffffc0504010d2 <interrupt_helper+0x26>
ffffffc0504010c8:	00051797          	auipc	a5,0x51
ffffffc0504010cc:	f5078793          	addi	a5,a5,-176 # ffffffc050452018 <current_running_core_m>
ffffffc0504010d0:	a029                	j	ffffffc0504010da <interrupt_helper+0x2e>
ffffffc0504010d2:	00053797          	auipc	a5,0x53
ffffffc0504010d6:	c5678793          	addi	a5,a5,-938 # ffffffc050453d28 <current_running_core_s>
ffffffc0504010da:	00051717          	auipc	a4,0x51
ffffffc0504010de:	f3670713          	addi	a4,a4,-202 # ffffffc050452010 <current_running>
ffffffc0504010e2:	e31c                	sd	a5,0(a4)
ffffffc0504010e4:	00051797          	auipc	a5,0x51
ffffffc0504010e8:	f2c78793          	addi	a5,a5,-212 # ffffffc050452010 <current_running>
ffffffc0504010ec:	639c                	ld	a5,0(a5)
ffffffc0504010ee:	639c                	ld	a5,0(a5)
ffffffc0504010f0:	579c                	lw	a5,40(a5)
ffffffc0504010f2:	873e                	mv	a4,a5
ffffffc0504010f4:	57fd                	li	a5,-1
ffffffc0504010f6:	02f70c63          	beq	a4,a5,ffffffc05040112e <interrupt_helper+0x82>
ffffffc0504010fa:	00051797          	auipc	a5,0x51
ffffffc0504010fe:	f1678793          	addi	a5,a5,-234 # ffffffc050452010 <current_running>
ffffffc050401102:	639c                	ld	a5,0(a5)
ffffffc050401104:	639c                	ld	a5,0(a5)
ffffffc050401106:	579c                	lw	a5,40(a5)
ffffffc050401108:	c39d                	beqz	a5,ffffffc05040112e <interrupt_helper+0x82>
ffffffc05040110a:	00051797          	auipc	a5,0x51
ffffffc05040110e:	f0678793          	addi	a5,a5,-250 # ffffffc050452010 <current_running>
ffffffc050401112:	639c                	ld	a5,0(a5)
ffffffc050401114:	639c                	ld	a5,0(a5)
ffffffc050401116:	5f98                	lw	a4,56(a5)
ffffffc050401118:	00051797          	auipc	a5,0x51
ffffffc05040111c:	ef878793          	addi	a5,a5,-264 # ffffffc050452010 <current_running>
ffffffc050401120:	639c                	ld	a5,0(a5)
ffffffc050401122:	639c                	ld	a5,0(a5)
ffffffc050401124:	5fdc                	lw	a5,60(a5)
ffffffc050401126:	85be                	mv	a1,a5
ffffffc050401128:	853a                	mv	a0,a4
ffffffc05040112a:	2ca000ef          	jal	ra,ffffffc0504013f4 <kernel_move_cursor>
ffffffc05040112e:	fc843783          	ld	a5,-56(s0)
ffffffc050401132:	0007d763          	bgez	a5,ffffffc050401140 <interrupt_helper+0x94>
ffffffc050401136:	00050797          	auipc	a5,0x50
ffffffc05040113a:	79a78793          	addi	a5,a5,1946 # ffffffc0504518d0 <irq_table>
ffffffc05040113e:	a029                	j	ffffffc050401148 <interrupt_helper+0x9c>
ffffffc050401140:	00050797          	auipc	a5,0x50
ffffffc050401144:	70878793          	addi	a5,a5,1800 # ffffffc050451848 <exc_table>
ffffffc050401148:	fef43423          	sd	a5,-24(s0)
ffffffc05040114c:	fc843703          	ld	a4,-56(s0)
ffffffc050401150:	57fd                	li	a5,-1
ffffffc050401152:	8385                	srli	a5,a5,0x1
ffffffc050401154:	8ff9                	and	a5,a5,a4
ffffffc050401156:	fef43023          	sd	a5,-32(s0)
ffffffc05040115a:	fe043783          	ld	a5,-32(s0)
ffffffc05040115e:	078e                	slli	a5,a5,0x3
ffffffc050401160:	fe843703          	ld	a4,-24(s0)
ffffffc050401164:	97ba                	add	a5,a5,a4
ffffffc050401166:	639c                	ld	a5,0(a5)
ffffffc050401168:	fc843603          	ld	a2,-56(s0)
ffffffc05040116c:	fd043583          	ld	a1,-48(s0)
ffffffc050401170:	fd843503          	ld	a0,-40(s0)
ffffffc050401174:	9782                	jalr	a5
ffffffc050401176:	0001                	nop
ffffffc050401178:	70e2                	ld	ra,56(sp)
ffffffc05040117a:	7442                	ld	s0,48(sp)
ffffffc05040117c:	6121                	addi	sp,sp,64
ffffffc05040117e:	8082                	ret

ffffffc050401180 <handle_int>:
ffffffc050401180:	7179                	addi	sp,sp,-48
ffffffc050401182:	f406                	sd	ra,40(sp)
ffffffc050401184:	f022                	sd	s0,32(sp)
ffffffc050401186:	1800                	addi	s0,sp,48
ffffffc050401188:	fea43423          	sd	a0,-24(s0)
ffffffc05040118c:	feb43023          	sd	a1,-32(s0)
ffffffc050401190:	fcc43c23          	sd	a2,-40(s0)
ffffffc050401194:	edbff0ef          	jal	ra,ffffffc05040106e <reset_irq_timer>
ffffffc050401198:	0001                	nop
ffffffc05040119a:	70a2                	ld	ra,40(sp)
ffffffc05040119c:	7402                	ld	s0,32(sp)
ffffffc05040119e:	6145                	addi	sp,sp,48
ffffffc0504011a0:	8082                	ret

ffffffc0504011a2 <init_exception>:
ffffffc0504011a2:	1101                	addi	sp,sp,-32
ffffffc0504011a4:	ec06                	sd	ra,24(sp)
ffffffc0504011a6:	e822                	sd	s0,16(sp)
ffffffc0504011a8:	1000                	addi	s0,sp,32
ffffffc0504011aa:	fe042623          	sw	zero,-20(s0)
ffffffc0504011ae:	a01d                	j	ffffffc0504011d4 <init_exception+0x32>
ffffffc0504011b0:	00050717          	auipc	a4,0x50
ffffffc0504011b4:	72070713          	addi	a4,a4,1824 # ffffffc0504518d0 <irq_table>
ffffffc0504011b8:	fec42783          	lw	a5,-20(s0)
ffffffc0504011bc:	078e                	slli	a5,a5,0x3
ffffffc0504011be:	97ba                	add	a5,a5,a4
ffffffc0504011c0:	00000717          	auipc	a4,0x0
ffffffc0504011c4:	fc070713          	addi	a4,a4,-64 # ffffffc050401180 <handle_int>
ffffffc0504011c8:	e398                	sd	a4,0(a5)
ffffffc0504011ca:	fec42783          	lw	a5,-20(s0)
ffffffc0504011ce:	2785                	addiw	a5,a5,1
ffffffc0504011d0:	fef42623          	sw	a5,-20(s0)
ffffffc0504011d4:	fec42783          	lw	a5,-20(s0)
ffffffc0504011d8:	0007871b          	sext.w	a4,a5
ffffffc0504011dc:	47ad                	li	a5,11
ffffffc0504011de:	fce7d9e3          	bge	a5,a4,ffffffc0504011b0 <init_exception+0xe>
ffffffc0504011e2:	fe042623          	sw	zero,-20(s0)
ffffffc0504011e6:	a01d                	j	ffffffc05040120c <init_exception+0x6a>
ffffffc0504011e8:	00050717          	auipc	a4,0x50
ffffffc0504011ec:	66070713          	addi	a4,a4,1632 # ffffffc050451848 <exc_table>
ffffffc0504011f0:	fec42783          	lw	a5,-20(s0)
ffffffc0504011f4:	078e                	slli	a5,a5,0x3
ffffffc0504011f6:	97ba                	add	a5,a5,a4
ffffffc0504011f8:	00000717          	auipc	a4,0x0
ffffffc0504011fc:	04270713          	addi	a4,a4,66 # ffffffc05040123a <handle_other>
ffffffc050401200:	e398                	sd	a4,0(a5)
ffffffc050401202:	fec42783          	lw	a5,-20(s0)
ffffffc050401206:	2785                	addiw	a5,a5,1
ffffffc050401208:	fef42623          	sw	a5,-20(s0)
ffffffc05040120c:	fec42783          	lw	a5,-20(s0)
ffffffc050401210:	0007871b          	sext.w	a4,a5
ffffffc050401214:	47bd                	li	a5,15
ffffffc050401216:	fce7d9e3          	bge	a5,a4,ffffffc0504011e8 <init_exception+0x46>
ffffffc05040121a:	00050797          	auipc	a5,0x50
ffffffc05040121e:	62e78793          	addi	a5,a5,1582 # ffffffc050451848 <exc_table>
ffffffc050401222:	00005717          	auipc	a4,0x5
ffffffc050401226:	64a70713          	addi	a4,a4,1610 # ffffffc05040686c <handle_syscall>
ffffffc05040122a:	e3b8                	sd	a4,64(a5)
ffffffc05040122c:	e4dfe0ef          	jal	ra,ffffffc050400078 <setup_exception>
ffffffc050401230:	0001                	nop
ffffffc050401232:	60e2                	ld	ra,24(sp)
ffffffc050401234:	6442                	ld	s0,16(sp)
ffffffc050401236:	6105                	addi	sp,sp,32
ffffffc050401238:	8082                	ret

ffffffc05040123a <handle_other>:
ffffffc05040123a:	7129                	addi	sp,sp,-320
ffffffc05040123c:	fe06                	sd	ra,312(sp)
ffffffc05040123e:	fa22                	sd	s0,304(sp)
ffffffc050401240:	0280                	addi	s0,sp,320
ffffffc050401242:	eca43c23          	sd	a0,-296(s0)
ffffffc050401246:	ecb43823          	sd	a1,-304(s0)
ffffffc05040124a:	ecc43423          	sd	a2,-312(s0)
ffffffc05040124e:	00006717          	auipc	a4,0x6
ffffffc050401252:	62270713          	addi	a4,a4,1570 # ffffffc050407870 <match_elf+0x394>
ffffffc050401256:	ee840793          	addi	a5,s0,-280
ffffffc05040125a:	86ba                	mv	a3,a4
ffffffc05040125c:	10000713          	li	a4,256
ffffffc050401260:	863a                	mv	a2,a4
ffffffc050401262:	85b6                	mv	a1,a3
ffffffc050401264:	853e                	mv	a0,a5
ffffffc050401266:	6ac050ef          	jal	ra,ffffffc050406912 <memcpy>
ffffffc05040126a:	fe042623          	sw	zero,-20(s0)
ffffffc05040126e:	a061                	j	ffffffc0504012f6 <handle_other+0xbc>
ffffffc050401270:	fe042423          	sw	zero,-24(s0)
ffffffc050401274:	a0a9                	j	ffffffc0504012be <handle_other+0x84>
ffffffc050401276:	fec42703          	lw	a4,-20(s0)
ffffffc05040127a:	fe842783          	lw	a5,-24(s0)
ffffffc05040127e:	9fb9                	addw	a5,a5,a4
ffffffc050401280:	2781                	sext.w	a5,a5
ffffffc050401282:	078e                	slli	a5,a5,0x3
ffffffc050401284:	ff040713          	addi	a4,s0,-16
ffffffc050401288:	97ba                	add	a5,a5,a4
ffffffc05040128a:	ef87b683          	ld	a3,-264(a5)
ffffffc05040128e:	fec42703          	lw	a4,-20(s0)
ffffffc050401292:	fe842783          	lw	a5,-24(s0)
ffffffc050401296:	9fb9                	addw	a5,a5,a4
ffffffc050401298:	2781                	sext.w	a5,a5
ffffffc05040129a:	ed843703          	ld	a4,-296(s0)
ffffffc05040129e:	078e                	slli	a5,a5,0x3
ffffffc0504012a0:	97ba                	add	a5,a5,a4
ffffffc0504012a2:	639c                	ld	a5,0(a5)
ffffffc0504012a4:	863e                	mv	a2,a5
ffffffc0504012a6:	85b6                	mv	a1,a3
ffffffc0504012a8:	00006517          	auipc	a0,0x6
ffffffc0504012ac:	50850513          	addi	a0,a0,1288 # ffffffc0504077b0 <match_elf+0x2d4>
ffffffc0504012b0:	0a4060ef          	jal	ra,ffffffc050407354 <printk>
ffffffc0504012b4:	fe842783          	lw	a5,-24(s0)
ffffffc0504012b8:	2785                	addiw	a5,a5,1
ffffffc0504012ba:	fef42423          	sw	a5,-24(s0)
ffffffc0504012be:	fe842783          	lw	a5,-24(s0)
ffffffc0504012c2:	0007871b          	sext.w	a4,a5
ffffffc0504012c6:	4789                	li	a5,2
ffffffc0504012c8:	00e7cc63          	blt	a5,a4,ffffffc0504012e0 <handle_other+0xa6>
ffffffc0504012cc:	fec42703          	lw	a4,-20(s0)
ffffffc0504012d0:	fe842783          	lw	a5,-24(s0)
ffffffc0504012d4:	9fb9                	addw	a5,a5,a4
ffffffc0504012d6:	2781                	sext.w	a5,a5
ffffffc0504012d8:	873e                	mv	a4,a5
ffffffc0504012da:	47fd                	li	a5,31
ffffffc0504012dc:	f8e7dde3          	bge	a5,a4,ffffffc050401276 <handle_other+0x3c>
ffffffc0504012e0:	00006517          	auipc	a0,0x6
ffffffc0504012e4:	4e050513          	addi	a0,a0,1248 # ffffffc0504077c0 <match_elf+0x2e4>
ffffffc0504012e8:	06c060ef          	jal	ra,ffffffc050407354 <printk>
ffffffc0504012ec:	fec42783          	lw	a5,-20(s0)
ffffffc0504012f0:	278d                	addiw	a5,a5,3
ffffffc0504012f2:	fef42623          	sw	a5,-20(s0)
ffffffc0504012f6:	fec42783          	lw	a5,-20(s0)
ffffffc0504012fa:	0007871b          	sext.w	a4,a5
ffffffc0504012fe:	47fd                	li	a5,31
ffffffc050401300:	f6e7d8e3          	bge	a5,a4,ffffffc050401270 <handle_other+0x36>
ffffffc050401304:	00051797          	auipc	a5,0x51
ffffffc050401308:	d0c78793          	addi	a5,a5,-756 # ffffffc050452010 <current_running>
ffffffc05040130c:	639c                	ld	a5,0(a5)
ffffffc05040130e:	639c                	ld	a5,0(a5)
ffffffc050401310:	579c                	lw	a5,40(a5)
ffffffc050401312:	85be                	mv	a1,a5
ffffffc050401314:	00006517          	auipc	a0,0x6
ffffffc050401318:	4b450513          	addi	a0,a0,1204 # ffffffc0504077c8 <match_elf+0x2ec>
ffffffc05040131c:	038060ef          	jal	ra,ffffffc050407354 <printk>
ffffffc050401320:	00051797          	auipc	a5,0x51
ffffffc050401324:	cf078793          	addi	a5,a5,-784 # ffffffc050452010 <current_running>
ffffffc050401328:	639c                	ld	a5,0(a5)
ffffffc05040132a:	639c                	ld	a5,0(a5)
ffffffc05040132c:	6bbc                	ld	a5,80(a5)
ffffffc05040132e:	85be                	mv	a1,a5
ffffffc050401330:	00006517          	auipc	a0,0x6
ffffffc050401334:	4b050513          	addi	a0,a0,1200 # ffffffc0504077e0 <match_elf+0x304>
ffffffc050401338:	01c060ef          	jal	ra,ffffffc050407354 <printk>
ffffffc05040133c:	ed843783          	ld	a5,-296(s0)
ffffffc050401340:	1007b703          	ld	a4,256(a5)
ffffffc050401344:	ed843783          	ld	a5,-296(s0)
ffffffc050401348:	1107b603          	ld	a2,272(a5)
ffffffc05040134c:	ed843783          	ld	a5,-296(s0)
ffffffc050401350:	1187b783          	ld	a5,280(a5)
ffffffc050401354:	86be                	mv	a3,a5
ffffffc050401356:	85ba                	mv	a1,a4
ffffffc050401358:	00006517          	auipc	a0,0x6
ffffffc05040135c:	4b050513          	addi	a0,a0,1200 # ffffffc050407808 <match_elf+0x32c>
ffffffc050401360:	7f5050ef          	jal	ra,ffffffc050407354 <printk>
ffffffc050401364:	ed843783          	ld	a5,-296(s0)
ffffffc050401368:	1087b783          	ld	a5,264(a5)
ffffffc05040136c:	85be                	mv	a1,a5
ffffffc05040136e:	00006517          	auipc	a0,0x6
ffffffc050401372:	4ca50513          	addi	a0,a0,1226 # ffffffc050407838 <match_elf+0x35c>
ffffffc050401376:	7df050ef          	jal	ra,ffffffc050407354 <printk>
ffffffc05040137a:	ed843783          	ld	a5,-296(s0)
ffffffc05040137e:	1207b783          	ld	a5,288(a5)
ffffffc050401382:	85be                	mv	a1,a5
ffffffc050401384:	00006517          	auipc	a0,0x6
ffffffc050401388:	4c450513          	addi	a0,a0,1220 # ffffffc050407848 <match_elf+0x36c>
ffffffc05040138c:	7c9050ef          	jal	ra,ffffffc050407354 <printk>
ffffffc050401390:	00006617          	auipc	a2,0x6
ffffffc050401394:	62060613          	addi	a2,a2,1568 # ffffffc0504079b0 <__FUNCTION__.1825>
ffffffc050401398:	05800593          	li	a1,88
ffffffc05040139c:	00006517          	auipc	a0,0x6
ffffffc0504013a0:	4bc50513          	addi	a0,a0,1212 # ffffffc050407858 <match_elf+0x37c>
ffffffc0504013a4:	c99ff0ef          	jal	ra,ffffffc05040103c <_panic>
ffffffc0504013a8:	0001                	nop
ffffffc0504013aa:	70f2                	ld	ra,312(sp)
ffffffc0504013ac:	7452                	ld	s0,304(sp)
ffffffc0504013ae:	6131                	addi	sp,sp,320
ffffffc0504013b0:	8082                	ret

ffffffc0504013b2 <unknown_syscall>:
ffffffc0504013b2:	7179                	addi	sp,sp,-48
ffffffc0504013b4:	f406                	sd	ra,40(sp)
ffffffc0504013b6:	f022                	sd	s0,32(sp)
ffffffc0504013b8:	1800                	addi	s0,sp,48
ffffffc0504013ba:	fea43423          	sd	a0,-24(s0)
ffffffc0504013be:	feb43023          	sd	a1,-32(s0)
ffffffc0504013c2:	fcc43c23          	sd	a2,-40(s0)
ffffffc0504013c6:	fe843783          	ld	a5,-24(s0)
ffffffc0504013ca:	67dc                	ld	a5,136(a5)
ffffffc0504013cc:	85be                	mv	a1,a5
ffffffc0504013ce:	00006517          	auipc	a0,0x6
ffffffc0504013d2:	5a250513          	addi	a0,a0,1442 # ffffffc050407970 <match_elf+0x494>
ffffffc0504013d6:	77f050ef          	jal	ra,ffffffc050407354 <printk>
ffffffc0504013da:	fd843603          	ld	a2,-40(s0)
ffffffc0504013de:	fe043583          	ld	a1,-32(s0)
ffffffc0504013e2:	fe843503          	ld	a0,-24(s0)
ffffffc0504013e6:	e55ff0ef          	jal	ra,ffffffc05040123a <handle_other>
ffffffc0504013ea:	0001                	nop
ffffffc0504013ec:	70a2                	ld	ra,40(sp)
ffffffc0504013ee:	7402                	ld	s0,32(sp)
ffffffc0504013f0:	6145                	addi	sp,sp,48
ffffffc0504013f2:	8082                	ret

ffffffc0504013f4 <kernel_move_cursor>:
ffffffc0504013f4:	1101                	addi	sp,sp,-32
ffffffc0504013f6:	ec22                	sd	s0,24(sp)
ffffffc0504013f8:	1000                	addi	s0,sp,32
ffffffc0504013fa:	87aa                	mv	a5,a0
ffffffc0504013fc:	872e                	mv	a4,a1
ffffffc0504013fe:	fef42623          	sw	a5,-20(s0)
ffffffc050401402:	87ba                	mv	a5,a4
ffffffc050401404:	fef42423          	sw	a5,-24(s0)
ffffffc050401408:	00050797          	auipc	a5,0x50
ffffffc05040140c:	52878793          	addi	a5,a5,1320 # ffffffc050451930 <screen_cursor_x>
ffffffc050401410:	fec42703          	lw	a4,-20(s0)
ffffffc050401414:	c398                	sw	a4,0(a5)
ffffffc050401416:	00050797          	auipc	a5,0x50
ffffffc05040141a:	51e78793          	addi	a5,a5,1310 # ffffffc050451934 <screen_cursor_y>
ffffffc05040141e:	fe842703          	lw	a4,-24(s0)
ffffffc050401422:	c398                	sw	a4,0(a5)
ffffffc050401424:	0001                	nop
ffffffc050401426:	6462                	ld	s0,24(sp)
ffffffc050401428:	6105                	addi	sp,sp,32
ffffffc05040142a:	8082                	ret

ffffffc05040142c <pcb_move_cursor>:
ffffffc05040142c:	1101                	addi	sp,sp,-32
ffffffc05040142e:	ec22                	sd	s0,24(sp)
ffffffc050401430:	1000                	addi	s0,sp,32
ffffffc050401432:	87aa                	mv	a5,a0
ffffffc050401434:	872e                	mv	a4,a1
ffffffc050401436:	fef42623          	sw	a5,-20(s0)
ffffffc05040143a:	87ba                	mv	a5,a4
ffffffc05040143c:	fef42423          	sw	a5,-24(s0)
ffffffc050401440:	00051797          	auipc	a5,0x51
ffffffc050401444:	bd078793          	addi	a5,a5,-1072 # ffffffc050452010 <current_running>
ffffffc050401448:	639c                	ld	a5,0(a5)
ffffffc05040144a:	639c                	ld	a5,0(a5)
ffffffc05040144c:	fec42703          	lw	a4,-20(s0)
ffffffc050401450:	df98                	sw	a4,56(a5)
ffffffc050401452:	00051797          	auipc	a5,0x51
ffffffc050401456:	bbe78793          	addi	a5,a5,-1090 # ffffffc050452010 <current_running>
ffffffc05040145a:	639c                	ld	a5,0(a5)
ffffffc05040145c:	639c                	ld	a5,0(a5)
ffffffc05040145e:	fe842703          	lw	a4,-24(s0)
ffffffc050401462:	dfd8                	sw	a4,60(a5)
ffffffc050401464:	0001                	nop
ffffffc050401466:	6462                	ld	s0,24(sp)
ffffffc050401468:	6105                	addi	sp,sp,32
ffffffc05040146a:	8082                	ret

ffffffc05040146c <vt100_move_cursor>:
ffffffc05040146c:	1101                	addi	sp,sp,-32
ffffffc05040146e:	ec06                	sd	ra,24(sp)
ffffffc050401470:	e822                	sd	s0,16(sp)
ffffffc050401472:	1000                	addi	s0,sp,32
ffffffc050401474:	87aa                	mv	a5,a0
ffffffc050401476:	872e                	mv	a4,a1
ffffffc050401478:	fef42623          	sw	a5,-20(s0)
ffffffc05040147c:	87ba                	mv	a5,a4
ffffffc05040147e:	fef42423          	sw	a5,-24(s0)
ffffffc050401482:	fec42703          	lw	a4,-20(s0)
ffffffc050401486:	fe842783          	lw	a5,-24(s0)
ffffffc05040148a:	86ba                	mv	a3,a4
ffffffc05040148c:	863e                	mv	a2,a5
ffffffc05040148e:	45ed                	li	a1,27
ffffffc050401490:	00006517          	auipc	a0,0x6
ffffffc050401494:	53050513          	addi	a0,a0,1328 # ffffffc0504079c0 <__FUNCTION__.1825+0x10>
ffffffc050401498:	6bd050ef          	jal	ra,ffffffc050407354 <printk>
ffffffc05040149c:	fe842703          	lw	a4,-24(s0)
ffffffc0504014a0:	fec42783          	lw	a5,-20(s0)
ffffffc0504014a4:	85ba                	mv	a1,a4
ffffffc0504014a6:	853e                	mv	a0,a5
ffffffc0504014a8:	f85ff0ef          	jal	ra,ffffffc05040142c <pcb_move_cursor>
ffffffc0504014ac:	0001                	nop
ffffffc0504014ae:	60e2                	ld	ra,24(sp)
ffffffc0504014b0:	6442                	ld	s0,16(sp)
ffffffc0504014b2:	6105                	addi	sp,sp,32
ffffffc0504014b4:	8082                	ret

ffffffc0504014b6 <vt100_clear>:
ffffffc0504014b6:	1141                	addi	sp,sp,-16
ffffffc0504014b8:	e406                	sd	ra,8(sp)
ffffffc0504014ba:	e022                	sd	s0,0(sp)
ffffffc0504014bc:	0800                	addi	s0,sp,16
ffffffc0504014be:	45ed                	li	a1,27
ffffffc0504014c0:	00006517          	auipc	a0,0x6
ffffffc0504014c4:	51050513          	addi	a0,a0,1296 # ffffffc0504079d0 <__FUNCTION__.1825+0x20>
ffffffc0504014c8:	68d050ef          	jal	ra,ffffffc050407354 <printk>
ffffffc0504014cc:	0001                	nop
ffffffc0504014ce:	60a2                	ld	ra,8(sp)
ffffffc0504014d0:	6402                	ld	s0,0(sp)
ffffffc0504014d2:	0141                	addi	sp,sp,16
ffffffc0504014d4:	8082                	ret

ffffffc0504014d6 <vt100_hidden_cursor>:
ffffffc0504014d6:	1141                	addi	sp,sp,-16
ffffffc0504014d8:	e406                	sd	ra,8(sp)
ffffffc0504014da:	e022                	sd	s0,0(sp)
ffffffc0504014dc:	0800                	addi	s0,sp,16
ffffffc0504014de:	45ed                	li	a1,27
ffffffc0504014e0:	00006517          	auipc	a0,0x6
ffffffc0504014e4:	4f850513          	addi	a0,a0,1272 # ffffffc0504079d8 <__FUNCTION__.1825+0x28>
ffffffc0504014e8:	66d050ef          	jal	ra,ffffffc050407354 <printk>
ffffffc0504014ec:	0001                	nop
ffffffc0504014ee:	60a2                	ld	ra,8(sp)
ffffffc0504014f0:	6402                	ld	s0,0(sp)
ffffffc0504014f2:	0141                	addi	sp,sp,16
ffffffc0504014f4:	8082                	ret

ffffffc0504014f6 <screen_write_ch>:
ffffffc0504014f6:	7179                	addi	sp,sp,-48
ffffffc0504014f8:	f406                	sd	ra,40(sp)
ffffffc0504014fa:	f022                	sd	s0,32(sp)
ffffffc0504014fc:	1800                	addi	s0,sp,48
ffffffc0504014fe:	87aa                	mv	a5,a0
ffffffc050401500:	fcf40fa3          	sb	a5,-33(s0)
ffffffc050401504:	00050797          	auipc	a5,0x50
ffffffc050401508:	43078793          	addi	a5,a5,1072 # ffffffc050451934 <screen_cursor_y>
ffffffc05040150c:	439c                	lw	a5,0(a5)
ffffffc05040150e:	37fd                	addiw	a5,a5,-1
ffffffc050401510:	0007871b          	sext.w	a4,a5
ffffffc050401514:	0c800793          	li	a5,200
ffffffc050401518:	02f707bb          	mulw	a5,a4,a5
ffffffc05040151c:	0007871b          	sext.w	a4,a5
ffffffc050401520:	00050797          	auipc	a5,0x50
ffffffc050401524:	41078793          	addi	a5,a5,1040 # ffffffc050451930 <screen_cursor_x>
ffffffc050401528:	439c                	lw	a5,0(a5)
ffffffc05040152a:	37fd                	addiw	a5,a5,-1
ffffffc05040152c:	2781                	sext.w	a5,a5
ffffffc05040152e:	9fb9                	addw	a5,a5,a4
ffffffc050401530:	2781                	sext.w	a5,a5
ffffffc050401532:	0004b717          	auipc	a4,0x4b
ffffffc050401536:	4e670713          	addi	a4,a4,1254 # ffffffc05044ca18 <new_screen>
ffffffc05040153a:	97ba                	add	a5,a5,a4
ffffffc05040153c:	fdf44703          	lbu	a4,-33(s0)
ffffffc050401540:	00e78023          	sb	a4,0(a5)
ffffffc050401544:	fdf44783          	lbu	a5,-33(s0)
ffffffc050401548:	0ff7f713          	andi	a4,a5,255
ffffffc05040154c:	47a9                	li	a5,10
ffffffc05040154e:	02f71663          	bne	a4,a5,ffffffc05040157a <screen_write_ch+0x84>
ffffffc050401552:	00050797          	auipc	a5,0x50
ffffffc050401556:	3e278793          	addi	a5,a5,994 # ffffffc050451934 <screen_cursor_y>
ffffffc05040155a:	439c                	lw	a5,0(a5)
ffffffc05040155c:	2785                	addiw	a5,a5,1
ffffffc05040155e:	0007871b          	sext.w	a4,a5
ffffffc050401562:	00050797          	auipc	a5,0x50
ffffffc050401566:	3d278793          	addi	a5,a5,978 # ffffffc050451934 <screen_cursor_y>
ffffffc05040156a:	c398                	sw	a4,0(a5)
ffffffc05040156c:	00050797          	auipc	a5,0x50
ffffffc050401570:	3c478793          	addi	a5,a5,964 # ffffffc050451930 <screen_cursor_x>
ffffffc050401574:	4705                	li	a4,1
ffffffc050401576:	c398                	sw	a4,0(a5)
ffffffc050401578:	a289                	j	ffffffc0504016ba <screen_write_ch+0x1c4>
ffffffc05040157a:	fdf44783          	lbu	a5,-33(s0)
ffffffc05040157e:	0ff7f713          	andi	a4,a5,255
ffffffc050401582:	47b5                	li	a5,13
ffffffc050401584:	00f71963          	bne	a4,a5,ffffffc050401596 <screen_write_ch+0xa0>
ffffffc050401588:	00050797          	auipc	a5,0x50
ffffffc05040158c:	3a878793          	addi	a5,a5,936 # ffffffc050451930 <screen_cursor_x>
ffffffc050401590:	4705                	li	a4,1
ffffffc050401592:	c398                	sw	a4,0(a5)
ffffffc050401594:	a21d                	j	ffffffc0504016ba <screen_write_ch+0x1c4>
ffffffc050401596:	fdf44783          	lbu	a5,-33(s0)
ffffffc05040159a:	0ff7f713          	andi	a4,a5,255
ffffffc05040159e:	47a5                	li	a5,9
ffffffc0504015a0:	08f71363          	bne	a4,a5,ffffffc050401626 <screen_write_ch+0x130>
ffffffc0504015a4:	fe042623          	sw	zero,-20(s0)
ffffffc0504015a8:	a891                	j	ffffffc0504015fc <screen_write_ch+0x106>
ffffffc0504015aa:	00050797          	auipc	a5,0x50
ffffffc0504015ae:	38a78793          	addi	a5,a5,906 # ffffffc050451934 <screen_cursor_y>
ffffffc0504015b2:	439c                	lw	a5,0(a5)
ffffffc0504015b4:	37fd                	addiw	a5,a5,-1
ffffffc0504015b6:	0007871b          	sext.w	a4,a5
ffffffc0504015ba:	0c800793          	li	a5,200
ffffffc0504015be:	02f707bb          	mulw	a5,a4,a5
ffffffc0504015c2:	0007871b          	sext.w	a4,a5
ffffffc0504015c6:	00050797          	auipc	a5,0x50
ffffffc0504015ca:	36a78793          	addi	a5,a5,874 # ffffffc050451930 <screen_cursor_x>
ffffffc0504015ce:	439c                	lw	a5,0(a5)
ffffffc0504015d0:	37fd                	addiw	a5,a5,-1
ffffffc0504015d2:	2781                	sext.w	a5,a5
ffffffc0504015d4:	fec42683          	lw	a3,-20(s0)
ffffffc0504015d8:	9fb5                	addw	a5,a5,a3
ffffffc0504015da:	2781                	sext.w	a5,a5
ffffffc0504015dc:	9fb9                	addw	a5,a5,a4
ffffffc0504015de:	2781                	sext.w	a5,a5
ffffffc0504015e0:	0004b717          	auipc	a4,0x4b
ffffffc0504015e4:	43870713          	addi	a4,a4,1080 # ffffffc05044ca18 <new_screen>
ffffffc0504015e8:	97ba                	add	a5,a5,a4
ffffffc0504015ea:	02000713          	li	a4,32
ffffffc0504015ee:	00e78023          	sb	a4,0(a5)
ffffffc0504015f2:	fec42783          	lw	a5,-20(s0)
ffffffc0504015f6:	2785                	addiw	a5,a5,1
ffffffc0504015f8:	fef42623          	sw	a5,-20(s0)
ffffffc0504015fc:	fec42783          	lw	a5,-20(s0)
ffffffc050401600:	0007871b          	sext.w	a4,a5
ffffffc050401604:	478d                	li	a5,3
ffffffc050401606:	fae7d2e3          	bge	a5,a4,ffffffc0504015aa <screen_write_ch+0xb4>
ffffffc05040160a:	00050797          	auipc	a5,0x50
ffffffc05040160e:	32678793          	addi	a5,a5,806 # ffffffc050451930 <screen_cursor_x>
ffffffc050401612:	439c                	lw	a5,0(a5)
ffffffc050401614:	2791                	addiw	a5,a5,4
ffffffc050401616:	0007871b          	sext.w	a4,a5
ffffffc05040161a:	00050797          	auipc	a5,0x50
ffffffc05040161e:	31678793          	addi	a5,a5,790 # ffffffc050451930 <screen_cursor_x>
ffffffc050401622:	c398                	sw	a4,0(a5)
ffffffc050401624:	a859                	j	ffffffc0504016ba <screen_write_ch+0x1c4>
ffffffc050401626:	fdf44783          	lbu	a5,-33(s0)
ffffffc05040162a:	0ff7f713          	andi	a4,a5,255
ffffffc05040162e:	47a1                	li	a5,8
ffffffc050401630:	00f70a63          	beq	a4,a5,ffffffc050401644 <screen_write_ch+0x14e>
ffffffc050401634:	fdf44783          	lbu	a5,-33(s0)
ffffffc050401638:	0ff7f713          	andi	a4,a5,255
ffffffc05040163c:	07f00793          	li	a5,127
ffffffc050401640:	06f71063          	bne	a4,a5,ffffffc0504016a0 <screen_write_ch+0x1aa>
ffffffc050401644:	00050797          	auipc	a5,0x50
ffffffc050401648:	2f078793          	addi	a5,a5,752 # ffffffc050451934 <screen_cursor_y>
ffffffc05040164c:	439c                	lw	a5,0(a5)
ffffffc05040164e:	37fd                	addiw	a5,a5,-1
ffffffc050401650:	0007871b          	sext.w	a4,a5
ffffffc050401654:	0c800793          	li	a5,200
ffffffc050401658:	02f707bb          	mulw	a5,a4,a5
ffffffc05040165c:	0007871b          	sext.w	a4,a5
ffffffc050401660:	00050797          	auipc	a5,0x50
ffffffc050401664:	2d078793          	addi	a5,a5,720 # ffffffc050451930 <screen_cursor_x>
ffffffc050401668:	439c                	lw	a5,0(a5)
ffffffc05040166a:	37fd                	addiw	a5,a5,-1
ffffffc05040166c:	0007869b          	sext.w	a3,a5
ffffffc050401670:	00050797          	auipc	a5,0x50
ffffffc050401674:	2c078793          	addi	a5,a5,704 # ffffffc050451930 <screen_cursor_x>
ffffffc050401678:	c394                	sw	a3,0(a5)
ffffffc05040167a:	00050797          	auipc	a5,0x50
ffffffc05040167e:	2b678793          	addi	a5,a5,694 # ffffffc050451930 <screen_cursor_x>
ffffffc050401682:	439c                	lw	a5,0(a5)
ffffffc050401684:	37fd                	addiw	a5,a5,-1
ffffffc050401686:	2781                	sext.w	a5,a5
ffffffc050401688:	9fb9                	addw	a5,a5,a4
ffffffc05040168a:	2781                	sext.w	a5,a5
ffffffc05040168c:	0004b717          	auipc	a4,0x4b
ffffffc050401690:	38c70713          	addi	a4,a4,908 # ffffffc05044ca18 <new_screen>
ffffffc050401694:	97ba                	add	a5,a5,a4
ffffffc050401696:	02000713          	li	a4,32
ffffffc05040169a:	00e78023          	sb	a4,0(a5)
ffffffc05040169e:	a831                	j	ffffffc0504016ba <screen_write_ch+0x1c4>
ffffffc0504016a0:	00050797          	auipc	a5,0x50
ffffffc0504016a4:	29078793          	addi	a5,a5,656 # ffffffc050451930 <screen_cursor_x>
ffffffc0504016a8:	439c                	lw	a5,0(a5)
ffffffc0504016aa:	2785                	addiw	a5,a5,1
ffffffc0504016ac:	0007871b          	sext.w	a4,a5
ffffffc0504016b0:	00050797          	auipc	a5,0x50
ffffffc0504016b4:	28078793          	addi	a5,a5,640 # ffffffc050451930 <screen_cursor_x>
ffffffc0504016b8:	c398                	sw	a4,0(a5)
ffffffc0504016ba:	00050797          	auipc	a5,0x50
ffffffc0504016be:	27678793          	addi	a5,a5,630 # ffffffc050451930 <screen_cursor_x>
ffffffc0504016c2:	439c                	lw	a5,0(a5)
ffffffc0504016c4:	873e                	mv	a4,a5
ffffffc0504016c6:	0c800793          	li	a5,200
ffffffc0504016ca:	02f71563          	bne	a4,a5,ffffffc0504016f4 <screen_write_ch+0x1fe>
ffffffc0504016ce:	00050797          	auipc	a5,0x50
ffffffc0504016d2:	26278793          	addi	a5,a5,610 # ffffffc050451930 <screen_cursor_x>
ffffffc0504016d6:	0007a023          	sw	zero,0(a5)
ffffffc0504016da:	00050797          	auipc	a5,0x50
ffffffc0504016de:	25a78793          	addi	a5,a5,602 # ffffffc050451934 <screen_cursor_y>
ffffffc0504016e2:	439c                	lw	a5,0(a5)
ffffffc0504016e4:	2785                	addiw	a5,a5,1
ffffffc0504016e6:	0007871b          	sext.w	a4,a5
ffffffc0504016ea:	00050797          	auipc	a5,0x50
ffffffc0504016ee:	24a78793          	addi	a5,a5,586 # ffffffc050451934 <screen_cursor_y>
ffffffc0504016f2:	c398                	sw	a4,0(a5)
ffffffc0504016f4:	00050797          	auipc	a5,0x50
ffffffc0504016f8:	23c78793          	addi	a5,a5,572 # ffffffc050451930 <screen_cursor_x>
ffffffc0504016fc:	4398                	lw	a4,0(a5)
ffffffc0504016fe:	00050797          	auipc	a5,0x50
ffffffc050401702:	23678793          	addi	a5,a5,566 # ffffffc050451934 <screen_cursor_y>
ffffffc050401706:	439c                	lw	a5,0(a5)
ffffffc050401708:	85be                	mv	a1,a5
ffffffc05040170a:	853a                	mv	a0,a4
ffffffc05040170c:	d21ff0ef          	jal	ra,ffffffc05040142c <pcb_move_cursor>
ffffffc050401710:	0001                	nop
ffffffc050401712:	70a2                	ld	ra,40(sp)
ffffffc050401714:	7402                	ld	s0,32(sp)
ffffffc050401716:	6145                	addi	sp,sp,48
ffffffc050401718:	8082                	ret

ffffffc05040171a <init_screen>:
ffffffc05040171a:	1141                	addi	sp,sp,-16
ffffffc05040171c:	e406                	sd	ra,8(sp)
ffffffc05040171e:	e022                	sd	s0,0(sp)
ffffffc050401720:	0800                	addi	s0,sp,16
ffffffc050401722:	db5ff0ef          	jal	ra,ffffffc0504014d6 <vt100_hidden_cursor>
ffffffc050401726:	d91ff0ef          	jal	ra,ffffffc0504014b6 <vt100_clear>
ffffffc05040172a:	0001                	nop
ffffffc05040172c:	60a2                	ld	ra,8(sp)
ffffffc05040172e:	6402                	ld	s0,0(sp)
ffffffc050401730:	0141                	addi	sp,sp,16
ffffffc050401732:	8082                	ret

ffffffc050401734 <screen_clear>:
ffffffc050401734:	1101                	addi	sp,sp,-32
ffffffc050401736:	ec06                	sd	ra,24(sp)
ffffffc050401738:	e822                	sd	s0,16(sp)
ffffffc05040173a:	1000                	addi	s0,sp,32
ffffffc05040173c:	fe042623          	sw	zero,-20(s0)
ffffffc050401740:	a891                	j	ffffffc050401794 <screen_clear+0x60>
ffffffc050401742:	fe042423          	sw	zero,-24(s0)
ffffffc050401746:	a815                	j	ffffffc05040177a <screen_clear+0x46>
ffffffc050401748:	fec42703          	lw	a4,-20(s0)
ffffffc05040174c:	0c800793          	li	a5,200
ffffffc050401750:	02f707bb          	mulw	a5,a4,a5
ffffffc050401754:	2781                	sext.w	a5,a5
ffffffc050401756:	fe842703          	lw	a4,-24(s0)
ffffffc05040175a:	9fb9                	addw	a5,a5,a4
ffffffc05040175c:	2781                	sext.w	a5,a5
ffffffc05040175e:	0004b717          	auipc	a4,0x4b
ffffffc050401762:	2ba70713          	addi	a4,a4,698 # ffffffc05044ca18 <new_screen>
ffffffc050401766:	97ba                	add	a5,a5,a4
ffffffc050401768:	02000713          	li	a4,32
ffffffc05040176c:	00e78023          	sb	a4,0(a5)
ffffffc050401770:	fe842783          	lw	a5,-24(s0)
ffffffc050401774:	2785                	addiw	a5,a5,1
ffffffc050401776:	fef42423          	sw	a5,-24(s0)
ffffffc05040177a:	fe842783          	lw	a5,-24(s0)
ffffffc05040177e:	0007871b          	sext.w	a4,a5
ffffffc050401782:	0c700793          	li	a5,199
ffffffc050401786:	fce7d1e3          	bge	a5,a4,ffffffc050401748 <screen_clear+0x14>
ffffffc05040178a:	fec42783          	lw	a5,-20(s0)
ffffffc05040178e:	2785                	addiw	a5,a5,1
ffffffc050401790:	fef42623          	sw	a5,-20(s0)
ffffffc050401794:	fec42783          	lw	a5,-20(s0)
ffffffc050401798:	0007871b          	sext.w	a4,a5
ffffffc05040179c:	03100793          	li	a5,49
ffffffc0504017a0:	fae7d1e3          	bge	a5,a4,ffffffc050401742 <screen_clear+0xe>
ffffffc0504017a4:	4585                	li	a1,1
ffffffc0504017a6:	4505                	li	a0,1
ffffffc0504017a8:	c4dff0ef          	jal	ra,ffffffc0504013f4 <kernel_move_cursor>
ffffffc0504017ac:	4585                	li	a1,1
ffffffc0504017ae:	4505                	li	a0,1
ffffffc0504017b0:	c7dff0ef          	jal	ra,ffffffc05040142c <pcb_move_cursor>
ffffffc0504017b4:	126000ef          	jal	ra,ffffffc0504018da <screen_reflush>
ffffffc0504017b8:	0001                	nop
ffffffc0504017ba:	60e2                	ld	ra,24(sp)
ffffffc0504017bc:	6442                	ld	s0,16(sp)
ffffffc0504017be:	6105                	addi	sp,sp,32
ffffffc0504017c0:	8082                	ret

ffffffc0504017c2 <screen_move_cursor>:
ffffffc0504017c2:	1101                	addi	sp,sp,-32
ffffffc0504017c4:	ec06                	sd	ra,24(sp)
ffffffc0504017c6:	e822                	sd	s0,16(sp)
ffffffc0504017c8:	1000                	addi	s0,sp,32
ffffffc0504017ca:	87aa                	mv	a5,a0
ffffffc0504017cc:	872e                	mv	a4,a1
ffffffc0504017ce:	fef42623          	sw	a5,-20(s0)
ffffffc0504017d2:	87ba                	mv	a5,a4
ffffffc0504017d4:	fef42423          	sw	a5,-24(s0)
ffffffc0504017d8:	fe842703          	lw	a4,-24(s0)
ffffffc0504017dc:	fec42783          	lw	a5,-20(s0)
ffffffc0504017e0:	85ba                	mv	a1,a4
ffffffc0504017e2:	853e                	mv	a0,a5
ffffffc0504017e4:	c11ff0ef          	jal	ra,ffffffc0504013f4 <kernel_move_cursor>
ffffffc0504017e8:	fe842703          	lw	a4,-24(s0)
ffffffc0504017ec:	fec42783          	lw	a5,-20(s0)
ffffffc0504017f0:	85ba                	mv	a1,a4
ffffffc0504017f2:	853e                	mv	a0,a5
ffffffc0504017f4:	c39ff0ef          	jal	ra,ffffffc05040142c <pcb_move_cursor>
ffffffc0504017f8:	0001                	nop
ffffffc0504017fa:	60e2                	ld	ra,24(sp)
ffffffc0504017fc:	6442                	ld	s0,16(sp)
ffffffc0504017fe:	6105                	addi	sp,sp,32
ffffffc050401800:	8082                	ret

ffffffc050401802 <load_curpcb_cursor>:
ffffffc050401802:	1141                	addi	sp,sp,-16
ffffffc050401804:	e406                	sd	ra,8(sp)
ffffffc050401806:	e022                	sd	s0,0(sp)
ffffffc050401808:	0800                	addi	s0,sp,16
ffffffc05040180a:	00051797          	auipc	a5,0x51
ffffffc05040180e:	80678793          	addi	a5,a5,-2042 # ffffffc050452010 <current_running>
ffffffc050401812:	639c                	ld	a5,0(a5)
ffffffc050401814:	639c                	ld	a5,0(a5)
ffffffc050401816:	5f98                	lw	a4,56(a5)
ffffffc050401818:	00050797          	auipc	a5,0x50
ffffffc05040181c:	7f878793          	addi	a5,a5,2040 # ffffffc050452010 <current_running>
ffffffc050401820:	639c                	ld	a5,0(a5)
ffffffc050401822:	639c                	ld	a5,0(a5)
ffffffc050401824:	5fdc                	lw	a5,60(a5)
ffffffc050401826:	85be                	mv	a1,a5
ffffffc050401828:	853a                	mv	a0,a4
ffffffc05040182a:	bcbff0ef          	jal	ra,ffffffc0504013f4 <kernel_move_cursor>
ffffffc05040182e:	0001                	nop
ffffffc050401830:	60a2                	ld	ra,8(sp)
ffffffc050401832:	6402                	ld	s0,0(sp)
ffffffc050401834:	0141                	addi	sp,sp,16
ffffffc050401836:	8082                	ret

ffffffc050401838 <screen_write>:
ffffffc050401838:	7179                	addi	sp,sp,-48
ffffffc05040183a:	f406                	sd	ra,40(sp)
ffffffc05040183c:	f022                	sd	s0,32(sp)
ffffffc05040183e:	1800                	addi	s0,sp,48
ffffffc050401840:	fca43c23          	sd	a0,-40(s0)
ffffffc050401844:	fbfff0ef          	jal	ra,ffffffc050401802 <load_curpcb_cursor>
ffffffc050401848:	fe042623          	sw	zero,-20(s0)
ffffffc05040184c:	fd843503          	ld	a0,-40(s0)
ffffffc050401850:	08c050ef          	jal	ra,ffffffc0504068dc <strlen>
ffffffc050401854:	87aa                	mv	a5,a0
ffffffc050401856:	fef42423          	sw	a5,-24(s0)
ffffffc05040185a:	fe042623          	sw	zero,-20(s0)
ffffffc05040185e:	a005                	j	ffffffc05040187e <screen_write+0x46>
ffffffc050401860:	fec42783          	lw	a5,-20(s0)
ffffffc050401864:	fd843703          	ld	a4,-40(s0)
ffffffc050401868:	97ba                	add	a5,a5,a4
ffffffc05040186a:	0007c783          	lbu	a5,0(a5)
ffffffc05040186e:	853e                	mv	a0,a5
ffffffc050401870:	c87ff0ef          	jal	ra,ffffffc0504014f6 <screen_write_ch>
ffffffc050401874:	fec42783          	lw	a5,-20(s0)
ffffffc050401878:	2785                	addiw	a5,a5,1
ffffffc05040187a:	fef42623          	sw	a5,-20(s0)
ffffffc05040187e:	fec42703          	lw	a4,-20(s0)
ffffffc050401882:	fe842783          	lw	a5,-24(s0)
ffffffc050401886:	2701                	sext.w	a4,a4
ffffffc050401888:	2781                	sext.w	a5,a5
ffffffc05040188a:	fcf74be3          	blt	a4,a5,ffffffc050401860 <screen_write+0x28>
ffffffc05040188e:	04c000ef          	jal	ra,ffffffc0504018da <screen_reflush>
ffffffc050401892:	0001                	nop
ffffffc050401894:	70a2                	ld	ra,40(sp)
ffffffc050401896:	7402                	ld	s0,32(sp)
ffffffc050401898:	6145                	addi	sp,sp,48
ffffffc05040189a:	8082                	ret

ffffffc05040189c <get_cursor>:
ffffffc05040189c:	1101                	addi	sp,sp,-32
ffffffc05040189e:	ec22                	sd	s0,24(sp)
ffffffc0504018a0:	1000                	addi	s0,sp,32
ffffffc0504018a2:	fea43423          	sd	a0,-24(s0)
ffffffc0504018a6:	feb43023          	sd	a1,-32(s0)
ffffffc0504018aa:	00050797          	auipc	a5,0x50
ffffffc0504018ae:	76678793          	addi	a5,a5,1894 # ffffffc050452010 <current_running>
ffffffc0504018b2:	639c                	ld	a5,0(a5)
ffffffc0504018b4:	639c                	ld	a5,0(a5)
ffffffc0504018b6:	5f98                	lw	a4,56(a5)
ffffffc0504018b8:	fe843783          	ld	a5,-24(s0)
ffffffc0504018bc:	c398                	sw	a4,0(a5)
ffffffc0504018be:	00050797          	auipc	a5,0x50
ffffffc0504018c2:	75278793          	addi	a5,a5,1874 # ffffffc050452010 <current_running>
ffffffc0504018c6:	639c                	ld	a5,0(a5)
ffffffc0504018c8:	639c                	ld	a5,0(a5)
ffffffc0504018ca:	5fd8                	lw	a4,60(a5)
ffffffc0504018cc:	fe043783          	ld	a5,-32(s0)
ffffffc0504018d0:	c398                	sw	a4,0(a5)
ffffffc0504018d2:	0001                	nop
ffffffc0504018d4:	6462                	ld	s0,24(sp)
ffffffc0504018d6:	6105                	addi	sp,sp,32
ffffffc0504018d8:	8082                	ret

ffffffc0504018da <screen_reflush>:
ffffffc0504018da:	1101                	addi	sp,sp,-32
ffffffc0504018dc:	ec06                	sd	ra,24(sp)
ffffffc0504018de:	e822                	sd	s0,16(sp)
ffffffc0504018e0:	1000                	addi	s0,sp,32
ffffffc0504018e2:	fe042623          	sw	zero,-20(s0)
ffffffc0504018e6:	a221                	j	ffffffc0504019ee <screen_reflush+0x114>
ffffffc0504018e8:	fe042423          	sw	zero,-24(s0)
ffffffc0504018ec:	a0e5                	j	ffffffc0504019d4 <screen_reflush+0xfa>
ffffffc0504018ee:	fec42703          	lw	a4,-20(s0)
ffffffc0504018f2:	0c800793          	li	a5,200
ffffffc0504018f6:	02f707bb          	mulw	a5,a4,a5
ffffffc0504018fa:	2781                	sext.w	a5,a5
ffffffc0504018fc:	fe842703          	lw	a4,-24(s0)
ffffffc050401900:	9fb9                	addw	a5,a5,a4
ffffffc050401902:	2781                	sext.w	a5,a5
ffffffc050401904:	0004b717          	auipc	a4,0x4b
ffffffc050401908:	11470713          	addi	a4,a4,276 # ffffffc05044ca18 <new_screen>
ffffffc05040190c:	97ba                	add	a5,a5,a4
ffffffc05040190e:	0007c683          	lbu	a3,0(a5)
ffffffc050401912:	fec42703          	lw	a4,-20(s0)
ffffffc050401916:	0c800793          	li	a5,200
ffffffc05040191a:	02f707bb          	mulw	a5,a4,a5
ffffffc05040191e:	2781                	sext.w	a5,a5
ffffffc050401920:	fe842703          	lw	a4,-24(s0)
ffffffc050401924:	9fb9                	addw	a5,a5,a4
ffffffc050401926:	2781                	sext.w	a5,a5
ffffffc050401928:	0004e717          	auipc	a4,0x4e
ffffffc05040192c:	80070713          	addi	a4,a4,-2048 # ffffffc05044f128 <old_screen>
ffffffc050401930:	97ba                	add	a5,a5,a4
ffffffc050401932:	0007c783          	lbu	a5,0(a5)
ffffffc050401936:	8736                	mv	a4,a3
ffffffc050401938:	08f70963          	beq	a4,a5,ffffffc0504019ca <screen_reflush+0xf0>
ffffffc05040193c:	fe842783          	lw	a5,-24(s0)
ffffffc050401940:	2785                	addiw	a5,a5,1
ffffffc050401942:	0007871b          	sext.w	a4,a5
ffffffc050401946:	fec42783          	lw	a5,-20(s0)
ffffffc05040194a:	2785                	addiw	a5,a5,1
ffffffc05040194c:	2781                	sext.w	a5,a5
ffffffc05040194e:	85be                	mv	a1,a5
ffffffc050401950:	853a                	mv	a0,a4
ffffffc050401952:	b1bff0ef          	jal	ra,ffffffc05040146c <vt100_move_cursor>
ffffffc050401956:	fec42703          	lw	a4,-20(s0)
ffffffc05040195a:	0c800793          	li	a5,200
ffffffc05040195e:	02f707bb          	mulw	a5,a4,a5
ffffffc050401962:	2781                	sext.w	a5,a5
ffffffc050401964:	fe842703          	lw	a4,-24(s0)
ffffffc050401968:	9fb9                	addw	a5,a5,a4
ffffffc05040196a:	2781                	sext.w	a5,a5
ffffffc05040196c:	0004b717          	auipc	a4,0x4b
ffffffc050401970:	0ac70713          	addi	a4,a4,172 # ffffffc05044ca18 <new_screen>
ffffffc050401974:	97ba                	add	a5,a5,a4
ffffffc050401976:	0007c783          	lbu	a5,0(a5)
ffffffc05040197a:	853e                	mv	a0,a5
ffffffc05040197c:	967fe0ef          	jal	ra,ffffffc0504002e2 <port_write_ch>
ffffffc050401980:	fec42703          	lw	a4,-20(s0)
ffffffc050401984:	0c800793          	li	a5,200
ffffffc050401988:	02f707bb          	mulw	a5,a4,a5
ffffffc05040198c:	2781                	sext.w	a5,a5
ffffffc05040198e:	fe842703          	lw	a4,-24(s0)
ffffffc050401992:	9fb9                	addw	a5,a5,a4
ffffffc050401994:	0007871b          	sext.w	a4,a5
ffffffc050401998:	fec42683          	lw	a3,-20(s0)
ffffffc05040199c:	0c800793          	li	a5,200
ffffffc0504019a0:	02f687bb          	mulw	a5,a3,a5
ffffffc0504019a4:	2781                	sext.w	a5,a5
ffffffc0504019a6:	fe842683          	lw	a3,-24(s0)
ffffffc0504019aa:	9fb5                	addw	a5,a5,a3
ffffffc0504019ac:	2781                	sext.w	a5,a5
ffffffc0504019ae:	0004b697          	auipc	a3,0x4b
ffffffc0504019b2:	06a68693          	addi	a3,a3,106 # ffffffc05044ca18 <new_screen>
ffffffc0504019b6:	9736                	add	a4,a4,a3
ffffffc0504019b8:	00074703          	lbu	a4,0(a4)
ffffffc0504019bc:	0004d697          	auipc	a3,0x4d
ffffffc0504019c0:	76c68693          	addi	a3,a3,1900 # ffffffc05044f128 <old_screen>
ffffffc0504019c4:	97b6                	add	a5,a5,a3
ffffffc0504019c6:	00e78023          	sb	a4,0(a5)
ffffffc0504019ca:	fe842783          	lw	a5,-24(s0)
ffffffc0504019ce:	2785                	addiw	a5,a5,1
ffffffc0504019d0:	fef42423          	sw	a5,-24(s0)
ffffffc0504019d4:	fe842783          	lw	a5,-24(s0)
ffffffc0504019d8:	0007871b          	sext.w	a4,a5
ffffffc0504019dc:	0c700793          	li	a5,199
ffffffc0504019e0:	f0e7d7e3          	bge	a5,a4,ffffffc0504018ee <screen_reflush+0x14>
ffffffc0504019e4:	fec42783          	lw	a5,-20(s0)
ffffffc0504019e8:	2785                	addiw	a5,a5,1
ffffffc0504019ea:	fef42623          	sw	a5,-20(s0)
ffffffc0504019ee:	fec42783          	lw	a5,-20(s0)
ffffffc0504019f2:	0007871b          	sext.w	a4,a5
ffffffc0504019f6:	03100793          	li	a5,49
ffffffc0504019fa:	eee7d7e3          	bge	a5,a4,ffffffc0504018e8 <screen_reflush+0xe>
ffffffc0504019fe:	00050797          	auipc	a5,0x50
ffffffc050401a02:	f3278793          	addi	a5,a5,-206 # ffffffc050451930 <screen_cursor_x>
ffffffc050401a06:	4398                	lw	a4,0(a5)
ffffffc050401a08:	00050797          	auipc	a5,0x50
ffffffc050401a0c:	f2c78793          	addi	a5,a5,-212 # ffffffc050451934 <screen_cursor_y>
ffffffc050401a10:	439c                	lw	a5,0(a5)
ffffffc050401a12:	85be                	mv	a1,a5
ffffffc050401a14:	853a                	mv	a0,a4
ffffffc050401a16:	a57ff0ef          	jal	ra,ffffffc05040146c <vt100_move_cursor>
ffffffc050401a1a:	0001                	nop
ffffffc050401a1c:	60e2                	ld	ra,24(sp)
ffffffc050401a1e:	6442                	ld	s0,16(sp)
ffffffc050401a20:	6105                	addi	sp,sp,32
ffffffc050401a22:	8082                	ret

ffffffc050401a24 <init_list_head>:
ffffffc050401a24:	1101                	addi	sp,sp,-32
ffffffc050401a26:	ec22                	sd	s0,24(sp)
ffffffc050401a28:	1000                	addi	s0,sp,32
ffffffc050401a2a:	fea43423          	sd	a0,-24(s0)
ffffffc050401a2e:	fe843783          	ld	a5,-24(s0)
ffffffc050401a32:	fe843703          	ld	a4,-24(s0)
ffffffc050401a36:	e398                	sd	a4,0(a5)
ffffffc050401a38:	fe843783          	ld	a5,-24(s0)
ffffffc050401a3c:	fe843703          	ld	a4,-24(s0)
ffffffc050401a40:	e798                	sd	a4,8(a5)
ffffffc050401a42:	0001                	nop
ffffffc050401a44:	6462                	ld	s0,24(sp)
ffffffc050401a46:	6105                	addi	sp,sp,32
ffffffc050401a48:	8082                	ret

ffffffc050401a4a <list_is_empty>:
ffffffc050401a4a:	1101                	addi	sp,sp,-32
ffffffc050401a4c:	ec22                	sd	s0,24(sp)
ffffffc050401a4e:	1000                	addi	s0,sp,32
ffffffc050401a50:	fea43423          	sd	a0,-24(s0)
ffffffc050401a54:	fe843783          	ld	a5,-24(s0)
ffffffc050401a58:	639c                	ld	a5,0(a5)
ffffffc050401a5a:	fe843703          	ld	a4,-24(s0)
ffffffc050401a5e:	40f707b3          	sub	a5,a4,a5
ffffffc050401a62:	0017b793          	seqz	a5,a5
ffffffc050401a66:	0ff7f793          	andi	a5,a5,255
ffffffc050401a6a:	2781                	sext.w	a5,a5
ffffffc050401a6c:	853e                	mv	a0,a5
ffffffc050401a6e:	6462                	ld	s0,24(sp)
ffffffc050401a70:	6105                	addi	sp,sp,32
ffffffc050401a72:	8082                	ret

ffffffc050401a74 <atomic_swap_d>:
ffffffc050401a74:	7179                	addi	sp,sp,-48
ffffffc050401a76:	f422                	sd	s0,40(sp)
ffffffc050401a78:	1800                	addi	s0,sp,48
ffffffc050401a7a:	fca43c23          	sd	a0,-40(s0)
ffffffc050401a7e:	fcb43823          	sd	a1,-48(s0)
ffffffc050401a82:	fd043783          	ld	a5,-48(s0)
ffffffc050401a86:	fd843703          	ld	a4,-40(s0)
ffffffc050401a8a:	08e7b72f          	amoswap.d	a4,a4,(a5)
ffffffc050401a8e:	fee43423          	sd	a4,-24(s0)
ffffffc050401a92:	fe843783          	ld	a5,-24(s0)
ffffffc050401a96:	853e                	mv	a0,a5
ffffffc050401a98:	7422                	ld	s0,40(sp)
ffffffc050401a9a:	6145                	addi	sp,sp,48
ffffffc050401a9c:	8082                	ret

ffffffc050401a9e <atomic_cmpxchg>:
ffffffc050401a9e:	7179                	addi	sp,sp,-48
ffffffc050401aa0:	f422                	sd	s0,40(sp)
ffffffc050401aa2:	1800                	addi	s0,sp,48
ffffffc050401aa4:	87aa                	mv	a5,a0
ffffffc050401aa6:	872e                	mv	a4,a1
ffffffc050401aa8:	fcc43823          	sd	a2,-48(s0)
ffffffc050401aac:	fcf42e23          	sw	a5,-36(s0)
ffffffc050401ab0:	87ba                	mv	a5,a4
ffffffc050401ab2:	fcf42c23          	sw	a5,-40(s0)
ffffffc050401ab6:	fd043783          	ld	a5,-48(s0)
ffffffc050401aba:	fdc42703          	lw	a4,-36(s0)
ffffffc050401abe:	fd842683          	lw	a3,-40(s0)
ffffffc050401ac2:	4390                	lw	a2,0(a5)
ffffffc050401ac4:	00e61563          	bne	a2,a4,ffffffc050401ace <atomic_cmpxchg+0x30>
ffffffc050401ac8:	c394                	sw	a3,0(a5)
ffffffc050401aca:	0ff0000f          	fence
ffffffc050401ace:	fec42623          	sw	a2,-20(s0)
ffffffc050401ad2:	fec42783          	lw	a5,-20(s0)
ffffffc050401ad6:	853e                	mv	a0,a5
ffffffc050401ad8:	7422                	ld	s0,40(sp)
ffffffc050401ada:	6145                	addi	sp,sp,48
ffffffc050401adc:	8082                	ret

ffffffc050401ade <spin_lock_init>:
ffffffc050401ade:	1101                	addi	sp,sp,-32
ffffffc050401ae0:	ec22                	sd	s0,24(sp)
ffffffc050401ae2:	1000                	addi	s0,sp,32
ffffffc050401ae4:	fea43423          	sd	a0,-24(s0)
ffffffc050401ae8:	fe843783          	ld	a5,-24(s0)
ffffffc050401aec:	0007a023          	sw	zero,0(a5)
ffffffc050401af0:	0001                	nop
ffffffc050401af2:	6462                	ld	s0,24(sp)
ffffffc050401af4:	6105                	addi	sp,sp,32
ffffffc050401af6:	8082                	ret

ffffffc050401af8 <spin_lock_try_acquire>:
ffffffc050401af8:	1101                	addi	sp,sp,-32
ffffffc050401afa:	ec06                	sd	ra,24(sp)
ffffffc050401afc:	e822                	sd	s0,16(sp)
ffffffc050401afe:	1000                	addi	s0,sp,32
ffffffc050401b00:	fea43423          	sd	a0,-24(s0)
ffffffc050401b04:	fe843783          	ld	a5,-24(s0)
ffffffc050401b08:	85be                	mv	a1,a5
ffffffc050401b0a:	4505                	li	a0,1
ffffffc050401b0c:	f69ff0ef          	jal	ra,ffffffc050401a74 <atomic_swap_d>
ffffffc050401b10:	87aa                	mv	a5,a0
ffffffc050401b12:	2781                	sext.w	a5,a5
ffffffc050401b14:	853e                	mv	a0,a5
ffffffc050401b16:	60e2                	ld	ra,24(sp)
ffffffc050401b18:	6442                	ld	s0,16(sp)
ffffffc050401b1a:	6105                	addi	sp,sp,32
ffffffc050401b1c:	8082                	ret

ffffffc050401b1e <spin_lock_acquire>:
ffffffc050401b1e:	1101                	addi	sp,sp,-32
ffffffc050401b20:	ec06                	sd	ra,24(sp)
ffffffc050401b22:	e822                	sd	s0,16(sp)
ffffffc050401b24:	1000                	addi	s0,sp,32
ffffffc050401b26:	fea43423          	sd	a0,-24(s0)
ffffffc050401b2a:	0001                	nop
ffffffc050401b2c:	fe843503          	ld	a0,-24(s0)
ffffffc050401b30:	fc9ff0ef          	jal	ra,ffffffc050401af8 <spin_lock_try_acquire>
ffffffc050401b34:	87aa                	mv	a5,a0
ffffffc050401b36:	873e                	mv	a4,a5
ffffffc050401b38:	4785                	li	a5,1
ffffffc050401b3a:	fef709e3          	beq	a4,a5,ffffffc050401b2c <spin_lock_acquire+0xe>
ffffffc050401b3e:	0001                	nop
ffffffc050401b40:	0001                	nop
ffffffc050401b42:	60e2                	ld	ra,24(sp)
ffffffc050401b44:	6442                	ld	s0,16(sp)
ffffffc050401b46:	6105                	addi	sp,sp,32
ffffffc050401b48:	8082                	ret

ffffffc050401b4a <spin_lock_release>:
ffffffc050401b4a:	1101                	addi	sp,sp,-32
ffffffc050401b4c:	ec22                	sd	s0,24(sp)
ffffffc050401b4e:	1000                	addi	s0,sp,32
ffffffc050401b50:	fea43423          	sd	a0,-24(s0)
ffffffc050401b54:	fe843783          	ld	a5,-24(s0)
ffffffc050401b58:	0007a023          	sw	zero,0(a5)
ffffffc050401b5c:	0001                	nop
ffffffc050401b5e:	6462                	ld	s0,24(sp)
ffffffc050401b60:	6105                	addi	sp,sp,32
ffffffc050401b62:	8082                	ret

ffffffc050401b64 <assert_supervisor_mode>:
ffffffc050401b64:	1141                	addi	sp,sp,-16
ffffffc050401b66:	e422                	sd	s0,8(sp)
ffffffc050401b68:	0800                	addi	s0,sp,16
ffffffc050401b6a:	14002073          	csrr	zero,sscratch
ffffffc050401b6e:	0001                	nop
ffffffc050401b70:	6422                	ld	s0,8(sp)
ffffffc050401b72:	0141                	addi	sp,sp,16
ffffffc050401b74:	8082                	ret

ffffffc050401b76 <k_mutex_lock_op>:
ffffffc050401b76:	7179                	addi	sp,sp,-48
ffffffc050401b78:	f406                	sd	ra,40(sp)
ffffffc050401b7a:	f022                	sd	s0,32(sp)
ffffffc050401b7c:	1800                	addi	s0,sp,48
ffffffc050401b7e:	fca43c23          	sd	a0,-40(s0)
ffffffc050401b82:	87ae                	mv	a5,a1
ffffffc050401b84:	fcf42a23          	sw	a5,-44(s0)
ffffffc050401b88:	fddff0ef          	jal	ra,ffffffc050401b64 <assert_supervisor_mode>
ffffffc050401b8c:	00050797          	auipc	a5,0x50
ffffffc050401b90:	48478793          	addi	a5,a5,1156 # ffffffc050452010 <current_running>
ffffffc050401b94:	639c                	ld	a5,0(a5)
ffffffc050401b96:	639c                	ld	a5,0(a5)
ffffffc050401b98:	579c                	lw	a5,40(a5)
ffffffc050401b9a:	fef42623          	sw	a5,-20(s0)
ffffffc050401b9e:	fd442783          	lw	a5,-44(s0)
ffffffc050401ba2:	2781                	sext.w	a5,a5
ffffffc050401ba4:	eb91                	bnez	a5,ffffffc050401bb8 <k_mutex_lock_op+0x42>
ffffffc050401ba6:	fec42783          	lw	a5,-20(s0)
ffffffc050401baa:	85be                	mv	a1,a5
ffffffc050401bac:	fd843503          	ld	a0,-40(s0)
ffffffc050401bb0:	102000ef          	jal	ra,ffffffc050401cb2 <k_mutex_lock_init>
ffffffc050401bb4:	87aa                	mv	a5,a0
ffffffc050401bb6:	a851                	j	ffffffc050401c4a <k_mutex_lock_op+0xd4>
ffffffc050401bb8:	fd442783          	lw	a5,-44(s0)
ffffffc050401bbc:	0007871b          	sext.w	a4,a5
ffffffc050401bc0:	4785                	li	a5,1
ffffffc050401bc2:	00f71f63          	bne	a4,a5,ffffffc050401be0 <k_mutex_lock_op+0x6a>
ffffffc050401bc6:	fd843783          	ld	a5,-40(s0)
ffffffc050401bca:	439c                	lw	a5,0(a5)
ffffffc050401bcc:	37fd                	addiw	a5,a5,-1
ffffffc050401bce:	2781                	sext.w	a5,a5
ffffffc050401bd0:	fec42703          	lw	a4,-20(s0)
ffffffc050401bd4:	85ba                	mv	a1,a4
ffffffc050401bd6:	853e                	mv	a0,a5
ffffffc050401bd8:	220000ef          	jal	ra,ffffffc050401df8 <k_mutex_lock_acquire>
ffffffc050401bdc:	87aa                	mv	a5,a0
ffffffc050401bde:	a0b5                	j	ffffffc050401c4a <k_mutex_lock_op+0xd4>
ffffffc050401be0:	fd442783          	lw	a5,-44(s0)
ffffffc050401be4:	0007871b          	sext.w	a4,a5
ffffffc050401be8:	4789                	li	a5,2
ffffffc050401bea:	00f71f63          	bne	a4,a5,ffffffc050401c08 <k_mutex_lock_op+0x92>
ffffffc050401bee:	fd843783          	ld	a5,-40(s0)
ffffffc050401bf2:	439c                	lw	a5,0(a5)
ffffffc050401bf4:	37fd                	addiw	a5,a5,-1
ffffffc050401bf6:	2781                	sext.w	a5,a5
ffffffc050401bf8:	fec42703          	lw	a4,-20(s0)
ffffffc050401bfc:	85ba                	mv	a1,a4
ffffffc050401bfe:	853e                	mv	a0,a5
ffffffc050401c00:	372000ef          	jal	ra,ffffffc050401f72 <k_mutex_lock_release>
ffffffc050401c04:	87aa                	mv	a5,a0
ffffffc050401c06:	a091                	j	ffffffc050401c4a <k_mutex_lock_op+0xd4>
ffffffc050401c08:	fd442783          	lw	a5,-44(s0)
ffffffc050401c0c:	0007871b          	sext.w	a4,a5
ffffffc050401c10:	478d                	li	a5,3
ffffffc050401c12:	00f71b63          	bne	a4,a5,ffffffc050401c28 <k_mutex_lock_op+0xb2>
ffffffc050401c16:	fec42783          	lw	a5,-20(s0)
ffffffc050401c1a:	85be                	mv	a1,a5
ffffffc050401c1c:	fd843503          	ld	a0,-40(s0)
ffffffc050401c20:	498000ef          	jal	ra,ffffffc0504020b8 <k_mutex_lock_destroy>
ffffffc050401c24:	87aa                	mv	a5,a0
ffffffc050401c26:	a015                	j	ffffffc050401c4a <k_mutex_lock_op+0xd4>
ffffffc050401c28:	fd442783          	lw	a5,-44(s0)
ffffffc050401c2c:	0007871b          	sext.w	a4,a5
ffffffc050401c30:	4791                	li	a5,4
ffffffc050401c32:	00f71b63          	bne	a4,a5,ffffffc050401c48 <k_mutex_lock_op+0xd2>
ffffffc050401c36:	fec42783          	lw	a5,-20(s0)
ffffffc050401c3a:	85be                	mv	a1,a5
ffffffc050401c3c:	fd843503          	ld	a0,-40(s0)
ffffffc050401c40:	544000ef          	jal	ra,ffffffc050402184 <k_mutex_lock_trylock>
ffffffc050401c44:	87aa                	mv	a5,a0
ffffffc050401c46:	a011                	j	ffffffc050401c4a <k_mutex_lock_op+0xd4>
ffffffc050401c48:	57fd                	li	a5,-1
ffffffc050401c4a:	853e                	mv	a0,a5
ffffffc050401c4c:	70a2                	ld	ra,40(sp)
ffffffc050401c4e:	7402                	ld	s0,32(sp)
ffffffc050401c50:	6145                	addi	sp,sp,48
ffffffc050401c52:	8082                	ret

ffffffc050401c54 <find_lock>:
ffffffc050401c54:	1101                	addi	sp,sp,-32
ffffffc050401c56:	ec22                	sd	s0,24(sp)
ffffffc050401c58:	1000                	addi	s0,sp,32
ffffffc050401c5a:	fe042423          	sw	zero,-24(s0)
ffffffc050401c5e:	fe042623          	sw	zero,-20(s0)
ffffffc050401c62:	a03d                	j	ffffffc050401c90 <find_lock+0x3c>
ffffffc050401c64:	00050717          	auipc	a4,0x50
ffffffc050401c68:	cd470713          	addi	a4,a4,-812 # ffffffc050451938 <locks>
ffffffc050401c6c:	fec42783          	lw	a5,-20(s0)
ffffffc050401c70:	078e                	slli	a5,a5,0x3
ffffffc050401c72:	97ba                	add	a5,a5,a4
ffffffc050401c74:	639c                	ld	a5,0(a5)
ffffffc050401c76:	43dc                	lw	a5,4(a5)
ffffffc050401c78:	e799                	bnez	a5,ffffffc050401c86 <find_lock+0x32>
ffffffc050401c7a:	4785                	li	a5,1
ffffffc050401c7c:	fef42423          	sw	a5,-24(s0)
ffffffc050401c80:	fec42783          	lw	a5,-20(s0)
ffffffc050401c84:	a01d                	j	ffffffc050401caa <find_lock+0x56>
ffffffc050401c86:	fec42783          	lw	a5,-20(s0)
ffffffc050401c8a:	2785                	addiw	a5,a5,1
ffffffc050401c8c:	fef42623          	sw	a5,-20(s0)
ffffffc050401c90:	fec42783          	lw	a5,-20(s0)
ffffffc050401c94:	0007871b          	sext.w	a4,a5
ffffffc050401c98:	47fd                	li	a5,31
ffffffc050401c9a:	fce7d5e3          	bge	a5,a4,ffffffc050401c64 <find_lock+0x10>
ffffffc050401c9e:	fe842783          	lw	a5,-24(s0)
ffffffc050401ca2:	2781                	sext.w	a5,a5
ffffffc050401ca4:	e399                	bnez	a5,ffffffc050401caa <find_lock+0x56>
ffffffc050401ca6:	57fd                	li	a5,-1
ffffffc050401ca8:	a009                	j	ffffffc050401caa <find_lock+0x56>
ffffffc050401caa:	853e                	mv	a0,a5
ffffffc050401cac:	6462                	ld	s0,24(sp)
ffffffc050401cae:	6105                	addi	sp,sp,32
ffffffc050401cb0:	8082                	ret

ffffffc050401cb2 <k_mutex_lock_init>:
ffffffc050401cb2:	7179                	addi	sp,sp,-48
ffffffc050401cb4:	f406                	sd	ra,40(sp)
ffffffc050401cb6:	f022                	sd	s0,32(sp)
ffffffc050401cb8:	1800                	addi	s0,sp,48
ffffffc050401cba:	fca43c23          	sd	a0,-40(s0)
ffffffc050401cbe:	87ae                	mv	a5,a1
ffffffc050401cc0:	fcf42a23          	sw	a5,-44(s0)
ffffffc050401cc4:	ea1ff0ef          	jal	ra,ffffffc050401b64 <assert_supervisor_mode>
ffffffc050401cc8:	0004b797          	auipc	a5,0x4b
ffffffc050401ccc:	cf078793          	addi	a5,a5,-784 # ffffffc05044c9b8 <first_time>
ffffffc050401cd0:	439c                	lw	a5,0(a5)
ffffffc050401cd2:	cfb9                	beqz	a5,ffffffc050401d30 <k_mutex_lock_init+0x7e>
ffffffc050401cd4:	fe042623          	sw	zero,-20(s0)
ffffffc050401cd8:	a83d                	j	ffffffc050401d16 <k_mutex_lock_init+0x64>
ffffffc050401cda:	02000513          	li	a0,32
ffffffc050401cde:	1f2040ef          	jal	ra,ffffffc050405ed0 <kmalloc>
ffffffc050401ce2:	86aa                	mv	a3,a0
ffffffc050401ce4:	00050717          	auipc	a4,0x50
ffffffc050401ce8:	c5470713          	addi	a4,a4,-940 # ffffffc050451938 <locks>
ffffffc050401cec:	fec42783          	lw	a5,-20(s0)
ffffffc050401cf0:	078e                	slli	a5,a5,0x3
ffffffc050401cf2:	97ba                	add	a5,a5,a4
ffffffc050401cf4:	e394                	sd	a3,0(a5)
ffffffc050401cf6:	00050717          	auipc	a4,0x50
ffffffc050401cfa:	c4270713          	addi	a4,a4,-958 # ffffffc050451938 <locks>
ffffffc050401cfe:	fec42783          	lw	a5,-20(s0)
ffffffc050401d02:	078e                	slli	a5,a5,0x3
ffffffc050401d04:	97ba                	add	a5,a5,a4
ffffffc050401d06:	639c                	ld	a5,0(a5)
ffffffc050401d08:	0007a223          	sw	zero,4(a5)
ffffffc050401d0c:	fec42783          	lw	a5,-20(s0)
ffffffc050401d10:	2785                	addiw	a5,a5,1
ffffffc050401d12:	fef42623          	sw	a5,-20(s0)
ffffffc050401d16:	fec42783          	lw	a5,-20(s0)
ffffffc050401d1a:	0007871b          	sext.w	a4,a5
ffffffc050401d1e:	47fd                	li	a5,31
ffffffc050401d20:	fae7dde3          	bge	a5,a4,ffffffc050401cda <k_mutex_lock_init+0x28>
ffffffc050401d24:	0004b797          	auipc	a5,0x4b
ffffffc050401d28:	c9478793          	addi	a5,a5,-876 # ffffffc05044c9b8 <first_time>
ffffffc050401d2c:	0007a023          	sw	zero,0(a5)
ffffffc050401d30:	fd843783          	ld	a5,-40(s0)
ffffffc050401d34:	439c                	lw	a5,0(a5)
ffffffc050401d36:	00f05463          	blez	a5,ffffffc050401d3e <k_mutex_lock_init+0x8c>
ffffffc050401d3a:	57f9                	li	a5,-2
ffffffc050401d3c:	a84d                	j	ffffffc050401dee <k_mutex_lock_init+0x13c>
ffffffc050401d3e:	fd843783          	ld	a5,-40(s0)
ffffffc050401d42:	439c                	lw	a5,0(a5)
ffffffc050401d44:	0007d463          	bgez	a5,ffffffc050401d4c <k_mutex_lock_init+0x9a>
ffffffc050401d48:	57f5                	li	a5,-3
ffffffc050401d4a:	a055                	j	ffffffc050401dee <k_mutex_lock_init+0x13c>
ffffffc050401d4c:	f09ff0ef          	jal	ra,ffffffc050401c54 <find_lock>
ffffffc050401d50:	87aa                	mv	a5,a0
ffffffc050401d52:	fef42423          	sw	a5,-24(s0)
ffffffc050401d56:	fe842783          	lw	a5,-24(s0)
ffffffc050401d5a:	2781                	sext.w	a5,a5
ffffffc050401d5c:	0007d463          	bgez	a5,ffffffc050401d64 <k_mutex_lock_init+0xb2>
ffffffc050401d60:	57fd                	li	a5,-1
ffffffc050401d62:	a071                	j	ffffffc050401dee <k_mutex_lock_init+0x13c>
ffffffc050401d64:	00050717          	auipc	a4,0x50
ffffffc050401d68:	bd470713          	addi	a4,a4,-1068 # ffffffc050451938 <locks>
ffffffc050401d6c:	fe842783          	lw	a5,-24(s0)
ffffffc050401d70:	078e                	slli	a5,a5,0x3
ffffffc050401d72:	97ba                	add	a5,a5,a4
ffffffc050401d74:	639c                	ld	a5,0(a5)
ffffffc050401d76:	fe842703          	lw	a4,-24(s0)
ffffffc050401d7a:	2705                	addiw	a4,a4,1
ffffffc050401d7c:	2701                	sext.w	a4,a4
ffffffc050401d7e:	c398                	sw	a4,0(a5)
ffffffc050401d80:	00050717          	auipc	a4,0x50
ffffffc050401d84:	bb870713          	addi	a4,a4,-1096 # ffffffc050451938 <locks>
ffffffc050401d88:	fe842783          	lw	a5,-24(s0)
ffffffc050401d8c:	078e                	slli	a5,a5,0x3
ffffffc050401d8e:	97ba                	add	a5,a5,a4
ffffffc050401d90:	639c                	ld	a5,0(a5)
ffffffc050401d92:	4705                	li	a4,1
ffffffc050401d94:	c3d8                	sw	a4,4(a5)
ffffffc050401d96:	00050717          	auipc	a4,0x50
ffffffc050401d9a:	ba270713          	addi	a4,a4,-1118 # ffffffc050451938 <locks>
ffffffc050401d9e:	fe842783          	lw	a5,-24(s0)
ffffffc050401da2:	078e                	slli	a5,a5,0x3
ffffffc050401da4:	97ba                	add	a5,a5,a4
ffffffc050401da6:	639c                	ld	a5,0(a5)
ffffffc050401da8:	0007a423          	sw	zero,8(a5)
ffffffc050401dac:	00050717          	auipc	a4,0x50
ffffffc050401db0:	b8c70713          	addi	a4,a4,-1140 # ffffffc050451938 <locks>
ffffffc050401db4:	fe842783          	lw	a5,-24(s0)
ffffffc050401db8:	078e                	slli	a5,a5,0x3
ffffffc050401dba:	97ba                	add	a5,a5,a4
ffffffc050401dbc:	639c                	ld	a5,0(a5)
ffffffc050401dbe:	0007a623          	sw	zero,12(a5)
ffffffc050401dc2:	00050717          	auipc	a4,0x50
ffffffc050401dc6:	b7670713          	addi	a4,a4,-1162 # ffffffc050451938 <locks>
ffffffc050401dca:	fe842783          	lw	a5,-24(s0)
ffffffc050401dce:	078e                	slli	a5,a5,0x3
ffffffc050401dd0:	97ba                	add	a5,a5,a4
ffffffc050401dd2:	639c                	ld	a5,0(a5)
ffffffc050401dd4:	07c1                	addi	a5,a5,16
ffffffc050401dd6:	853e                	mv	a0,a5
ffffffc050401dd8:	c4dff0ef          	jal	ra,ffffffc050401a24 <init_list_head>
ffffffc050401ddc:	fe842783          	lw	a5,-24(s0)
ffffffc050401de0:	2785                	addiw	a5,a5,1
ffffffc050401de2:	0007871b          	sext.w	a4,a5
ffffffc050401de6:	fd843783          	ld	a5,-40(s0)
ffffffc050401dea:	c398                	sw	a4,0(a5)
ffffffc050401dec:	4781                	li	a5,0
ffffffc050401dee:	853e                	mv	a0,a5
ffffffc050401df0:	70a2                	ld	ra,40(sp)
ffffffc050401df2:	7402                	ld	s0,32(sp)
ffffffc050401df4:	6145                	addi	sp,sp,48
ffffffc050401df6:	8082                	ret

ffffffc050401df8 <k_mutex_lock_acquire>:
ffffffc050401df8:	1101                	addi	sp,sp,-32
ffffffc050401dfa:	ec06                	sd	ra,24(sp)
ffffffc050401dfc:	e822                	sd	s0,16(sp)
ffffffc050401dfe:	1000                	addi	s0,sp,32
ffffffc050401e00:	87aa                	mv	a5,a0
ffffffc050401e02:	872e                	mv	a4,a1
ffffffc050401e04:	fef42623          	sw	a5,-20(s0)
ffffffc050401e08:	87ba                	mv	a5,a4
ffffffc050401e0a:	fef42423          	sw	a5,-24(s0)
ffffffc050401e0e:	d57ff0ef          	jal	ra,ffffffc050401b64 <assert_supervisor_mode>
ffffffc050401e12:	00050717          	auipc	a4,0x50
ffffffc050401e16:	b2670713          	addi	a4,a4,-1242 # ffffffc050451938 <locks>
ffffffc050401e1a:	fec42783          	lw	a5,-20(s0)
ffffffc050401e1e:	078e                	slli	a5,a5,0x3
ffffffc050401e20:	97ba                	add	a5,a5,a4
ffffffc050401e22:	639c                	ld	a5,0(a5)
ffffffc050401e24:	43dc                	lw	a5,4(a5)
ffffffc050401e26:	e399                	bnez	a5,ffffffc050401e2c <k_mutex_lock_acquire+0x34>
ffffffc050401e28:	57fd                	li	a5,-1
ffffffc050401e2a:	aa3d                	j	ffffffc050401f68 <k_mutex_lock_acquire+0x170>
ffffffc050401e2c:	0001                	nop
ffffffc050401e2e:	00050717          	auipc	a4,0x50
ffffffc050401e32:	b0a70713          	addi	a4,a4,-1270 # ffffffc050451938 <locks>
ffffffc050401e36:	fec42783          	lw	a5,-20(s0)
ffffffc050401e3a:	078e                	slli	a5,a5,0x3
ffffffc050401e3c:	97ba                	add	a5,a5,a4
ffffffc050401e3e:	639c                	ld	a5,0(a5)
ffffffc050401e40:	07b1                	addi	a5,a5,12
ffffffc050401e42:	863e                	mv	a2,a5
ffffffc050401e44:	4585                	li	a1,1
ffffffc050401e46:	4501                	li	a0,0
ffffffc050401e48:	c57ff0ef          	jal	ra,ffffffc050401a9e <atomic_cmpxchg>
ffffffc050401e4c:	87aa                	mv	a5,a0
ffffffc050401e4e:	2781                	sext.w	a5,a5
ffffffc050401e50:	873e                	mv	a4,a5
ffffffc050401e52:	4785                	li	a5,1
ffffffc050401e54:	fcf70de3          	beq	a4,a5,ffffffc050401e2e <k_mutex_lock_acquire+0x36>
ffffffc050401e58:	00050717          	auipc	a4,0x50
ffffffc050401e5c:	ae070713          	addi	a4,a4,-1312 # ffffffc050451938 <locks>
ffffffc050401e60:	fec42783          	lw	a5,-20(s0)
ffffffc050401e64:	078e                	slli	a5,a5,0x3
ffffffc050401e66:	97ba                	add	a5,a5,a4
ffffffc050401e68:	639c                	ld	a5,0(a5)
ffffffc050401e6a:	479c                	lw	a5,8(a5)
ffffffc050401e6c:	2781                	sext.w	a5,a5
ffffffc050401e6e:	ebcd                	bnez	a5,ffffffc050401f20 <k_mutex_lock_acquire+0x128>
ffffffc050401e70:	00050717          	auipc	a4,0x50
ffffffc050401e74:	ac870713          	addi	a4,a4,-1336 # ffffffc050451938 <locks>
ffffffc050401e78:	fec42783          	lw	a5,-20(s0)
ffffffc050401e7c:	078e                	slli	a5,a5,0x3
ffffffc050401e7e:	97ba                	add	a5,a5,a4
ffffffc050401e80:	639c                	ld	a5,0(a5)
ffffffc050401e82:	4705                	li	a4,1
ffffffc050401e84:	c798                	sw	a4,8(a5)
ffffffc050401e86:	00050717          	auipc	a4,0x50
ffffffc050401e8a:	ab270713          	addi	a4,a4,-1358 # ffffffc050451938 <locks>
ffffffc050401e8e:	fec42783          	lw	a5,-20(s0)
ffffffc050401e92:	078e                	slli	a5,a5,0x3
ffffffc050401e94:	97ba                	add	a5,a5,a4
ffffffc050401e96:	639c                	ld	a5,0(a5)
ffffffc050401e98:	0007a623          	sw	zero,12(a5)
ffffffc050401e9c:	fec42783          	lw	a5,-20(s0)
ffffffc050401ea0:	2785                	addiw	a5,a5,1
ffffffc050401ea2:	0007881b          	sext.w	a6,a5
ffffffc050401ea6:	fe842783          	lw	a5,-24(s0)
ffffffc050401eaa:	37fd                	addiw	a5,a5,-1
ffffffc050401eac:	0007861b          	sext.w	a2,a5
ffffffc050401eb0:	fe842783          	lw	a5,-24(s0)
ffffffc050401eb4:	37fd                	addiw	a5,a5,-1
ffffffc050401eb6:	0007869b          	sext.w	a3,a5
ffffffc050401eba:	00050717          	auipc	a4,0x50
ffffffc050401ebe:	16670713          	addi	a4,a4,358 # ffffffc050452020 <pcb>
ffffffc050401ec2:	1d000793          	li	a5,464
ffffffc050401ec6:	02f687b3          	mul	a5,a3,a5
ffffffc050401eca:	97ba                	add	a5,a5,a4
ffffffc050401ecc:	1487a703          	lw	a4,328(a5)
ffffffc050401ed0:	0017079b          	addiw	a5,a4,1
ffffffc050401ed4:	0007859b          	sext.w	a1,a5
ffffffc050401ed8:	00050517          	auipc	a0,0x50
ffffffc050401edc:	14850513          	addi	a0,a0,328 # ffffffc050452020 <pcb>
ffffffc050401ee0:	1d000793          	li	a5,464
ffffffc050401ee4:	02f687b3          	mul	a5,a3,a5
ffffffc050401ee8:	97aa                	add	a5,a5,a0
ffffffc050401eea:	14b7a423          	sw	a1,328(a5)
ffffffc050401eee:	85c2                	mv	a1,a6
ffffffc050401ef0:	00050697          	auipc	a3,0x50
ffffffc050401ef4:	13068693          	addi	a3,a3,304 # ffffffc050452020 <pcb>
ffffffc050401ef8:	03a00793          	li	a5,58
ffffffc050401efc:	02f607b3          	mul	a5,a2,a5
ffffffc050401f00:	97ba                	add	a5,a5,a4
ffffffc050401f02:	07d1                	addi	a5,a5,20
ffffffc050401f04:	078e                	slli	a5,a5,0x3
ffffffc050401f06:	97b6                	add	a5,a5,a3
ffffffc050401f08:	e78c                	sd	a1,8(a5)
ffffffc050401f0a:	00050717          	auipc	a4,0x50
ffffffc050401f0e:	a2e70713          	addi	a4,a4,-1490 # ffffffc050451938 <locks>
ffffffc050401f12:	fec42783          	lw	a5,-20(s0)
ffffffc050401f16:	078e                	slli	a5,a5,0x3
ffffffc050401f18:	97ba                	add	a5,a5,a4
ffffffc050401f1a:	639c                	ld	a5,0(a5)
ffffffc050401f1c:	439c                	lw	a5,0(a5)
ffffffc050401f1e:	a0a9                	j	ffffffc050401f68 <k_mutex_lock_acquire+0x170>
ffffffc050401f20:	00050797          	auipc	a5,0x50
ffffffc050401f24:	0f078793          	addi	a5,a5,240 # ffffffc050452010 <current_running>
ffffffc050401f28:	639c                	ld	a5,0(a5)
ffffffc050401f2a:	639c                	ld	a5,0(a5)
ffffffc050401f2c:	05878693          	addi	a3,a5,88
ffffffc050401f30:	00050717          	auipc	a4,0x50
ffffffc050401f34:	a0870713          	addi	a4,a4,-1528 # ffffffc050451938 <locks>
ffffffc050401f38:	fec42783          	lw	a5,-20(s0)
ffffffc050401f3c:	078e                	slli	a5,a5,0x3
ffffffc050401f3e:	97ba                	add	a5,a5,a4
ffffffc050401f40:	639c                	ld	a5,0(a5)
ffffffc050401f42:	07c1                	addi	a5,a5,16
ffffffc050401f44:	85be                	mv	a1,a5
ffffffc050401f46:	8536                	mv	a0,a3
ffffffc050401f48:	670020ef          	jal	ra,ffffffc0504045b8 <k_block>
ffffffc050401f4c:	00050717          	auipc	a4,0x50
ffffffc050401f50:	9ec70713          	addi	a4,a4,-1556 # ffffffc050451938 <locks>
ffffffc050401f54:	fec42783          	lw	a5,-20(s0)
ffffffc050401f58:	078e                	slli	a5,a5,0x3
ffffffc050401f5a:	97ba                	add	a5,a5,a4
ffffffc050401f5c:	639c                	ld	a5,0(a5)
ffffffc050401f5e:	0007a623          	sw	zero,12(a5)
ffffffc050401f62:	366020ef          	jal	ra,ffffffc0504042c8 <k_scheduler>
ffffffc050401f66:	57f9                	li	a5,-2
ffffffc050401f68:	853e                	mv	a0,a5
ffffffc050401f6a:	60e2                	ld	ra,24(sp)
ffffffc050401f6c:	6442                	ld	s0,16(sp)
ffffffc050401f6e:	6105                	addi	sp,sp,32
ffffffc050401f70:	8082                	ret

ffffffc050401f72 <k_mutex_lock_release>:
ffffffc050401f72:	1101                	addi	sp,sp,-32
ffffffc050401f74:	ec06                	sd	ra,24(sp)
ffffffc050401f76:	e822                	sd	s0,16(sp)
ffffffc050401f78:	1000                	addi	s0,sp,32
ffffffc050401f7a:	87aa                	mv	a5,a0
ffffffc050401f7c:	872e                	mv	a4,a1
ffffffc050401f7e:	fef42623          	sw	a5,-20(s0)
ffffffc050401f82:	87ba                	mv	a5,a4
ffffffc050401f84:	fef42423          	sw	a5,-24(s0)
ffffffc050401f88:	00050717          	auipc	a4,0x50
ffffffc050401f8c:	9b070713          	addi	a4,a4,-1616 # ffffffc050451938 <locks>
ffffffc050401f90:	fec42783          	lw	a5,-20(s0)
ffffffc050401f94:	078e                	slli	a5,a5,0x3
ffffffc050401f96:	97ba                	add	a5,a5,a4
ffffffc050401f98:	639c                	ld	a5,0(a5)
ffffffc050401f9a:	43dc                	lw	a5,4(a5)
ffffffc050401f9c:	e399                	bnez	a5,ffffffc050401fa2 <k_mutex_lock_release+0x30>
ffffffc050401f9e:	57fd                	li	a5,-1
ffffffc050401fa0:	a239                	j	ffffffc0504020ae <k_mutex_lock_release+0x13c>
ffffffc050401fa2:	fe842783          	lw	a5,-24(s0)
ffffffc050401fa6:	37fd                	addiw	a5,a5,-1
ffffffc050401fa8:	0007869b          	sext.w	a3,a5
ffffffc050401fac:	00050717          	auipc	a4,0x50
ffffffc050401fb0:	07470713          	addi	a4,a4,116 # ffffffc050452020 <pcb>
ffffffc050401fb4:	1d000793          	li	a5,464
ffffffc050401fb8:	02f687b3          	mul	a5,a3,a5
ffffffc050401fbc:	97ba                	add	a5,a5,a4
ffffffc050401fbe:	1487a783          	lw	a5,328(a5)
ffffffc050401fc2:	c3b1                	beqz	a5,ffffffc050402006 <k_mutex_lock_release+0x94>
ffffffc050401fc4:	fe842783          	lw	a5,-24(s0)
ffffffc050401fc8:	37fd                	addiw	a5,a5,-1
ffffffc050401fca:	0007861b          	sext.w	a2,a5
ffffffc050401fce:	00050797          	auipc	a5,0x50
ffffffc050401fd2:	04278793          	addi	a5,a5,66 # ffffffc050452010 <current_running>
ffffffc050401fd6:	639c                	ld	a5,0(a5)
ffffffc050401fd8:	639c                	ld	a5,0(a5)
ffffffc050401fda:	1487a703          	lw	a4,328(a5)
ffffffc050401fde:	377d                	addiw	a4,a4,-1
ffffffc050401fe0:	2701                	sext.w	a4,a4
ffffffc050401fe2:	14e7a423          	sw	a4,328(a5)
ffffffc050401fe6:	1487a783          	lw	a5,328(a5)
ffffffc050401fea:	00050717          	auipc	a4,0x50
ffffffc050401fee:	03670713          	addi	a4,a4,54 # ffffffc050452020 <pcb>
ffffffc050401ff2:	03a00693          	li	a3,58
ffffffc050401ff6:	02d606b3          	mul	a3,a2,a3
ffffffc050401ffa:	97b6                	add	a5,a5,a3
ffffffc050401ffc:	07d1                	addi	a5,a5,20
ffffffc050401ffe:	078e                	slli	a5,a5,0x3
ffffffc050402000:	97ba                	add	a5,a5,a4
ffffffc050402002:	0007b423          	sd	zero,8(a5)
ffffffc050402006:	0001                	nop
ffffffc050402008:	00050717          	auipc	a4,0x50
ffffffc05040200c:	93070713          	addi	a4,a4,-1744 # ffffffc050451938 <locks>
ffffffc050402010:	fec42783          	lw	a5,-20(s0)
ffffffc050402014:	078e                	slli	a5,a5,0x3
ffffffc050402016:	97ba                	add	a5,a5,a4
ffffffc050402018:	639c                	ld	a5,0(a5)
ffffffc05040201a:	07b1                	addi	a5,a5,12
ffffffc05040201c:	863e                	mv	a2,a5
ffffffc05040201e:	4585                	li	a1,1
ffffffc050402020:	4501                	li	a0,0
ffffffc050402022:	a7dff0ef          	jal	ra,ffffffc050401a9e <atomic_cmpxchg>
ffffffc050402026:	87aa                	mv	a5,a0
ffffffc050402028:	2781                	sext.w	a5,a5
ffffffc05040202a:	873e                	mv	a4,a5
ffffffc05040202c:	4785                	li	a5,1
ffffffc05040202e:	fcf70de3          	beq	a4,a5,ffffffc050402008 <k_mutex_lock_release+0x96>
ffffffc050402032:	00050717          	auipc	a4,0x50
ffffffc050402036:	90670713          	addi	a4,a4,-1786 # ffffffc050451938 <locks>
ffffffc05040203a:	fec42783          	lw	a5,-20(s0)
ffffffc05040203e:	078e                	slli	a5,a5,0x3
ffffffc050402040:	97ba                	add	a5,a5,a4
ffffffc050402042:	639c                	ld	a5,0(a5)
ffffffc050402044:	07c1                	addi	a5,a5,16
ffffffc050402046:	853e                	mv	a0,a5
ffffffc050402048:	a03ff0ef          	jal	ra,ffffffc050401a4a <list_is_empty>
ffffffc05040204c:	87aa                	mv	a5,a0
ffffffc05040204e:	cf89                	beqz	a5,ffffffc050402068 <k_mutex_lock_release+0xf6>
ffffffc050402050:	00050717          	auipc	a4,0x50
ffffffc050402054:	8e870713          	addi	a4,a4,-1816 # ffffffc050451938 <locks>
ffffffc050402058:	fec42783          	lw	a5,-20(s0)
ffffffc05040205c:	078e                	slli	a5,a5,0x3
ffffffc05040205e:	97ba                	add	a5,a5,a4
ffffffc050402060:	639c                	ld	a5,0(a5)
ffffffc050402062:	0007a423          	sw	zero,8(a5)
ffffffc050402066:	a839                	j	ffffffc050402084 <k_mutex_lock_release+0x112>
ffffffc050402068:	00050717          	auipc	a4,0x50
ffffffc05040206c:	8d070713          	addi	a4,a4,-1840 # ffffffc050451938 <locks>
ffffffc050402070:	fec42783          	lw	a5,-20(s0)
ffffffc050402074:	078e                	slli	a5,a5,0x3
ffffffc050402076:	97ba                	add	a5,a5,a4
ffffffc050402078:	639c                	ld	a5,0(a5)
ffffffc05040207a:	6b9c                	ld	a5,16(a5)
ffffffc05040207c:	4589                	li	a1,2
ffffffc05040207e:	853e                	mv	a0,a5
ffffffc050402080:	56e020ef          	jal	ra,ffffffc0504045ee <k_unblock>
ffffffc050402084:	00050717          	auipc	a4,0x50
ffffffc050402088:	8b470713          	addi	a4,a4,-1868 # ffffffc050451938 <locks>
ffffffc05040208c:	fec42783          	lw	a5,-20(s0)
ffffffc050402090:	078e                	slli	a5,a5,0x3
ffffffc050402092:	97ba                	add	a5,a5,a4
ffffffc050402094:	639c                	ld	a5,0(a5)
ffffffc050402096:	0007a623          	sw	zero,12(a5)
ffffffc05040209a:	00050717          	auipc	a4,0x50
ffffffc05040209e:	89e70713          	addi	a4,a4,-1890 # ffffffc050451938 <locks>
ffffffc0504020a2:	fec42783          	lw	a5,-20(s0)
ffffffc0504020a6:	078e                	slli	a5,a5,0x3
ffffffc0504020a8:	97ba                	add	a5,a5,a4
ffffffc0504020aa:	639c                	ld	a5,0(a5)
ffffffc0504020ac:	439c                	lw	a5,0(a5)
ffffffc0504020ae:	853e                	mv	a0,a5
ffffffc0504020b0:	60e2                	ld	ra,24(sp)
ffffffc0504020b2:	6442                	ld	s0,16(sp)
ffffffc0504020b4:	6105                	addi	sp,sp,32
ffffffc0504020b6:	8082                	ret

ffffffc0504020b8 <k_mutex_lock_destroy>:
ffffffc0504020b8:	1101                	addi	sp,sp,-32
ffffffc0504020ba:	ec06                	sd	ra,24(sp)
ffffffc0504020bc:	e822                	sd	s0,16(sp)
ffffffc0504020be:	1000                	addi	s0,sp,32
ffffffc0504020c0:	fea43423          	sd	a0,-24(s0)
ffffffc0504020c4:	87ae                	mv	a5,a1
ffffffc0504020c6:	fef42223          	sw	a5,-28(s0)
ffffffc0504020ca:	fe843783          	ld	a5,-24(s0)
ffffffc0504020ce:	439c                	lw	a5,0(a5)
ffffffc0504020d0:	37fd                	addiw	a5,a5,-1
ffffffc0504020d2:	2781                	sext.w	a5,a5
ffffffc0504020d4:	00050717          	auipc	a4,0x50
ffffffc0504020d8:	86470713          	addi	a4,a4,-1948 # ffffffc050451938 <locks>
ffffffc0504020dc:	078e                	slli	a5,a5,0x3
ffffffc0504020de:	97ba                	add	a5,a5,a4
ffffffc0504020e0:	639c                	ld	a5,0(a5)
ffffffc0504020e2:	43dc                	lw	a5,4(a5)
ffffffc0504020e4:	e7a1                	bnez	a5,ffffffc05040212c <k_mutex_lock_destroy+0x74>
ffffffc0504020e6:	57fd                	li	a5,-1
ffffffc0504020e8:	a849                	j	ffffffc05040217a <k_mutex_lock_destroy+0xc2>
ffffffc0504020ea:	fe442783          	lw	a5,-28(s0)
ffffffc0504020ee:	37fd                	addiw	a5,a5,-1
ffffffc0504020f0:	0007861b          	sext.w	a2,a5
ffffffc0504020f4:	00050797          	auipc	a5,0x50
ffffffc0504020f8:	f1c78793          	addi	a5,a5,-228 # ffffffc050452010 <current_running>
ffffffc0504020fc:	639c                	ld	a5,0(a5)
ffffffc0504020fe:	639c                	ld	a5,0(a5)
ffffffc050402100:	1487a703          	lw	a4,328(a5)
ffffffc050402104:	377d                	addiw	a4,a4,-1
ffffffc050402106:	2701                	sext.w	a4,a4
ffffffc050402108:	14e7a423          	sw	a4,328(a5)
ffffffc05040210c:	1487a783          	lw	a5,328(a5)
ffffffc050402110:	00050717          	auipc	a4,0x50
ffffffc050402114:	f1070713          	addi	a4,a4,-240 # ffffffc050452020 <pcb>
ffffffc050402118:	03a00693          	li	a3,58
ffffffc05040211c:	02d606b3          	mul	a3,a2,a3
ffffffc050402120:	97b6                	add	a5,a5,a3
ffffffc050402122:	07d1                	addi	a5,a5,20
ffffffc050402124:	078e                	slli	a5,a5,0x3
ffffffc050402126:	97ba                	add	a5,a5,a4
ffffffc050402128:	0007b423          	sd	zero,8(a5)
ffffffc05040212c:	fe442783          	lw	a5,-28(s0)
ffffffc050402130:	37fd                	addiw	a5,a5,-1
ffffffc050402132:	0007869b          	sext.w	a3,a5
ffffffc050402136:	00050717          	auipc	a4,0x50
ffffffc05040213a:	eea70713          	addi	a4,a4,-278 # ffffffc050452020 <pcb>
ffffffc05040213e:	1d000793          	li	a5,464
ffffffc050402142:	02f687b3          	mul	a5,a3,a5
ffffffc050402146:	97ba                	add	a5,a5,a4
ffffffc050402148:	1487a783          	lw	a5,328(a5)
ffffffc05040214c:	ffd9                	bnez	a5,ffffffc0504020ea <k_mutex_lock_destroy+0x32>
ffffffc05040214e:	fe843783          	ld	a5,-24(s0)
ffffffc050402152:	439c                	lw	a5,0(a5)
ffffffc050402154:	37fd                	addiw	a5,a5,-1
ffffffc050402156:	2781                	sext.w	a5,a5
ffffffc050402158:	0004f717          	auipc	a4,0x4f
ffffffc05040215c:	7e070713          	addi	a4,a4,2016 # ffffffc050451938 <locks>
ffffffc050402160:	078e                	slli	a5,a5,0x3
ffffffc050402162:	97ba                	add	a5,a5,a4
ffffffc050402164:	639c                	ld	a5,0(a5)
ffffffc050402166:	4621                	li	a2,8
ffffffc050402168:	4581                	li	a1,0
ffffffc05040216a:	853e                	mv	a0,a5
ffffffc05040216c:	7f8040ef          	jal	ra,ffffffc050406964 <memset>
ffffffc050402170:	fe843783          	ld	a5,-24(s0)
ffffffc050402174:	0007a023          	sw	zero,0(a5)
ffffffc050402178:	4781                	li	a5,0
ffffffc05040217a:	853e                	mv	a0,a5
ffffffc05040217c:	60e2                	ld	ra,24(sp)
ffffffc05040217e:	6442                	ld	s0,16(sp)
ffffffc050402180:	6105                	addi	sp,sp,32
ffffffc050402182:	8082                	ret

ffffffc050402184 <k_mutex_lock_trylock>:
ffffffc050402184:	7179                	addi	sp,sp,-48
ffffffc050402186:	f406                	sd	ra,40(sp)
ffffffc050402188:	f022                	sd	s0,32(sp)
ffffffc05040218a:	1800                	addi	s0,sp,48
ffffffc05040218c:	fca43c23          	sd	a0,-40(s0)
ffffffc050402190:	87ae                	mv	a5,a1
ffffffc050402192:	fcf42a23          	sw	a5,-44(s0)
ffffffc050402196:	fd843783          	ld	a5,-40(s0)
ffffffc05040219a:	439c                	lw	a5,0(a5)
ffffffc05040219c:	00f05463          	blez	a5,ffffffc0504021a4 <k_mutex_lock_trylock+0x20>
ffffffc0504021a0:	57f9                	li	a5,-2
ffffffc0504021a2:	a02d                	j	ffffffc0504021cc <k_mutex_lock_trylock+0x48>
ffffffc0504021a4:	fd843783          	ld	a5,-40(s0)
ffffffc0504021a8:	439c                	lw	a5,0(a5)
ffffffc0504021aa:	0007d463          	bgez	a5,ffffffc0504021b2 <k_mutex_lock_trylock+0x2e>
ffffffc0504021ae:	57f5                	li	a5,-3
ffffffc0504021b0:	a831                	j	ffffffc0504021cc <k_mutex_lock_trylock+0x48>
ffffffc0504021b2:	aa3ff0ef          	jal	ra,ffffffc050401c54 <find_lock>
ffffffc0504021b6:	87aa                	mv	a5,a0
ffffffc0504021b8:	fef42623          	sw	a5,-20(s0)
ffffffc0504021bc:	fec42783          	lw	a5,-20(s0)
ffffffc0504021c0:	2781                	sext.w	a5,a5
ffffffc0504021c2:	0007d463          	bgez	a5,ffffffc0504021ca <k_mutex_lock_trylock+0x46>
ffffffc0504021c6:	57fd                	li	a5,-1
ffffffc0504021c8:	a011                	j	ffffffc0504021cc <k_mutex_lock_trylock+0x48>
ffffffc0504021ca:	4781                	li	a5,0
ffffffc0504021cc:	853e                	mv	a0,a5
ffffffc0504021ce:	70a2                	ld	ra,40(sp)
ffffffc0504021d0:	7402                	ld	s0,32(sp)
ffffffc0504021d2:	6145                	addi	sp,sp,48
ffffffc0504021d4:	8082                	ret

ffffffc0504021d6 <init_list_head>:
ffffffc0504021d6:	1101                	addi	sp,sp,-32
ffffffc0504021d8:	ec22                	sd	s0,24(sp)
ffffffc0504021da:	1000                	addi	s0,sp,32
ffffffc0504021dc:	fea43423          	sd	a0,-24(s0)
ffffffc0504021e0:	fe843783          	ld	a5,-24(s0)
ffffffc0504021e4:	fe843703          	ld	a4,-24(s0)
ffffffc0504021e8:	e398                	sd	a4,0(a5)
ffffffc0504021ea:	fe843783          	ld	a5,-24(s0)
ffffffc0504021ee:	fe843703          	ld	a4,-24(s0)
ffffffc0504021f2:	e798                	sd	a4,8(a5)
ffffffc0504021f4:	0001                	nop
ffffffc0504021f6:	6462                	ld	s0,24(sp)
ffffffc0504021f8:	6105                	addi	sp,sp,32
ffffffc0504021fa:	8082                	ret

ffffffc0504021fc <list_is_empty>:
ffffffc0504021fc:	1101                	addi	sp,sp,-32
ffffffc0504021fe:	ec22                	sd	s0,24(sp)
ffffffc050402200:	1000                	addi	s0,sp,32
ffffffc050402202:	fea43423          	sd	a0,-24(s0)
ffffffc050402206:	fe843783          	ld	a5,-24(s0)
ffffffc05040220a:	639c                	ld	a5,0(a5)
ffffffc05040220c:	fe843703          	ld	a4,-24(s0)
ffffffc050402210:	40f707b3          	sub	a5,a4,a5
ffffffc050402214:	0017b793          	seqz	a5,a5
ffffffc050402218:	0ff7f793          	andi	a5,a5,255
ffffffc05040221c:	2781                	sext.w	a5,a5
ffffffc05040221e:	853e                	mv	a0,a5
ffffffc050402220:	6462                	ld	s0,24(sp)
ffffffc050402222:	6105                	addi	sp,sp,32
ffffffc050402224:	8082                	ret

ffffffc050402226 <find_free>:
ffffffc050402226:	7139                	addi	sp,sp,-64
ffffffc050402228:	fc22                	sd	s0,56(sp)
ffffffc05040222a:	0080                	addi	s0,sp,64
ffffffc05040222c:	87aa                	mv	a5,a0
ffffffc05040222e:	fcf42623          	sw	a5,-52(s0)
ffffffc050402232:	fc042e23          	sw	zero,-36(s0)
ffffffc050402236:	fcc42783          	lw	a5,-52(s0)
ffffffc05040223a:	0007871b          	sext.w	a4,a5
ffffffc05040223e:	478d                	li	a5,3
ffffffc050402240:	10f70663          	beq	a4,a5,ffffffc05040234c <find_free+0x126>
ffffffc050402244:	fcc42783          	lw	a5,-52(s0)
ffffffc050402248:	0007871b          	sext.w	a4,a5
ffffffc05040224c:	478d                	li	a5,3
ffffffc05040224e:	14e7c063          	blt	a5,a4,ffffffc05040238e <find_free+0x168>
ffffffc050402252:	fcc42783          	lw	a5,-52(s0)
ffffffc050402256:	0007871b          	sext.w	a4,a5
ffffffc05040225a:	4789                	li	a5,2
ffffffc05040225c:	0af70763          	beq	a4,a5,ffffffc05040230a <find_free+0xe4>
ffffffc050402260:	fcc42783          	lw	a5,-52(s0)
ffffffc050402264:	0007871b          	sext.w	a4,a5
ffffffc050402268:	4789                	li	a5,2
ffffffc05040226a:	12e7c263          	blt	a5,a4,ffffffc05040238e <find_free+0x168>
ffffffc05040226e:	fcc42783          	lw	a5,-52(s0)
ffffffc050402272:	2781                	sext.w	a5,a5
ffffffc050402274:	cb89                	beqz	a5,ffffffc050402286 <find_free+0x60>
ffffffc050402276:	fcc42783          	lw	a5,-52(s0)
ffffffc05040227a:	0007871b          	sext.w	a4,a5
ffffffc05040227e:	4785                	li	a5,1
ffffffc050402280:	04f70463          	beq	a4,a5,ffffffc0504022c8 <find_free+0xa2>
ffffffc050402284:	a229                	j	ffffffc05040238e <find_free+0x168>
ffffffc050402286:	fe042623          	sw	zero,-20(s0)
ffffffc05040228a:	a03d                	j	ffffffc0504022b8 <find_free+0x92>
ffffffc05040228c:	0004f717          	auipc	a4,0x4f
ffffffc050402290:	7ac70713          	addi	a4,a4,1964 # ffffffc050451a38 <sem_list>
ffffffc050402294:	fec42783          	lw	a5,-20(s0)
ffffffc050402298:	078e                	slli	a5,a5,0x3
ffffffc05040229a:	97ba                	add	a5,a5,a4
ffffffc05040229c:	639c                	ld	a5,0(a5)
ffffffc05040229e:	43dc                	lw	a5,4(a5)
ffffffc0504022a0:	e799                	bnez	a5,ffffffc0504022ae <find_free+0x88>
ffffffc0504022a2:	4785                	li	a5,1
ffffffc0504022a4:	fcf42e23          	sw	a5,-36(s0)
ffffffc0504022a8:	fec42783          	lw	a5,-20(s0)
ffffffc0504022ac:	a8c5                	j	ffffffc05040239c <find_free+0x176>
ffffffc0504022ae:	fec42783          	lw	a5,-20(s0)
ffffffc0504022b2:	2785                	addiw	a5,a5,1
ffffffc0504022b4:	fef42623          	sw	a5,-20(s0)
ffffffc0504022b8:	fec42783          	lw	a5,-20(s0)
ffffffc0504022bc:	0007871b          	sext.w	a4,a5
ffffffc0504022c0:	47fd                	li	a5,31
ffffffc0504022c2:	fce7d5e3          	bge	a5,a4,ffffffc05040228c <find_free+0x66>
ffffffc0504022c6:	a0e9                	j	ffffffc050402390 <find_free+0x16a>
ffffffc0504022c8:	fe042423          	sw	zero,-24(s0)
ffffffc0504022cc:	a03d                	j	ffffffc0504022fa <find_free+0xd4>
ffffffc0504022ce:	00050717          	auipc	a4,0x50
ffffffc0504022d2:	86a70713          	addi	a4,a4,-1942 # ffffffc050451b38 <cond_list>
ffffffc0504022d6:	fe842783          	lw	a5,-24(s0)
ffffffc0504022da:	078e                	slli	a5,a5,0x3
ffffffc0504022dc:	97ba                	add	a5,a5,a4
ffffffc0504022de:	639c                	ld	a5,0(a5)
ffffffc0504022e0:	43dc                	lw	a5,4(a5)
ffffffc0504022e2:	e799                	bnez	a5,ffffffc0504022f0 <find_free+0xca>
ffffffc0504022e4:	4785                	li	a5,1
ffffffc0504022e6:	fcf42e23          	sw	a5,-36(s0)
ffffffc0504022ea:	fe842783          	lw	a5,-24(s0)
ffffffc0504022ee:	a07d                	j	ffffffc05040239c <find_free+0x176>
ffffffc0504022f0:	fe842783          	lw	a5,-24(s0)
ffffffc0504022f4:	2785                	addiw	a5,a5,1
ffffffc0504022f6:	fef42423          	sw	a5,-24(s0)
ffffffc0504022fa:	fe842783          	lw	a5,-24(s0)
ffffffc0504022fe:	0007871b          	sext.w	a4,a5
ffffffc050402302:	47fd                	li	a5,31
ffffffc050402304:	fce7d5e3          	bge	a5,a4,ffffffc0504022ce <find_free+0xa8>
ffffffc050402308:	a061                	j	ffffffc050402390 <find_free+0x16a>
ffffffc05040230a:	fe042223          	sw	zero,-28(s0)
ffffffc05040230e:	a03d                	j	ffffffc05040233c <find_free+0x116>
ffffffc050402310:	00050717          	auipc	a4,0x50
ffffffc050402314:	92870713          	addi	a4,a4,-1752 # ffffffc050451c38 <barrier_list>
ffffffc050402318:	fe442783          	lw	a5,-28(s0)
ffffffc05040231c:	078e                	slli	a5,a5,0x3
ffffffc05040231e:	97ba                	add	a5,a5,a4
ffffffc050402320:	639c                	ld	a5,0(a5)
ffffffc050402322:	43dc                	lw	a5,4(a5)
ffffffc050402324:	e799                	bnez	a5,ffffffc050402332 <find_free+0x10c>
ffffffc050402326:	4785                	li	a5,1
ffffffc050402328:	fcf42e23          	sw	a5,-36(s0)
ffffffc05040232c:	fe442783          	lw	a5,-28(s0)
ffffffc050402330:	a0b5                	j	ffffffc05040239c <find_free+0x176>
ffffffc050402332:	fe442783          	lw	a5,-28(s0)
ffffffc050402336:	2785                	addiw	a5,a5,1
ffffffc050402338:	fef42223          	sw	a5,-28(s0)
ffffffc05040233c:	fe442783          	lw	a5,-28(s0)
ffffffc050402340:	0007871b          	sext.w	a4,a5
ffffffc050402344:	47fd                	li	a5,31
ffffffc050402346:	fce7d5e3          	bge	a5,a4,ffffffc050402310 <find_free+0xea>
ffffffc05040234a:	a099                	j	ffffffc050402390 <find_free+0x16a>
ffffffc05040234c:	fe042023          	sw	zero,-32(s0)
ffffffc050402350:	a03d                	j	ffffffc05040237e <find_free+0x158>
ffffffc050402352:	00050717          	auipc	a4,0x50
ffffffc050402356:	9e670713          	addi	a4,a4,-1562 # ffffffc050451d38 <mbox_list>
ffffffc05040235a:	fe042783          	lw	a5,-32(s0)
ffffffc05040235e:	078e                	slli	a5,a5,0x3
ffffffc050402360:	97ba                	add	a5,a5,a4
ffffffc050402362:	639c                	ld	a5,0(a5)
ffffffc050402364:	43dc                	lw	a5,4(a5)
ffffffc050402366:	e799                	bnez	a5,ffffffc050402374 <find_free+0x14e>
ffffffc050402368:	4785                	li	a5,1
ffffffc05040236a:	fcf42e23          	sw	a5,-36(s0)
ffffffc05040236e:	fe042783          	lw	a5,-32(s0)
ffffffc050402372:	a02d                	j	ffffffc05040239c <find_free+0x176>
ffffffc050402374:	fe042783          	lw	a5,-32(s0)
ffffffc050402378:	2785                	addiw	a5,a5,1
ffffffc05040237a:	fef42023          	sw	a5,-32(s0)
ffffffc05040237e:	fe042783          	lw	a5,-32(s0)
ffffffc050402382:	0007871b          	sext.w	a4,a5
ffffffc050402386:	47fd                	li	a5,31
ffffffc050402388:	fce7d5e3          	bge	a5,a4,ffffffc050402352 <find_free+0x12c>
ffffffc05040238c:	a011                	j	ffffffc050402390 <find_free+0x16a>
ffffffc05040238e:	0001                	nop
ffffffc050402390:	fdc42783          	lw	a5,-36(s0)
ffffffc050402394:	2781                	sext.w	a5,a5
ffffffc050402396:	e399                	bnez	a5,ffffffc05040239c <find_free+0x176>
ffffffc050402398:	57fd                	li	a5,-1
ffffffc05040239a:	a009                	j	ffffffc05040239c <find_free+0x176>
ffffffc05040239c:	853e                	mv	a0,a5
ffffffc05040239e:	7462                	ld	s0,56(sp)
ffffffc0504023a0:	6121                	addi	sp,sp,64
ffffffc0504023a2:	8082                	ret

ffffffc0504023a4 <k_commop>:
ffffffc0504023a4:	7139                	addi	sp,sp,-64
ffffffc0504023a6:	fc06                	sd	ra,56(sp)
ffffffc0504023a8:	f822                	sd	s0,48(sp)
ffffffc0504023aa:	0080                	addi	s0,sp,64
ffffffc0504023ac:	fca43c23          	sd	a0,-40(s0)
ffffffc0504023b0:	fcb43823          	sd	a1,-48(s0)
ffffffc0504023b4:	87b2                	mv	a5,a2
ffffffc0504023b6:	fcf42623          	sw	a5,-52(s0)
ffffffc0504023ba:	00050797          	auipc	a5,0x50
ffffffc0504023be:	c5678793          	addi	a5,a5,-938 # ffffffc050452010 <current_running>
ffffffc0504023c2:	639c                	ld	a5,0(a5)
ffffffc0504023c4:	639c                	ld	a5,0(a5)
ffffffc0504023c6:	579c                	lw	a5,40(a5)
ffffffc0504023c8:	fef42623          	sw	a5,-20(s0)
ffffffc0504023cc:	fd843783          	ld	a5,-40(s0)
ffffffc0504023d0:	fef43023          	sd	a5,-32(s0)
ffffffc0504023d4:	fcc42783          	lw	a5,-52(s0)
ffffffc0504023d8:	0007871b          	sext.w	a4,a5
ffffffc0504023dc:	47b1                	li	a5,12
ffffffc0504023de:	16e7e363          	bltu	a5,a4,ffffffc050402544 <k_commop+0x1a0>
ffffffc0504023e2:	fcc46783          	lwu	a5,-52(s0)
ffffffc0504023e6:	00279713          	slli	a4,a5,0x2
ffffffc0504023ea:	00005797          	auipc	a5,0x5
ffffffc0504023ee:	5f678793          	addi	a5,a5,1526 # ffffffc0504079e0 <__FUNCTION__.1825+0x30>
ffffffc0504023f2:	97ba                	add	a5,a5,a4
ffffffc0504023f4:	439c                	lw	a5,0(a5)
ffffffc0504023f6:	0007871b          	sext.w	a4,a5
ffffffc0504023fa:	00005797          	auipc	a5,0x5
ffffffc0504023fe:	5e678793          	addi	a5,a5,1510 # ffffffc0504079e0 <__FUNCTION__.1825+0x30>
ffffffc050402402:	97ba                	add	a5,a5,a4
ffffffc050402404:	8782                	jr	a5
ffffffc050402406:	fd043783          	ld	a5,-48(s0)
ffffffc05040240a:	439c                	lw	a5,0(a5)
ffffffc05040240c:	fec42703          	lw	a4,-20(s0)
ffffffc050402410:	863a                	mv	a2,a4
ffffffc050402412:	85be                	mv	a1,a5
ffffffc050402414:	fe043503          	ld	a0,-32(s0)
ffffffc050402418:	138000ef          	jal	ra,ffffffc050402550 <k_semaphore_init>
ffffffc05040241c:	87aa                	mv	a5,a0
ffffffc05040241e:	a225                	j	ffffffc050402546 <k_commop+0x1a2>
ffffffc050402420:	fe043783          	ld	a5,-32(s0)
ffffffc050402424:	439c                	lw	a5,0(a5)
ffffffc050402426:	37fd                	addiw	a5,a5,-1
ffffffc050402428:	2781                	sext.w	a5,a5
ffffffc05040242a:	fec42703          	lw	a4,-20(s0)
ffffffc05040242e:	85ba                	mv	a1,a4
ffffffc050402430:	853e                	mv	a0,a5
ffffffc050402432:	24e000ef          	jal	ra,ffffffc050402680 <k_semaphore_p>
ffffffc050402436:	87aa                	mv	a5,a0
ffffffc050402438:	a239                	j	ffffffc050402546 <k_commop+0x1a2>
ffffffc05040243a:	fe043783          	ld	a5,-32(s0)
ffffffc05040243e:	439c                	lw	a5,0(a5)
ffffffc050402440:	37fd                	addiw	a5,a5,-1
ffffffc050402442:	2781                	sext.w	a5,a5
ffffffc050402444:	fec42703          	lw	a4,-20(s0)
ffffffc050402448:	85ba                	mv	a1,a4
ffffffc05040244a:	853e                	mv	a0,a5
ffffffc05040244c:	2d0000ef          	jal	ra,ffffffc05040271c <k_semaphore_v>
ffffffc050402450:	87aa                	mv	a5,a0
ffffffc050402452:	a8d5                	j	ffffffc050402546 <k_commop+0x1a2>
ffffffc050402454:	fec42783          	lw	a5,-20(s0)
ffffffc050402458:	85be                	mv	a1,a5
ffffffc05040245a:	fe043503          	ld	a0,-32(s0)
ffffffc05040245e:	364000ef          	jal	ra,ffffffc0504027c2 <k_semaphore_destroy>
ffffffc050402462:	87aa                	mv	a5,a0
ffffffc050402464:	a0cd                	j	ffffffc050402546 <k_commop+0x1a2>
ffffffc050402466:	fd043783          	ld	a5,-48(s0)
ffffffc05040246a:	439c                	lw	a5,0(a5)
ffffffc05040246c:	fec42703          	lw	a4,-20(s0)
ffffffc050402470:	863a                	mv	a2,a4
ffffffc050402472:	85be                	mv	a1,a5
ffffffc050402474:	fe043503          	ld	a0,-32(s0)
ffffffc050402478:	702000ef          	jal	ra,ffffffc050402b7a <k_barrier_init>
ffffffc05040247c:	87aa                	mv	a5,a0
ffffffc05040247e:	a0e1                	j	ffffffc050402546 <k_commop+0x1a2>
ffffffc050402480:	fe043783          	ld	a5,-32(s0)
ffffffc050402484:	439c                	lw	a5,0(a5)
ffffffc050402486:	37fd                	addiw	a5,a5,-1
ffffffc050402488:	2781                	sext.w	a5,a5
ffffffc05040248a:	fec42703          	lw	a4,-20(s0)
ffffffc05040248e:	85ba                	mv	a1,a4
ffffffc050402490:	853e                	mv	a0,a5
ffffffc050402492:	07f000ef          	jal	ra,ffffffc050402d10 <k_barrier_wait>
ffffffc050402496:	87aa                	mv	a5,a0
ffffffc050402498:	a07d                	j	ffffffc050402546 <k_commop+0x1a2>
ffffffc05040249a:	fec42783          	lw	a5,-20(s0)
ffffffc05040249e:	85be                	mv	a1,a5
ffffffc0504024a0:	fe043503          	ld	a0,-32(s0)
ffffffc0504024a4:	1a3000ef          	jal	ra,ffffffc050402e46 <k_barrier_destroy>
ffffffc0504024a8:	87aa                	mv	a5,a0
ffffffc0504024aa:	a871                	j	ffffffc050402546 <k_commop+0x1a2>
ffffffc0504024ac:	fec42783          	lw	a5,-20(s0)
ffffffc0504024b0:	85be                	mv	a1,a5
ffffffc0504024b2:	fd843503          	ld	a0,-40(s0)
ffffffc0504024b6:	245000ef          	jal	ra,ffffffc050402efa <k_mbox_open>
ffffffc0504024ba:	87aa                	mv	a5,a0
ffffffc0504024bc:	a069                	j	ffffffc050402546 <k_commop+0x1a2>
ffffffc0504024be:	fec42783          	lw	a5,-20(s0)
ffffffc0504024c2:	853e                	mv	a0,a5
ffffffc0504024c4:	62f000ef          	jal	ra,ffffffc0504032f2 <k_mbox_close>
ffffffc0504024c8:	87aa                	mv	a5,a0
ffffffc0504024ca:	a8b5                	j	ffffffc050402546 <k_commop+0x1a2>
ffffffc0504024cc:	fe043783          	ld	a5,-32(s0)
ffffffc0504024d0:	439c                	lw	a5,0(a5)
ffffffc0504024d2:	37fd                	addiw	a5,a5,-1
ffffffc0504024d4:	2781                	sext.w	a5,a5
ffffffc0504024d6:	fec42703          	lw	a4,-20(s0)
ffffffc0504024da:	863a                	mv	a2,a4
ffffffc0504024dc:	fd043583          	ld	a1,-48(s0)
ffffffc0504024e0:	853e                	mv	a0,a5
ffffffc0504024e2:	01a010ef          	jal	ra,ffffffc0504034fc <k_mbox_send>
ffffffc0504024e6:	87aa                	mv	a5,a0
ffffffc0504024e8:	a8b9                	j	ffffffc050402546 <k_commop+0x1a2>
ffffffc0504024ea:	fe043783          	ld	a5,-32(s0)
ffffffc0504024ee:	439c                	lw	a5,0(a5)
ffffffc0504024f0:	37fd                	addiw	a5,a5,-1
ffffffc0504024f2:	2781                	sext.w	a5,a5
ffffffc0504024f4:	fec42703          	lw	a4,-20(s0)
ffffffc0504024f8:	863a                	mv	a2,a4
ffffffc0504024fa:	fd043583          	ld	a1,-48(s0)
ffffffc0504024fe:	853e                	mv	a0,a5
ffffffc050402500:	316010ef          	jal	ra,ffffffc050403816 <k_mbox_recv>
ffffffc050402504:	87aa                	mv	a5,a0
ffffffc050402506:	a081                	j	ffffffc050402546 <k_commop+0x1a2>
ffffffc050402508:	fe043783          	ld	a5,-32(s0)
ffffffc05040250c:	439c                	lw	a5,0(a5)
ffffffc05040250e:	37fd                	addiw	a5,a5,-1
ffffffc050402510:	2781                	sext.w	a5,a5
ffffffc050402512:	fec42703          	lw	a4,-20(s0)
ffffffc050402516:	863a                	mv	a2,a4
ffffffc050402518:	fd043583          	ld	a1,-48(s0)
ffffffc05040251c:	853e                	mv	a0,a5
ffffffc05040251e:	60c010ef          	jal	ra,ffffffc050403b2a <k_mbox_try_send>
ffffffc050402522:	87aa                	mv	a5,a0
ffffffc050402524:	a00d                	j	ffffffc050402546 <k_commop+0x1a2>
ffffffc050402526:	fe043783          	ld	a5,-32(s0)
ffffffc05040252a:	439c                	lw	a5,0(a5)
ffffffc05040252c:	37fd                	addiw	a5,a5,-1
ffffffc05040252e:	2781                	sext.w	a5,a5
ffffffc050402530:	fec42703          	lw	a4,-20(s0)
ffffffc050402534:	863a                	mv	a2,a4
ffffffc050402536:	fd043583          	ld	a1,-48(s0)
ffffffc05040253a:	853e                	mv	a0,a5
ffffffc05040253c:	6d0010ef          	jal	ra,ffffffc050403c0c <k_mbox_try_recv>
ffffffc050402540:	87aa                	mv	a5,a0
ffffffc050402542:	a011                	j	ffffffc050402546 <k_commop+0x1a2>
ffffffc050402544:	0001                	nop
ffffffc050402546:	853e                	mv	a0,a5
ffffffc050402548:	70e2                	ld	ra,56(sp)
ffffffc05040254a:	7442                	ld	s0,48(sp)
ffffffc05040254c:	6121                	addi	sp,sp,64
ffffffc05040254e:	8082                	ret

ffffffc050402550 <k_semaphore_init>:
ffffffc050402550:	7179                	addi	sp,sp,-48
ffffffc050402552:	f406                	sd	ra,40(sp)
ffffffc050402554:	f022                	sd	s0,32(sp)
ffffffc050402556:	1800                	addi	s0,sp,48
ffffffc050402558:	fca43c23          	sd	a0,-40(s0)
ffffffc05040255c:	87ae                	mv	a5,a1
ffffffc05040255e:	8732                	mv	a4,a2
ffffffc050402560:	fcf42a23          	sw	a5,-44(s0)
ffffffc050402564:	87ba                	mv	a5,a4
ffffffc050402566:	fcf42823          	sw	a5,-48(s0)
ffffffc05040256a:	81418793          	addi	a5,gp,-2028 # ffffffc05044c9bc <sem_first_time>
ffffffc05040256e:	439c                	lw	a5,0(a5)
ffffffc050402570:	cfa9                	beqz	a5,ffffffc0504025ca <k_semaphore_init+0x7a>
ffffffc050402572:	fe042623          	sw	zero,-20(s0)
ffffffc050402576:	a83d                	j	ffffffc0504025b4 <k_semaphore_init+0x64>
ffffffc050402578:	02000513          	li	a0,32
ffffffc05040257c:	155030ef          	jal	ra,ffffffc050405ed0 <kmalloc>
ffffffc050402580:	86aa                	mv	a3,a0
ffffffc050402582:	0004f717          	auipc	a4,0x4f
ffffffc050402586:	4b670713          	addi	a4,a4,1206 # ffffffc050451a38 <sem_list>
ffffffc05040258a:	fec42783          	lw	a5,-20(s0)
ffffffc05040258e:	078e                	slli	a5,a5,0x3
ffffffc050402590:	97ba                	add	a5,a5,a4
ffffffc050402592:	e394                	sd	a3,0(a5)
ffffffc050402594:	0004f717          	auipc	a4,0x4f
ffffffc050402598:	4a470713          	addi	a4,a4,1188 # ffffffc050451a38 <sem_list>
ffffffc05040259c:	fec42783          	lw	a5,-20(s0)
ffffffc0504025a0:	078e                	slli	a5,a5,0x3
ffffffc0504025a2:	97ba                	add	a5,a5,a4
ffffffc0504025a4:	639c                	ld	a5,0(a5)
ffffffc0504025a6:	0007a223          	sw	zero,4(a5)
ffffffc0504025aa:	fec42783          	lw	a5,-20(s0)
ffffffc0504025ae:	2785                	addiw	a5,a5,1
ffffffc0504025b0:	fef42623          	sw	a5,-20(s0)
ffffffc0504025b4:	fec42783          	lw	a5,-20(s0)
ffffffc0504025b8:	0007871b          	sext.w	a4,a5
ffffffc0504025bc:	47fd                	li	a5,31
ffffffc0504025be:	fae7dde3          	bge	a5,a4,ffffffc050402578 <k_semaphore_init+0x28>
ffffffc0504025c2:	81418793          	addi	a5,gp,-2028 # ffffffc05044c9bc <sem_first_time>
ffffffc0504025c6:	0007a023          	sw	zero,0(a5)
ffffffc0504025ca:	fd843783          	ld	a5,-40(s0)
ffffffc0504025ce:	439c                	lw	a5,0(a5)
ffffffc0504025d0:	00f05463          	blez	a5,ffffffc0504025d8 <k_semaphore_init+0x88>
ffffffc0504025d4:	57f9                	li	a5,-2
ffffffc0504025d6:	a045                	j	ffffffc050402676 <k_semaphore_init+0x126>
ffffffc0504025d8:	fd843783          	ld	a5,-40(s0)
ffffffc0504025dc:	439c                	lw	a5,0(a5)
ffffffc0504025de:	0007d463          	bgez	a5,ffffffc0504025e6 <k_semaphore_init+0x96>
ffffffc0504025e2:	57f5                	li	a5,-3
ffffffc0504025e4:	a849                	j	ffffffc050402676 <k_semaphore_init+0x126>
ffffffc0504025e6:	4501                	li	a0,0
ffffffc0504025e8:	c3fff0ef          	jal	ra,ffffffc050402226 <find_free>
ffffffc0504025ec:	87aa                	mv	a5,a0
ffffffc0504025ee:	fef42423          	sw	a5,-24(s0)
ffffffc0504025f2:	fe842783          	lw	a5,-24(s0)
ffffffc0504025f6:	2781                	sext.w	a5,a5
ffffffc0504025f8:	0007d463          	bgez	a5,ffffffc050402600 <k_semaphore_init+0xb0>
ffffffc0504025fc:	57fd                	li	a5,-1
ffffffc0504025fe:	a8a5                	j	ffffffc050402676 <k_semaphore_init+0x126>
ffffffc050402600:	0004f717          	auipc	a4,0x4f
ffffffc050402604:	43870713          	addi	a4,a4,1080 # ffffffc050451a38 <sem_list>
ffffffc050402608:	fe842783          	lw	a5,-24(s0)
ffffffc05040260c:	078e                	slli	a5,a5,0x3
ffffffc05040260e:	97ba                	add	a5,a5,a4
ffffffc050402610:	639c                	ld	a5,0(a5)
ffffffc050402612:	fe842703          	lw	a4,-24(s0)
ffffffc050402616:	2705                	addiw	a4,a4,1
ffffffc050402618:	2701                	sext.w	a4,a4
ffffffc05040261a:	c398                	sw	a4,0(a5)
ffffffc05040261c:	0004f717          	auipc	a4,0x4f
ffffffc050402620:	41c70713          	addi	a4,a4,1052 # ffffffc050451a38 <sem_list>
ffffffc050402624:	fe842783          	lw	a5,-24(s0)
ffffffc050402628:	078e                	slli	a5,a5,0x3
ffffffc05040262a:	97ba                	add	a5,a5,a4
ffffffc05040262c:	639c                	ld	a5,0(a5)
ffffffc05040262e:	4705                	li	a4,1
ffffffc050402630:	c3d8                	sw	a4,4(a5)
ffffffc050402632:	0004f717          	auipc	a4,0x4f
ffffffc050402636:	40670713          	addi	a4,a4,1030 # ffffffc050451a38 <sem_list>
ffffffc05040263a:	fe842783          	lw	a5,-24(s0)
ffffffc05040263e:	078e                	slli	a5,a5,0x3
ffffffc050402640:	97ba                	add	a5,a5,a4
ffffffc050402642:	639c                	ld	a5,0(a5)
ffffffc050402644:	fd442703          	lw	a4,-44(s0)
ffffffc050402648:	c798                	sw	a4,8(a5)
ffffffc05040264a:	0004f717          	auipc	a4,0x4f
ffffffc05040264e:	3ee70713          	addi	a4,a4,1006 # ffffffc050451a38 <sem_list>
ffffffc050402652:	fe842783          	lw	a5,-24(s0)
ffffffc050402656:	078e                	slli	a5,a5,0x3
ffffffc050402658:	97ba                	add	a5,a5,a4
ffffffc05040265a:	639c                	ld	a5,0(a5)
ffffffc05040265c:	07c1                	addi	a5,a5,16
ffffffc05040265e:	853e                	mv	a0,a5
ffffffc050402660:	b77ff0ef          	jal	ra,ffffffc0504021d6 <init_list_head>
ffffffc050402664:	fe842783          	lw	a5,-24(s0)
ffffffc050402668:	2785                	addiw	a5,a5,1
ffffffc05040266a:	0007871b          	sext.w	a4,a5
ffffffc05040266e:	fd843783          	ld	a5,-40(s0)
ffffffc050402672:	c398                	sw	a4,0(a5)
ffffffc050402674:	4781                	li	a5,0
ffffffc050402676:	853e                	mv	a0,a5
ffffffc050402678:	70a2                	ld	ra,40(sp)
ffffffc05040267a:	7402                	ld	s0,32(sp)
ffffffc05040267c:	6145                	addi	sp,sp,48
ffffffc05040267e:	8082                	ret

ffffffc050402680 <k_semaphore_p>:
ffffffc050402680:	1101                	addi	sp,sp,-32
ffffffc050402682:	ec06                	sd	ra,24(sp)
ffffffc050402684:	e822                	sd	s0,16(sp)
ffffffc050402686:	1000                	addi	s0,sp,32
ffffffc050402688:	87aa                	mv	a5,a0
ffffffc05040268a:	872e                	mv	a4,a1
ffffffc05040268c:	fef42623          	sw	a5,-20(s0)
ffffffc050402690:	87ba                	mv	a5,a4
ffffffc050402692:	fef42423          	sw	a5,-24(s0)
ffffffc050402696:	0004f717          	auipc	a4,0x4f
ffffffc05040269a:	3a270713          	addi	a4,a4,930 # ffffffc050451a38 <sem_list>
ffffffc05040269e:	fec42783          	lw	a5,-20(s0)
ffffffc0504026a2:	078e                	slli	a5,a5,0x3
ffffffc0504026a4:	97ba                	add	a5,a5,a4
ffffffc0504026a6:	639c                	ld	a5,0(a5)
ffffffc0504026a8:	43dc                	lw	a5,4(a5)
ffffffc0504026aa:	e399                	bnez	a5,ffffffc0504026b0 <k_semaphore_p+0x30>
ffffffc0504026ac:	57fd                	li	a5,-1
ffffffc0504026ae:	a095                	j	ffffffc050402712 <k_semaphore_p+0x92>
ffffffc0504026b0:	0004f717          	auipc	a4,0x4f
ffffffc0504026b4:	38870713          	addi	a4,a4,904 # ffffffc050451a38 <sem_list>
ffffffc0504026b8:	fec42783          	lw	a5,-20(s0)
ffffffc0504026bc:	078e                	slli	a5,a5,0x3
ffffffc0504026be:	97ba                	add	a5,a5,a4
ffffffc0504026c0:	639c                	ld	a5,0(a5)
ffffffc0504026c2:	4798                	lw	a4,8(a5)
ffffffc0504026c4:	377d                	addiw	a4,a4,-1
ffffffc0504026c6:	2701                	sext.w	a4,a4
ffffffc0504026c8:	c798                	sw	a4,8(a5)
ffffffc0504026ca:	0004f717          	auipc	a4,0x4f
ffffffc0504026ce:	36e70713          	addi	a4,a4,878 # ffffffc050451a38 <sem_list>
ffffffc0504026d2:	fec42783          	lw	a5,-20(s0)
ffffffc0504026d6:	078e                	slli	a5,a5,0x3
ffffffc0504026d8:	97ba                	add	a5,a5,a4
ffffffc0504026da:	639c                	ld	a5,0(a5)
ffffffc0504026dc:	479c                	lw	a5,8(a5)
ffffffc0504026de:	0207da63          	bgez	a5,ffffffc050402712 <k_semaphore_p+0x92>
ffffffc0504026e2:	00050797          	auipc	a5,0x50
ffffffc0504026e6:	92e78793          	addi	a5,a5,-1746 # ffffffc050452010 <current_running>
ffffffc0504026ea:	639c                	ld	a5,0(a5)
ffffffc0504026ec:	639c                	ld	a5,0(a5)
ffffffc0504026ee:	05878693          	addi	a3,a5,88
ffffffc0504026f2:	0004f717          	auipc	a4,0x4f
ffffffc0504026f6:	34670713          	addi	a4,a4,838 # ffffffc050451a38 <sem_list>
ffffffc0504026fa:	fec42783          	lw	a5,-20(s0)
ffffffc0504026fe:	078e                	slli	a5,a5,0x3
ffffffc050402700:	97ba                	add	a5,a5,a4
ffffffc050402702:	639c                	ld	a5,0(a5)
ffffffc050402704:	07c1                	addi	a5,a5,16
ffffffc050402706:	85be                	mv	a1,a5
ffffffc050402708:	8536                	mv	a0,a3
ffffffc05040270a:	6af010ef          	jal	ra,ffffffc0504045b8 <k_block>
ffffffc05040270e:	3bb010ef          	jal	ra,ffffffc0504042c8 <k_scheduler>
ffffffc050402712:	853e                	mv	a0,a5
ffffffc050402714:	60e2                	ld	ra,24(sp)
ffffffc050402716:	6442                	ld	s0,16(sp)
ffffffc050402718:	6105                	addi	sp,sp,32
ffffffc05040271a:	8082                	ret

ffffffc05040271c <k_semaphore_v>:
ffffffc05040271c:	1101                	addi	sp,sp,-32
ffffffc05040271e:	ec06                	sd	ra,24(sp)
ffffffc050402720:	e822                	sd	s0,16(sp)
ffffffc050402722:	1000                	addi	s0,sp,32
ffffffc050402724:	87aa                	mv	a5,a0
ffffffc050402726:	872e                	mv	a4,a1
ffffffc050402728:	fef42623          	sw	a5,-20(s0)
ffffffc05040272c:	87ba                	mv	a5,a4
ffffffc05040272e:	fef42423          	sw	a5,-24(s0)
ffffffc050402732:	0004f717          	auipc	a4,0x4f
ffffffc050402736:	30670713          	addi	a4,a4,774 # ffffffc050451a38 <sem_list>
ffffffc05040273a:	fec42783          	lw	a5,-20(s0)
ffffffc05040273e:	078e                	slli	a5,a5,0x3
ffffffc050402740:	97ba                	add	a5,a5,a4
ffffffc050402742:	639c                	ld	a5,0(a5)
ffffffc050402744:	43dc                	lw	a5,4(a5)
ffffffc050402746:	e399                	bnez	a5,ffffffc05040274c <k_semaphore_v+0x30>
ffffffc050402748:	57fd                	li	a5,-1
ffffffc05040274a:	a0bd                	j	ffffffc0504027b8 <k_semaphore_v+0x9c>
ffffffc05040274c:	0004f717          	auipc	a4,0x4f
ffffffc050402750:	2ec70713          	addi	a4,a4,748 # ffffffc050451a38 <sem_list>
ffffffc050402754:	fec42783          	lw	a5,-20(s0)
ffffffc050402758:	078e                	slli	a5,a5,0x3
ffffffc05040275a:	97ba                	add	a5,a5,a4
ffffffc05040275c:	639c                	ld	a5,0(a5)
ffffffc05040275e:	4798                	lw	a4,8(a5)
ffffffc050402760:	2705                	addiw	a4,a4,1
ffffffc050402762:	2701                	sext.w	a4,a4
ffffffc050402764:	c798                	sw	a4,8(a5)
ffffffc050402766:	0004f717          	auipc	a4,0x4f
ffffffc05040276a:	2d270713          	addi	a4,a4,722 # ffffffc050451a38 <sem_list>
ffffffc05040276e:	fec42783          	lw	a5,-20(s0)
ffffffc050402772:	078e                	slli	a5,a5,0x3
ffffffc050402774:	97ba                	add	a5,a5,a4
ffffffc050402776:	639c                	ld	a5,0(a5)
ffffffc050402778:	479c                	lw	a5,8(a5)
ffffffc05040277a:	02f04f63          	bgtz	a5,ffffffc0504027b8 <k_semaphore_v+0x9c>
ffffffc05040277e:	0004f717          	auipc	a4,0x4f
ffffffc050402782:	2ba70713          	addi	a4,a4,698 # ffffffc050451a38 <sem_list>
ffffffc050402786:	fec42783          	lw	a5,-20(s0)
ffffffc05040278a:	078e                	slli	a5,a5,0x3
ffffffc05040278c:	97ba                	add	a5,a5,a4
ffffffc05040278e:	639c                	ld	a5,0(a5)
ffffffc050402790:	07c1                	addi	a5,a5,16
ffffffc050402792:	853e                	mv	a0,a5
ffffffc050402794:	a69ff0ef          	jal	ra,ffffffc0504021fc <list_is_empty>
ffffffc050402798:	87aa                	mv	a5,a0
ffffffc05040279a:	ef99                	bnez	a5,ffffffc0504027b8 <k_semaphore_v+0x9c>
ffffffc05040279c:	0004f717          	auipc	a4,0x4f
ffffffc0504027a0:	29c70713          	addi	a4,a4,668 # ffffffc050451a38 <sem_list>
ffffffc0504027a4:	fec42783          	lw	a5,-20(s0)
ffffffc0504027a8:	078e                	slli	a5,a5,0x3
ffffffc0504027aa:	97ba                	add	a5,a5,a4
ffffffc0504027ac:	639c                	ld	a5,0(a5)
ffffffc0504027ae:	6b9c                	ld	a5,16(a5)
ffffffc0504027b0:	4589                	li	a1,2
ffffffc0504027b2:	853e                	mv	a0,a5
ffffffc0504027b4:	63b010ef          	jal	ra,ffffffc0504045ee <k_unblock>
ffffffc0504027b8:	853e                	mv	a0,a5
ffffffc0504027ba:	60e2                	ld	ra,24(sp)
ffffffc0504027bc:	6442                	ld	s0,16(sp)
ffffffc0504027be:	6105                	addi	sp,sp,32
ffffffc0504027c0:	8082                	ret

ffffffc0504027c2 <k_semaphore_destroy>:
ffffffc0504027c2:	1101                	addi	sp,sp,-32
ffffffc0504027c4:	ec06                	sd	ra,24(sp)
ffffffc0504027c6:	e822                	sd	s0,16(sp)
ffffffc0504027c8:	1000                	addi	s0,sp,32
ffffffc0504027ca:	fea43423          	sd	a0,-24(s0)
ffffffc0504027ce:	87ae                	mv	a5,a1
ffffffc0504027d0:	fef42223          	sw	a5,-28(s0)
ffffffc0504027d4:	fe843783          	ld	a5,-24(s0)
ffffffc0504027d8:	439c                	lw	a5,0(a5)
ffffffc0504027da:	37fd                	addiw	a5,a5,-1
ffffffc0504027dc:	2781                	sext.w	a5,a5
ffffffc0504027de:	0004f717          	auipc	a4,0x4f
ffffffc0504027e2:	25a70713          	addi	a4,a4,602 # ffffffc050451a38 <sem_list>
ffffffc0504027e6:	078e                	slli	a5,a5,0x3
ffffffc0504027e8:	97ba                	add	a5,a5,a4
ffffffc0504027ea:	639c                	ld	a5,0(a5)
ffffffc0504027ec:	43dc                	lw	a5,4(a5)
ffffffc0504027ee:	e399                	bnez	a5,ffffffc0504027f4 <k_semaphore_destroy+0x32>
ffffffc0504027f0:	57fd                	li	a5,-1
ffffffc0504027f2:	a03d                	j	ffffffc050402820 <k_semaphore_destroy+0x5e>
ffffffc0504027f4:	fe843783          	ld	a5,-24(s0)
ffffffc0504027f8:	439c                	lw	a5,0(a5)
ffffffc0504027fa:	37fd                	addiw	a5,a5,-1
ffffffc0504027fc:	2781                	sext.w	a5,a5
ffffffc0504027fe:	0004f717          	auipc	a4,0x4f
ffffffc050402802:	23a70713          	addi	a4,a4,570 # ffffffc050451a38 <sem_list>
ffffffc050402806:	078e                	slli	a5,a5,0x3
ffffffc050402808:	97ba                	add	a5,a5,a4
ffffffc05040280a:	639c                	ld	a5,0(a5)
ffffffc05040280c:	4621                	li	a2,8
ffffffc05040280e:	4581                	li	a1,0
ffffffc050402810:	853e                	mv	a0,a5
ffffffc050402812:	152040ef          	jal	ra,ffffffc050406964 <memset>
ffffffc050402816:	fe843783          	ld	a5,-24(s0)
ffffffc05040281a:	0007a023          	sw	zero,0(a5)
ffffffc05040281e:	4781                	li	a5,0
ffffffc050402820:	853e                	mv	a0,a5
ffffffc050402822:	60e2                	ld	ra,24(sp)
ffffffc050402824:	6442                	ld	s0,16(sp)
ffffffc050402826:	6105                	addi	sp,sp,32
ffffffc050402828:	8082                	ret

ffffffc05040282a <k_cond_init>:
ffffffc05040282a:	7179                	addi	sp,sp,-48
ffffffc05040282c:	f406                	sd	ra,40(sp)
ffffffc05040282e:	f022                	sd	s0,32(sp)
ffffffc050402830:	1800                	addi	s0,sp,48
ffffffc050402832:	fca43c23          	sd	a0,-40(s0)
ffffffc050402836:	87ae                	mv	a5,a1
ffffffc050402838:	fcf42a23          	sw	a5,-44(s0)
ffffffc05040283c:	81818793          	addi	a5,gp,-2024 # ffffffc05044c9c0 <cond_first_time>
ffffffc050402840:	439c                	lw	a5,0(a5)
ffffffc050402842:	cfa9                	beqz	a5,ffffffc05040289c <k_cond_init+0x72>
ffffffc050402844:	fe042623          	sw	zero,-20(s0)
ffffffc050402848:	a83d                	j	ffffffc050402886 <k_cond_init+0x5c>
ffffffc05040284a:	02000513          	li	a0,32
ffffffc05040284e:	682030ef          	jal	ra,ffffffc050405ed0 <kmalloc>
ffffffc050402852:	86aa                	mv	a3,a0
ffffffc050402854:	0004f717          	auipc	a4,0x4f
ffffffc050402858:	2e470713          	addi	a4,a4,740 # ffffffc050451b38 <cond_list>
ffffffc05040285c:	fec42783          	lw	a5,-20(s0)
ffffffc050402860:	078e                	slli	a5,a5,0x3
ffffffc050402862:	97ba                	add	a5,a5,a4
ffffffc050402864:	e394                	sd	a3,0(a5)
ffffffc050402866:	0004f717          	auipc	a4,0x4f
ffffffc05040286a:	2d270713          	addi	a4,a4,722 # ffffffc050451b38 <cond_list>
ffffffc05040286e:	fec42783          	lw	a5,-20(s0)
ffffffc050402872:	078e                	slli	a5,a5,0x3
ffffffc050402874:	97ba                	add	a5,a5,a4
ffffffc050402876:	639c                	ld	a5,0(a5)
ffffffc050402878:	0007a223          	sw	zero,4(a5)
ffffffc05040287c:	fec42783          	lw	a5,-20(s0)
ffffffc050402880:	2785                	addiw	a5,a5,1
ffffffc050402882:	fef42623          	sw	a5,-20(s0)
ffffffc050402886:	fec42783          	lw	a5,-20(s0)
ffffffc05040288a:	0007871b          	sext.w	a4,a5
ffffffc05040288e:	47fd                	li	a5,31
ffffffc050402890:	fae7dde3          	bge	a5,a4,ffffffc05040284a <k_cond_init+0x20>
ffffffc050402894:	81818793          	addi	a5,gp,-2024 # ffffffc05044c9c0 <cond_first_time>
ffffffc050402898:	0007a023          	sw	zero,0(a5)
ffffffc05040289c:	fd843783          	ld	a5,-40(s0)
ffffffc0504028a0:	439c                	lw	a5,0(a5)
ffffffc0504028a2:	00f05463          	blez	a5,ffffffc0504028aa <k_cond_init+0x80>
ffffffc0504028a6:	57f9                	li	a5,-2
ffffffc0504028a8:	a879                	j	ffffffc050402946 <k_cond_init+0x11c>
ffffffc0504028aa:	fd843783          	ld	a5,-40(s0)
ffffffc0504028ae:	439c                	lw	a5,0(a5)
ffffffc0504028b0:	0007d463          	bgez	a5,ffffffc0504028b8 <k_cond_init+0x8e>
ffffffc0504028b4:	57f5                	li	a5,-3
ffffffc0504028b6:	a841                	j	ffffffc050402946 <k_cond_init+0x11c>
ffffffc0504028b8:	4505                	li	a0,1
ffffffc0504028ba:	96dff0ef          	jal	ra,ffffffc050402226 <find_free>
ffffffc0504028be:	87aa                	mv	a5,a0
ffffffc0504028c0:	fef42423          	sw	a5,-24(s0)
ffffffc0504028c4:	fe842783          	lw	a5,-24(s0)
ffffffc0504028c8:	2781                	sext.w	a5,a5
ffffffc0504028ca:	0007d463          	bgez	a5,ffffffc0504028d2 <k_cond_init+0xa8>
ffffffc0504028ce:	57fd                	li	a5,-1
ffffffc0504028d0:	a89d                	j	ffffffc050402946 <k_cond_init+0x11c>
ffffffc0504028d2:	0004f717          	auipc	a4,0x4f
ffffffc0504028d6:	26670713          	addi	a4,a4,614 # ffffffc050451b38 <cond_list>
ffffffc0504028da:	fe842783          	lw	a5,-24(s0)
ffffffc0504028de:	078e                	slli	a5,a5,0x3
ffffffc0504028e0:	97ba                	add	a5,a5,a4
ffffffc0504028e2:	639c                	ld	a5,0(a5)
ffffffc0504028e4:	fe842703          	lw	a4,-24(s0)
ffffffc0504028e8:	2705                	addiw	a4,a4,1
ffffffc0504028ea:	2701                	sext.w	a4,a4
ffffffc0504028ec:	c398                	sw	a4,0(a5)
ffffffc0504028ee:	0004f717          	auipc	a4,0x4f
ffffffc0504028f2:	24a70713          	addi	a4,a4,586 # ffffffc050451b38 <cond_list>
ffffffc0504028f6:	fe842783          	lw	a5,-24(s0)
ffffffc0504028fa:	078e                	slli	a5,a5,0x3
ffffffc0504028fc:	97ba                	add	a5,a5,a4
ffffffc0504028fe:	639c                	ld	a5,0(a5)
ffffffc050402900:	4705                	li	a4,1
ffffffc050402902:	c3d8                	sw	a4,4(a5)
ffffffc050402904:	0004f717          	auipc	a4,0x4f
ffffffc050402908:	23470713          	addi	a4,a4,564 # ffffffc050451b38 <cond_list>
ffffffc05040290c:	fe842783          	lw	a5,-24(s0)
ffffffc050402910:	078e                	slli	a5,a5,0x3
ffffffc050402912:	97ba                	add	a5,a5,a4
ffffffc050402914:	639c                	ld	a5,0(a5)
ffffffc050402916:	0007a423          	sw	zero,8(a5)
ffffffc05040291a:	0004f717          	auipc	a4,0x4f
ffffffc05040291e:	21e70713          	addi	a4,a4,542 # ffffffc050451b38 <cond_list>
ffffffc050402922:	fe842783          	lw	a5,-24(s0)
ffffffc050402926:	078e                	slli	a5,a5,0x3
ffffffc050402928:	97ba                	add	a5,a5,a4
ffffffc05040292a:	639c                	ld	a5,0(a5)
ffffffc05040292c:	07c1                	addi	a5,a5,16
ffffffc05040292e:	853e                	mv	a0,a5
ffffffc050402930:	8a7ff0ef          	jal	ra,ffffffc0504021d6 <init_list_head>
ffffffc050402934:	fe842783          	lw	a5,-24(s0)
ffffffc050402938:	2785                	addiw	a5,a5,1
ffffffc05040293a:	0007871b          	sext.w	a4,a5
ffffffc05040293e:	fd843783          	ld	a5,-40(s0)
ffffffc050402942:	c398                	sw	a4,0(a5)
ffffffc050402944:	4781                	li	a5,0
ffffffc050402946:	853e                	mv	a0,a5
ffffffc050402948:	70a2                	ld	ra,40(sp)
ffffffc05040294a:	7402                	ld	s0,32(sp)
ffffffc05040294c:	6145                	addi	sp,sp,48
ffffffc05040294e:	8082                	ret

ffffffc050402950 <k_cond_wait>:
ffffffc050402950:	1101                	addi	sp,sp,-32
ffffffc050402952:	ec06                	sd	ra,24(sp)
ffffffc050402954:	e822                	sd	s0,16(sp)
ffffffc050402956:	1000                	addi	s0,sp,32
ffffffc050402958:	87aa                	mv	a5,a0
ffffffc05040295a:	86ae                	mv	a3,a1
ffffffc05040295c:	8732                	mv	a4,a2
ffffffc05040295e:	fef42623          	sw	a5,-20(s0)
ffffffc050402962:	87b6                	mv	a5,a3
ffffffc050402964:	fef42423          	sw	a5,-24(s0)
ffffffc050402968:	87ba                	mv	a5,a4
ffffffc05040296a:	fef42223          	sw	a5,-28(s0)
ffffffc05040296e:	0004f717          	auipc	a4,0x4f
ffffffc050402972:	1ca70713          	addi	a4,a4,458 # ffffffc050451b38 <cond_list>
ffffffc050402976:	fec42783          	lw	a5,-20(s0)
ffffffc05040297a:	078e                	slli	a5,a5,0x3
ffffffc05040297c:	97ba                	add	a5,a5,a4
ffffffc05040297e:	639c                	ld	a5,0(a5)
ffffffc050402980:	43dc                	lw	a5,4(a5)
ffffffc050402982:	e399                	bnez	a5,ffffffc050402988 <k_cond_wait+0x38>
ffffffc050402984:	57fd                	li	a5,-1
ffffffc050402986:	a0bd                	j	ffffffc0504029f4 <k_cond_wait+0xa4>
ffffffc050402988:	0004f717          	auipc	a4,0x4f
ffffffc05040298c:	1b070713          	addi	a4,a4,432 # ffffffc050451b38 <cond_list>
ffffffc050402990:	fec42783          	lw	a5,-20(s0)
ffffffc050402994:	078e                	slli	a5,a5,0x3
ffffffc050402996:	97ba                	add	a5,a5,a4
ffffffc050402998:	639c                	ld	a5,0(a5)
ffffffc05040299a:	4798                	lw	a4,8(a5)
ffffffc05040299c:	2705                	addiw	a4,a4,1
ffffffc05040299e:	2701                	sext.w	a4,a4
ffffffc0504029a0:	c798                	sw	a4,8(a5)
ffffffc0504029a2:	0004f797          	auipc	a5,0x4f
ffffffc0504029a6:	66e78793          	addi	a5,a5,1646 # ffffffc050452010 <current_running>
ffffffc0504029aa:	639c                	ld	a5,0(a5)
ffffffc0504029ac:	639c                	ld	a5,0(a5)
ffffffc0504029ae:	05878693          	addi	a3,a5,88
ffffffc0504029b2:	0004f717          	auipc	a4,0x4f
ffffffc0504029b6:	18670713          	addi	a4,a4,390 # ffffffc050451b38 <cond_list>
ffffffc0504029ba:	fec42783          	lw	a5,-20(s0)
ffffffc0504029be:	078e                	slli	a5,a5,0x3
ffffffc0504029c0:	97ba                	add	a5,a5,a4
ffffffc0504029c2:	639c                	ld	a5,0(a5)
ffffffc0504029c4:	07c1                	addi	a5,a5,16
ffffffc0504029c6:	85be                	mv	a1,a5
ffffffc0504029c8:	8536                	mv	a0,a3
ffffffc0504029ca:	3ef010ef          	jal	ra,ffffffc0504045b8 <k_block>
ffffffc0504029ce:	fe442703          	lw	a4,-28(s0)
ffffffc0504029d2:	fe842783          	lw	a5,-24(s0)
ffffffc0504029d6:	85ba                	mv	a1,a4
ffffffc0504029d8:	853e                	mv	a0,a5
ffffffc0504029da:	d98ff0ef          	jal	ra,ffffffc050401f72 <k_mutex_lock_release>
ffffffc0504029de:	0eb010ef          	jal	ra,ffffffc0504042c8 <k_scheduler>
ffffffc0504029e2:	fe442703          	lw	a4,-28(s0)
ffffffc0504029e6:	fe842783          	lw	a5,-24(s0)
ffffffc0504029ea:	85ba                	mv	a1,a4
ffffffc0504029ec:	853e                	mv	a0,a5
ffffffc0504029ee:	c0aff0ef          	jal	ra,ffffffc050401df8 <k_mutex_lock_acquire>
ffffffc0504029f2:	4781                	li	a5,0
ffffffc0504029f4:	853e                	mv	a0,a5
ffffffc0504029f6:	60e2                	ld	ra,24(sp)
ffffffc0504029f8:	6442                	ld	s0,16(sp)
ffffffc0504029fa:	6105                	addi	sp,sp,32
ffffffc0504029fc:	8082                	ret

ffffffc0504029fe <k_cond_signal>:
ffffffc0504029fe:	1101                	addi	sp,sp,-32
ffffffc050402a00:	ec06                	sd	ra,24(sp)
ffffffc050402a02:	e822                	sd	s0,16(sp)
ffffffc050402a04:	1000                	addi	s0,sp,32
ffffffc050402a06:	87aa                	mv	a5,a0
ffffffc050402a08:	872e                	mv	a4,a1
ffffffc050402a0a:	fef42623          	sw	a5,-20(s0)
ffffffc050402a0e:	87ba                	mv	a5,a4
ffffffc050402a10:	fef42423          	sw	a5,-24(s0)
ffffffc050402a14:	0004f717          	auipc	a4,0x4f
ffffffc050402a18:	12470713          	addi	a4,a4,292 # ffffffc050451b38 <cond_list>
ffffffc050402a1c:	fec42783          	lw	a5,-20(s0)
ffffffc050402a20:	078e                	slli	a5,a5,0x3
ffffffc050402a22:	97ba                	add	a5,a5,a4
ffffffc050402a24:	639c                	ld	a5,0(a5)
ffffffc050402a26:	43dc                	lw	a5,4(a5)
ffffffc050402a28:	e399                	bnez	a5,ffffffc050402a2e <k_cond_signal+0x30>
ffffffc050402a2a:	57fd                	li	a5,-1
ffffffc050402a2c:	a889                	j	ffffffc050402a7e <k_cond_signal+0x80>
ffffffc050402a2e:	0004f717          	auipc	a4,0x4f
ffffffc050402a32:	10a70713          	addi	a4,a4,266 # ffffffc050451b38 <cond_list>
ffffffc050402a36:	fec42783          	lw	a5,-20(s0)
ffffffc050402a3a:	078e                	slli	a5,a5,0x3
ffffffc050402a3c:	97ba                	add	a5,a5,a4
ffffffc050402a3e:	639c                	ld	a5,0(a5)
ffffffc050402a40:	479c                	lw	a5,8(a5)
ffffffc050402a42:	02f05d63          	blez	a5,ffffffc050402a7c <k_cond_signal+0x7e>
ffffffc050402a46:	0004f717          	auipc	a4,0x4f
ffffffc050402a4a:	0f270713          	addi	a4,a4,242 # ffffffc050451b38 <cond_list>
ffffffc050402a4e:	fec42783          	lw	a5,-20(s0)
ffffffc050402a52:	078e                	slli	a5,a5,0x3
ffffffc050402a54:	97ba                	add	a5,a5,a4
ffffffc050402a56:	639c                	ld	a5,0(a5)
ffffffc050402a58:	6b9c                	ld	a5,16(a5)
ffffffc050402a5a:	4589                	li	a1,2
ffffffc050402a5c:	853e                	mv	a0,a5
ffffffc050402a5e:	391010ef          	jal	ra,ffffffc0504045ee <k_unblock>
ffffffc050402a62:	0004f717          	auipc	a4,0x4f
ffffffc050402a66:	0d670713          	addi	a4,a4,214 # ffffffc050451b38 <cond_list>
ffffffc050402a6a:	fec42783          	lw	a5,-20(s0)
ffffffc050402a6e:	078e                	slli	a5,a5,0x3
ffffffc050402a70:	97ba                	add	a5,a5,a4
ffffffc050402a72:	639c                	ld	a5,0(a5)
ffffffc050402a74:	4798                	lw	a4,8(a5)
ffffffc050402a76:	377d                	addiw	a4,a4,-1
ffffffc050402a78:	2701                	sext.w	a4,a4
ffffffc050402a7a:	c798                	sw	a4,8(a5)
ffffffc050402a7c:	4781                	li	a5,0
ffffffc050402a7e:	853e                	mv	a0,a5
ffffffc050402a80:	60e2                	ld	ra,24(sp)
ffffffc050402a82:	6442                	ld	s0,16(sp)
ffffffc050402a84:	6105                	addi	sp,sp,32
ffffffc050402a86:	8082                	ret

ffffffc050402a88 <k_cond_broadcast>:
ffffffc050402a88:	1101                	addi	sp,sp,-32
ffffffc050402a8a:	ec06                	sd	ra,24(sp)
ffffffc050402a8c:	e822                	sd	s0,16(sp)
ffffffc050402a8e:	1000                	addi	s0,sp,32
ffffffc050402a90:	87aa                	mv	a5,a0
ffffffc050402a92:	872e                	mv	a4,a1
ffffffc050402a94:	fef42623          	sw	a5,-20(s0)
ffffffc050402a98:	87ba                	mv	a5,a4
ffffffc050402a9a:	fef42423          	sw	a5,-24(s0)
ffffffc050402a9e:	0004f717          	auipc	a4,0x4f
ffffffc050402aa2:	09a70713          	addi	a4,a4,154 # ffffffc050451b38 <cond_list>
ffffffc050402aa6:	fec42783          	lw	a5,-20(s0)
ffffffc050402aaa:	078e                	slli	a5,a5,0x3
ffffffc050402aac:	97ba                	add	a5,a5,a4
ffffffc050402aae:	639c                	ld	a5,0(a5)
ffffffc050402ab0:	43dc                	lw	a5,4(a5)
ffffffc050402ab2:	ef95                	bnez	a5,ffffffc050402aee <k_cond_broadcast+0x66>
ffffffc050402ab4:	57fd                	li	a5,-1
ffffffc050402ab6:	a889                	j	ffffffc050402b08 <k_cond_broadcast+0x80>
ffffffc050402ab8:	0004f717          	auipc	a4,0x4f
ffffffc050402abc:	08070713          	addi	a4,a4,128 # ffffffc050451b38 <cond_list>
ffffffc050402ac0:	fec42783          	lw	a5,-20(s0)
ffffffc050402ac4:	078e                	slli	a5,a5,0x3
ffffffc050402ac6:	97ba                	add	a5,a5,a4
ffffffc050402ac8:	639c                	ld	a5,0(a5)
ffffffc050402aca:	6b9c                	ld	a5,16(a5)
ffffffc050402acc:	4589                	li	a1,2
ffffffc050402ace:	853e                	mv	a0,a5
ffffffc050402ad0:	31f010ef          	jal	ra,ffffffc0504045ee <k_unblock>
ffffffc050402ad4:	0004f717          	auipc	a4,0x4f
ffffffc050402ad8:	06470713          	addi	a4,a4,100 # ffffffc050451b38 <cond_list>
ffffffc050402adc:	fec42783          	lw	a5,-20(s0)
ffffffc050402ae0:	078e                	slli	a5,a5,0x3
ffffffc050402ae2:	97ba                	add	a5,a5,a4
ffffffc050402ae4:	639c                	ld	a5,0(a5)
ffffffc050402ae6:	4798                	lw	a4,8(a5)
ffffffc050402ae8:	377d                	addiw	a4,a4,-1
ffffffc050402aea:	2701                	sext.w	a4,a4
ffffffc050402aec:	c798                	sw	a4,8(a5)
ffffffc050402aee:	0004f717          	auipc	a4,0x4f
ffffffc050402af2:	04a70713          	addi	a4,a4,74 # ffffffc050451b38 <cond_list>
ffffffc050402af6:	fec42783          	lw	a5,-20(s0)
ffffffc050402afa:	078e                	slli	a5,a5,0x3
ffffffc050402afc:	97ba                	add	a5,a5,a4
ffffffc050402afe:	639c                	ld	a5,0(a5)
ffffffc050402b00:	479c                	lw	a5,8(a5)
ffffffc050402b02:	faf04be3          	bgtz	a5,ffffffc050402ab8 <k_cond_broadcast+0x30>
ffffffc050402b06:	4781                	li	a5,0
ffffffc050402b08:	853e                	mv	a0,a5
ffffffc050402b0a:	60e2                	ld	ra,24(sp)
ffffffc050402b0c:	6442                	ld	s0,16(sp)
ffffffc050402b0e:	6105                	addi	sp,sp,32
ffffffc050402b10:	8082                	ret

ffffffc050402b12 <k_cond_destroy>:
ffffffc050402b12:	1101                	addi	sp,sp,-32
ffffffc050402b14:	ec06                	sd	ra,24(sp)
ffffffc050402b16:	e822                	sd	s0,16(sp)
ffffffc050402b18:	1000                	addi	s0,sp,32
ffffffc050402b1a:	fea43423          	sd	a0,-24(s0)
ffffffc050402b1e:	87ae                	mv	a5,a1
ffffffc050402b20:	fef42223          	sw	a5,-28(s0)
ffffffc050402b24:	fe843783          	ld	a5,-24(s0)
ffffffc050402b28:	439c                	lw	a5,0(a5)
ffffffc050402b2a:	37fd                	addiw	a5,a5,-1
ffffffc050402b2c:	2781                	sext.w	a5,a5
ffffffc050402b2e:	0004f717          	auipc	a4,0x4f
ffffffc050402b32:	00a70713          	addi	a4,a4,10 # ffffffc050451b38 <cond_list>
ffffffc050402b36:	078e                	slli	a5,a5,0x3
ffffffc050402b38:	97ba                	add	a5,a5,a4
ffffffc050402b3a:	639c                	ld	a5,0(a5)
ffffffc050402b3c:	43dc                	lw	a5,4(a5)
ffffffc050402b3e:	e399                	bnez	a5,ffffffc050402b44 <k_cond_destroy+0x32>
ffffffc050402b40:	57fd                	li	a5,-1
ffffffc050402b42:	a03d                	j	ffffffc050402b70 <k_cond_destroy+0x5e>
ffffffc050402b44:	fe843783          	ld	a5,-24(s0)
ffffffc050402b48:	439c                	lw	a5,0(a5)
ffffffc050402b4a:	37fd                	addiw	a5,a5,-1
ffffffc050402b4c:	2781                	sext.w	a5,a5
ffffffc050402b4e:	0004f717          	auipc	a4,0x4f
ffffffc050402b52:	fea70713          	addi	a4,a4,-22 # ffffffc050451b38 <cond_list>
ffffffc050402b56:	078e                	slli	a5,a5,0x3
ffffffc050402b58:	97ba                	add	a5,a5,a4
ffffffc050402b5a:	639c                	ld	a5,0(a5)
ffffffc050402b5c:	4621                	li	a2,8
ffffffc050402b5e:	4581                	li	a1,0
ffffffc050402b60:	853e                	mv	a0,a5
ffffffc050402b62:	603030ef          	jal	ra,ffffffc050406964 <memset>
ffffffc050402b66:	fe843783          	ld	a5,-24(s0)
ffffffc050402b6a:	0007a023          	sw	zero,0(a5)
ffffffc050402b6e:	4781                	li	a5,0
ffffffc050402b70:	853e                	mv	a0,a5
ffffffc050402b72:	60e2                	ld	ra,24(sp)
ffffffc050402b74:	6442                	ld	s0,16(sp)
ffffffc050402b76:	6105                	addi	sp,sp,32
ffffffc050402b78:	8082                	ret

ffffffc050402b7a <k_barrier_init>:
ffffffc050402b7a:	7179                	addi	sp,sp,-48
ffffffc050402b7c:	f406                	sd	ra,40(sp)
ffffffc050402b7e:	f022                	sd	s0,32(sp)
ffffffc050402b80:	1800                	addi	s0,sp,48
ffffffc050402b82:	fca43c23          	sd	a0,-40(s0)
ffffffc050402b86:	87ae                	mv	a5,a1
ffffffc050402b88:	8732                	mv	a4,a2
ffffffc050402b8a:	fcf42a23          	sw	a5,-44(s0)
ffffffc050402b8e:	87ba                	mv	a5,a4
ffffffc050402b90:	fcf42823          	sw	a5,-48(s0)
ffffffc050402b94:	81c18793          	addi	a5,gp,-2020 # ffffffc05044c9c4 <barrier_first_time>
ffffffc050402b98:	439c                	lw	a5,0(a5)
ffffffc050402b9a:	cfa1                	beqz	a5,ffffffc050402bf2 <k_barrier_init+0x78>
ffffffc050402b9c:	fe042623          	sw	zero,-20(s0)
ffffffc050402ba0:	a835                	j	ffffffc050402bdc <k_barrier_init+0x62>
ffffffc050402ba2:	4561                	li	a0,24
ffffffc050402ba4:	32c030ef          	jal	ra,ffffffc050405ed0 <kmalloc>
ffffffc050402ba8:	86aa                	mv	a3,a0
ffffffc050402baa:	0004f717          	auipc	a4,0x4f
ffffffc050402bae:	08e70713          	addi	a4,a4,142 # ffffffc050451c38 <barrier_list>
ffffffc050402bb2:	fec42783          	lw	a5,-20(s0)
ffffffc050402bb6:	078e                	slli	a5,a5,0x3
ffffffc050402bb8:	97ba                	add	a5,a5,a4
ffffffc050402bba:	e394                	sd	a3,0(a5)
ffffffc050402bbc:	0004f717          	auipc	a4,0x4f
ffffffc050402bc0:	07c70713          	addi	a4,a4,124 # ffffffc050451c38 <barrier_list>
ffffffc050402bc4:	fec42783          	lw	a5,-20(s0)
ffffffc050402bc8:	078e                	slli	a5,a5,0x3
ffffffc050402bca:	97ba                	add	a5,a5,a4
ffffffc050402bcc:	639c                	ld	a5,0(a5)
ffffffc050402bce:	0007a223          	sw	zero,4(a5)
ffffffc050402bd2:	fec42783          	lw	a5,-20(s0)
ffffffc050402bd6:	2785                	addiw	a5,a5,1
ffffffc050402bd8:	fef42623          	sw	a5,-20(s0)
ffffffc050402bdc:	fec42783          	lw	a5,-20(s0)
ffffffc050402be0:	0007871b          	sext.w	a4,a5
ffffffc050402be4:	47fd                	li	a5,31
ffffffc050402be6:	fae7dee3          	bge	a5,a4,ffffffc050402ba2 <k_barrier_init+0x28>
ffffffc050402bea:	81c18793          	addi	a5,gp,-2020 # ffffffc05044c9c4 <barrier_first_time>
ffffffc050402bee:	0007a023          	sw	zero,0(a5)
ffffffc050402bf2:	fd843783          	ld	a5,-40(s0)
ffffffc050402bf6:	439c                	lw	a5,0(a5)
ffffffc050402bf8:	00f05463          	blez	a5,ffffffc050402c00 <k_barrier_init+0x86>
ffffffc050402bfc:	57f9                	li	a5,-2
ffffffc050402bfe:	a221                	j	ffffffc050402d06 <k_barrier_init+0x18c>
ffffffc050402c00:	fd843783          	ld	a5,-40(s0)
ffffffc050402c04:	439c                	lw	a5,0(a5)
ffffffc050402c06:	0007d463          	bgez	a5,ffffffc050402c0e <k_barrier_init+0x94>
ffffffc050402c0a:	57f5                	li	a5,-3
ffffffc050402c0c:	a8ed                	j	ffffffc050402d06 <k_barrier_init+0x18c>
ffffffc050402c0e:	4509                	li	a0,2
ffffffc050402c10:	e16ff0ef          	jal	ra,ffffffc050402226 <find_free>
ffffffc050402c14:	87aa                	mv	a5,a0
ffffffc050402c16:	fef42423          	sw	a5,-24(s0)
ffffffc050402c1a:	fe842783          	lw	a5,-24(s0)
ffffffc050402c1e:	2781                	sext.w	a5,a5
ffffffc050402c20:	0007d463          	bgez	a5,ffffffc050402c28 <k_barrier_init+0xae>
ffffffc050402c24:	57fd                	li	a5,-1
ffffffc050402c26:	a0c5                	j	ffffffc050402d06 <k_barrier_init+0x18c>
ffffffc050402c28:	0004f717          	auipc	a4,0x4f
ffffffc050402c2c:	01070713          	addi	a4,a4,16 # ffffffc050451c38 <barrier_list>
ffffffc050402c30:	fe842783          	lw	a5,-24(s0)
ffffffc050402c34:	078e                	slli	a5,a5,0x3
ffffffc050402c36:	97ba                	add	a5,a5,a4
ffffffc050402c38:	639c                	ld	a5,0(a5)
ffffffc050402c3a:	fe842703          	lw	a4,-24(s0)
ffffffc050402c3e:	2705                	addiw	a4,a4,1
ffffffc050402c40:	2701                	sext.w	a4,a4
ffffffc050402c42:	c398                	sw	a4,0(a5)
ffffffc050402c44:	0004f717          	auipc	a4,0x4f
ffffffc050402c48:	ff470713          	addi	a4,a4,-12 # ffffffc050451c38 <barrier_list>
ffffffc050402c4c:	fe842783          	lw	a5,-24(s0)
ffffffc050402c50:	078e                	slli	a5,a5,0x3
ffffffc050402c52:	97ba                	add	a5,a5,a4
ffffffc050402c54:	639c                	ld	a5,0(a5)
ffffffc050402c56:	4705                	li	a4,1
ffffffc050402c58:	c3d8                	sw	a4,4(a5)
ffffffc050402c5a:	0004f717          	auipc	a4,0x4f
ffffffc050402c5e:	fde70713          	addi	a4,a4,-34 # ffffffc050451c38 <barrier_list>
ffffffc050402c62:	fe842783          	lw	a5,-24(s0)
ffffffc050402c66:	078e                	slli	a5,a5,0x3
ffffffc050402c68:	97ba                	add	a5,a5,a4
ffffffc050402c6a:	639c                	ld	a5,0(a5)
ffffffc050402c6c:	0007a423          	sw	zero,8(a5)
ffffffc050402c70:	0004f717          	auipc	a4,0x4f
ffffffc050402c74:	fc870713          	addi	a4,a4,-56 # ffffffc050451c38 <barrier_list>
ffffffc050402c78:	fe842783          	lw	a5,-24(s0)
ffffffc050402c7c:	078e                	slli	a5,a5,0x3
ffffffc050402c7e:	97ba                	add	a5,a5,a4
ffffffc050402c80:	639c                	ld	a5,0(a5)
ffffffc050402c82:	fd442703          	lw	a4,-44(s0)
ffffffc050402c86:	c7d8                	sw	a4,12(a5)
ffffffc050402c88:	0004f717          	auipc	a4,0x4f
ffffffc050402c8c:	fb070713          	addi	a4,a4,-80 # ffffffc050451c38 <barrier_list>
ffffffc050402c90:	fe842783          	lw	a5,-24(s0)
ffffffc050402c94:	078e                	slli	a5,a5,0x3
ffffffc050402c96:	97ba                	add	a5,a5,a4
ffffffc050402c98:	639c                	ld	a5,0(a5)
ffffffc050402c9a:	0007a823          	sw	zero,16(a5)
ffffffc050402c9e:	0004f717          	auipc	a4,0x4f
ffffffc050402ca2:	f9a70713          	addi	a4,a4,-102 # ffffffc050451c38 <barrier_list>
ffffffc050402ca6:	fe842783          	lw	a5,-24(s0)
ffffffc050402caa:	078e                	slli	a5,a5,0x3
ffffffc050402cac:	97ba                	add	a5,a5,a4
ffffffc050402cae:	639c                	ld	a5,0(a5)
ffffffc050402cb0:	0007aa23          	sw	zero,20(a5)
ffffffc050402cb4:	0004f717          	auipc	a4,0x4f
ffffffc050402cb8:	f8470713          	addi	a4,a4,-124 # ffffffc050451c38 <barrier_list>
ffffffc050402cbc:	fe842783          	lw	a5,-24(s0)
ffffffc050402cc0:	078e                	slli	a5,a5,0x3
ffffffc050402cc2:	97ba                	add	a5,a5,a4
ffffffc050402cc4:	639c                	ld	a5,0(a5)
ffffffc050402cc6:	07c1                	addi	a5,a5,16
ffffffc050402cc8:	fd042703          	lw	a4,-48(s0)
ffffffc050402ccc:	85ba                	mv	a1,a4
ffffffc050402cce:	853e                	mv	a0,a5
ffffffc050402cd0:	fe3fe0ef          	jal	ra,ffffffc050401cb2 <k_mutex_lock_init>
ffffffc050402cd4:	0004f717          	auipc	a4,0x4f
ffffffc050402cd8:	f6470713          	addi	a4,a4,-156 # ffffffc050451c38 <barrier_list>
ffffffc050402cdc:	fe842783          	lw	a5,-24(s0)
ffffffc050402ce0:	078e                	slli	a5,a5,0x3
ffffffc050402ce2:	97ba                	add	a5,a5,a4
ffffffc050402ce4:	639c                	ld	a5,0(a5)
ffffffc050402ce6:	07d1                	addi	a5,a5,20
ffffffc050402ce8:	fd042703          	lw	a4,-48(s0)
ffffffc050402cec:	85ba                	mv	a1,a4
ffffffc050402cee:	853e                	mv	a0,a5
ffffffc050402cf0:	b3bff0ef          	jal	ra,ffffffc05040282a <k_cond_init>
ffffffc050402cf4:	fe842783          	lw	a5,-24(s0)
ffffffc050402cf8:	2785                	addiw	a5,a5,1
ffffffc050402cfa:	0007871b          	sext.w	a4,a5
ffffffc050402cfe:	fd843783          	ld	a5,-40(s0)
ffffffc050402d02:	c398                	sw	a4,0(a5)
ffffffc050402d04:	4781                	li	a5,0
ffffffc050402d06:	853e                	mv	a0,a5
ffffffc050402d08:	70a2                	ld	ra,40(sp)
ffffffc050402d0a:	7402                	ld	s0,32(sp)
ffffffc050402d0c:	6145                	addi	sp,sp,48
ffffffc050402d0e:	8082                	ret

ffffffc050402d10 <k_barrier_wait>:
ffffffc050402d10:	1101                	addi	sp,sp,-32
ffffffc050402d12:	ec06                	sd	ra,24(sp)
ffffffc050402d14:	e822                	sd	s0,16(sp)
ffffffc050402d16:	1000                	addi	s0,sp,32
ffffffc050402d18:	87aa                	mv	a5,a0
ffffffc050402d1a:	872e                	mv	a4,a1
ffffffc050402d1c:	fef42623          	sw	a5,-20(s0)
ffffffc050402d20:	87ba                	mv	a5,a4
ffffffc050402d22:	fef42423          	sw	a5,-24(s0)
ffffffc050402d26:	0004f717          	auipc	a4,0x4f
ffffffc050402d2a:	f1270713          	addi	a4,a4,-238 # ffffffc050451c38 <barrier_list>
ffffffc050402d2e:	fec42783          	lw	a5,-20(s0)
ffffffc050402d32:	078e                	slli	a5,a5,0x3
ffffffc050402d34:	97ba                	add	a5,a5,a4
ffffffc050402d36:	639c                	ld	a5,0(a5)
ffffffc050402d38:	43dc                	lw	a5,4(a5)
ffffffc050402d3a:	e399                	bnez	a5,ffffffc050402d40 <k_barrier_wait+0x30>
ffffffc050402d3c:	57fd                	li	a5,-1
ffffffc050402d3e:	a8fd                	j	ffffffc050402e3c <k_barrier_wait+0x12c>
ffffffc050402d40:	0004f717          	auipc	a4,0x4f
ffffffc050402d44:	ef870713          	addi	a4,a4,-264 # ffffffc050451c38 <barrier_list>
ffffffc050402d48:	fec42783          	lw	a5,-20(s0)
ffffffc050402d4c:	078e                	slli	a5,a5,0x3
ffffffc050402d4e:	97ba                	add	a5,a5,a4
ffffffc050402d50:	639c                	ld	a5,0(a5)
ffffffc050402d52:	4b9c                	lw	a5,16(a5)
ffffffc050402d54:	37fd                	addiw	a5,a5,-1
ffffffc050402d56:	2781                	sext.w	a5,a5
ffffffc050402d58:	fe842703          	lw	a4,-24(s0)
ffffffc050402d5c:	85ba                	mv	a1,a4
ffffffc050402d5e:	853e                	mv	a0,a5
ffffffc050402d60:	898ff0ef          	jal	ra,ffffffc050401df8 <k_mutex_lock_acquire>
ffffffc050402d64:	0004f717          	auipc	a4,0x4f
ffffffc050402d68:	ed470713          	addi	a4,a4,-300 # ffffffc050451c38 <barrier_list>
ffffffc050402d6c:	fec42783          	lw	a5,-20(s0)
ffffffc050402d70:	078e                	slli	a5,a5,0x3
ffffffc050402d72:	97ba                	add	a5,a5,a4
ffffffc050402d74:	639c                	ld	a5,0(a5)
ffffffc050402d76:	4798                	lw	a4,8(a5)
ffffffc050402d78:	2705                	addiw	a4,a4,1
ffffffc050402d7a:	2701                	sext.w	a4,a4
ffffffc050402d7c:	c798                	sw	a4,8(a5)
ffffffc050402d7e:	4794                	lw	a3,8(a5)
ffffffc050402d80:	0004f717          	auipc	a4,0x4f
ffffffc050402d84:	eb870713          	addi	a4,a4,-328 # ffffffc050451c38 <barrier_list>
ffffffc050402d88:	fec42783          	lw	a5,-20(s0)
ffffffc050402d8c:	078e                	slli	a5,a5,0x3
ffffffc050402d8e:	97ba                	add	a5,a5,a4
ffffffc050402d90:	639c                	ld	a5,0(a5)
ffffffc050402d92:	47dc                	lw	a5,12(a5)
ffffffc050402d94:	8736                	mv	a4,a3
ffffffc050402d96:	04f71063          	bne	a4,a5,ffffffc050402dd6 <k_barrier_wait+0xc6>
ffffffc050402d9a:	0004f717          	auipc	a4,0x4f
ffffffc050402d9e:	e9e70713          	addi	a4,a4,-354 # ffffffc050451c38 <barrier_list>
ffffffc050402da2:	fec42783          	lw	a5,-20(s0)
ffffffc050402da6:	078e                	slli	a5,a5,0x3
ffffffc050402da8:	97ba                	add	a5,a5,a4
ffffffc050402daa:	639c                	ld	a5,0(a5)
ffffffc050402dac:	0007a423          	sw	zero,8(a5)
ffffffc050402db0:	0004f717          	auipc	a4,0x4f
ffffffc050402db4:	e8870713          	addi	a4,a4,-376 # ffffffc050451c38 <barrier_list>
ffffffc050402db8:	fec42783          	lw	a5,-20(s0)
ffffffc050402dbc:	078e                	slli	a5,a5,0x3
ffffffc050402dbe:	97ba                	add	a5,a5,a4
ffffffc050402dc0:	639c                	ld	a5,0(a5)
ffffffc050402dc2:	4bdc                	lw	a5,20(a5)
ffffffc050402dc4:	37fd                	addiw	a5,a5,-1
ffffffc050402dc6:	2781                	sext.w	a5,a5
ffffffc050402dc8:	fe842703          	lw	a4,-24(s0)
ffffffc050402dcc:	85ba                	mv	a1,a4
ffffffc050402dce:	853e                	mv	a0,a5
ffffffc050402dd0:	cb9ff0ef          	jal	ra,ffffffc050402a88 <k_cond_broadcast>
ffffffc050402dd4:	a089                	j	ffffffc050402e16 <k_barrier_wait+0x106>
ffffffc050402dd6:	0004f717          	auipc	a4,0x4f
ffffffc050402dda:	e6270713          	addi	a4,a4,-414 # ffffffc050451c38 <barrier_list>
ffffffc050402dde:	fec42783          	lw	a5,-20(s0)
ffffffc050402de2:	078e                	slli	a5,a5,0x3
ffffffc050402de4:	97ba                	add	a5,a5,a4
ffffffc050402de6:	639c                	ld	a5,0(a5)
ffffffc050402de8:	4bdc                	lw	a5,20(a5)
ffffffc050402dea:	37fd                	addiw	a5,a5,-1
ffffffc050402dec:	0007869b          	sext.w	a3,a5
ffffffc050402df0:	0004f717          	auipc	a4,0x4f
ffffffc050402df4:	e4870713          	addi	a4,a4,-440 # ffffffc050451c38 <barrier_list>
ffffffc050402df8:	fec42783          	lw	a5,-20(s0)
ffffffc050402dfc:	078e                	slli	a5,a5,0x3
ffffffc050402dfe:	97ba                	add	a5,a5,a4
ffffffc050402e00:	639c                	ld	a5,0(a5)
ffffffc050402e02:	4b9c                	lw	a5,16(a5)
ffffffc050402e04:	37fd                	addiw	a5,a5,-1
ffffffc050402e06:	2781                	sext.w	a5,a5
ffffffc050402e08:	fe842703          	lw	a4,-24(s0)
ffffffc050402e0c:	863a                	mv	a2,a4
ffffffc050402e0e:	85be                	mv	a1,a5
ffffffc050402e10:	8536                	mv	a0,a3
ffffffc050402e12:	b3fff0ef          	jal	ra,ffffffc050402950 <k_cond_wait>
ffffffc050402e16:	0004f717          	auipc	a4,0x4f
ffffffc050402e1a:	e2270713          	addi	a4,a4,-478 # ffffffc050451c38 <barrier_list>
ffffffc050402e1e:	fec42783          	lw	a5,-20(s0)
ffffffc050402e22:	078e                	slli	a5,a5,0x3
ffffffc050402e24:	97ba                	add	a5,a5,a4
ffffffc050402e26:	639c                	ld	a5,0(a5)
ffffffc050402e28:	4b9c                	lw	a5,16(a5)
ffffffc050402e2a:	37fd                	addiw	a5,a5,-1
ffffffc050402e2c:	2781                	sext.w	a5,a5
ffffffc050402e2e:	fe842703          	lw	a4,-24(s0)
ffffffc050402e32:	85ba                	mv	a1,a4
ffffffc050402e34:	853e                	mv	a0,a5
ffffffc050402e36:	93cff0ef          	jal	ra,ffffffc050401f72 <k_mutex_lock_release>
ffffffc050402e3a:	4781                	li	a5,0
ffffffc050402e3c:	853e                	mv	a0,a5
ffffffc050402e3e:	60e2                	ld	ra,24(sp)
ffffffc050402e40:	6442                	ld	s0,16(sp)
ffffffc050402e42:	6105                	addi	sp,sp,32
ffffffc050402e44:	8082                	ret

ffffffc050402e46 <k_barrier_destroy>:
ffffffc050402e46:	1101                	addi	sp,sp,-32
ffffffc050402e48:	ec06                	sd	ra,24(sp)
ffffffc050402e4a:	e822                	sd	s0,16(sp)
ffffffc050402e4c:	1000                	addi	s0,sp,32
ffffffc050402e4e:	fea43423          	sd	a0,-24(s0)
ffffffc050402e52:	87ae                	mv	a5,a1
ffffffc050402e54:	fef42223          	sw	a5,-28(s0)
ffffffc050402e58:	fe843783          	ld	a5,-24(s0)
ffffffc050402e5c:	439c                	lw	a5,0(a5)
ffffffc050402e5e:	37fd                	addiw	a5,a5,-1
ffffffc050402e60:	2781                	sext.w	a5,a5
ffffffc050402e62:	0004f717          	auipc	a4,0x4f
ffffffc050402e66:	dd670713          	addi	a4,a4,-554 # ffffffc050451c38 <barrier_list>
ffffffc050402e6a:	078e                	slli	a5,a5,0x3
ffffffc050402e6c:	97ba                	add	a5,a5,a4
ffffffc050402e6e:	639c                	ld	a5,0(a5)
ffffffc050402e70:	43dc                	lw	a5,4(a5)
ffffffc050402e72:	e399                	bnez	a5,ffffffc050402e78 <k_barrier_destroy+0x32>
ffffffc050402e74:	57fd                	li	a5,-1
ffffffc050402e76:	a8ad                	j	ffffffc050402ef0 <k_barrier_destroy+0xaa>
ffffffc050402e78:	fe843783          	ld	a5,-24(s0)
ffffffc050402e7c:	439c                	lw	a5,0(a5)
ffffffc050402e7e:	37fd                	addiw	a5,a5,-1
ffffffc050402e80:	2781                	sext.w	a5,a5
ffffffc050402e82:	0004f717          	auipc	a4,0x4f
ffffffc050402e86:	db670713          	addi	a4,a4,-586 # ffffffc050451c38 <barrier_list>
ffffffc050402e8a:	078e                	slli	a5,a5,0x3
ffffffc050402e8c:	97ba                	add	a5,a5,a4
ffffffc050402e8e:	639c                	ld	a5,0(a5)
ffffffc050402e90:	07c1                	addi	a5,a5,16
ffffffc050402e92:	fe442703          	lw	a4,-28(s0)
ffffffc050402e96:	85ba                	mv	a1,a4
ffffffc050402e98:	853e                	mv	a0,a5
ffffffc050402e9a:	a1eff0ef          	jal	ra,ffffffc0504020b8 <k_mutex_lock_destroy>
ffffffc050402e9e:	fe843783          	ld	a5,-24(s0)
ffffffc050402ea2:	439c                	lw	a5,0(a5)
ffffffc050402ea4:	37fd                	addiw	a5,a5,-1
ffffffc050402ea6:	2781                	sext.w	a5,a5
ffffffc050402ea8:	0004f717          	auipc	a4,0x4f
ffffffc050402eac:	d9070713          	addi	a4,a4,-624 # ffffffc050451c38 <barrier_list>
ffffffc050402eb0:	078e                	slli	a5,a5,0x3
ffffffc050402eb2:	97ba                	add	a5,a5,a4
ffffffc050402eb4:	639c                	ld	a5,0(a5)
ffffffc050402eb6:	07d1                	addi	a5,a5,20
ffffffc050402eb8:	fe442703          	lw	a4,-28(s0)
ffffffc050402ebc:	85ba                	mv	a1,a4
ffffffc050402ebe:	853e                	mv	a0,a5
ffffffc050402ec0:	c53ff0ef          	jal	ra,ffffffc050402b12 <k_cond_destroy>
ffffffc050402ec4:	fe843783          	ld	a5,-24(s0)
ffffffc050402ec8:	439c                	lw	a5,0(a5)
ffffffc050402eca:	37fd                	addiw	a5,a5,-1
ffffffc050402ecc:	2781                	sext.w	a5,a5
ffffffc050402ece:	0004f717          	auipc	a4,0x4f
ffffffc050402ed2:	d6a70713          	addi	a4,a4,-662 # ffffffc050451c38 <barrier_list>
ffffffc050402ed6:	078e                	slli	a5,a5,0x3
ffffffc050402ed8:	97ba                	add	a5,a5,a4
ffffffc050402eda:	639c                	ld	a5,0(a5)
ffffffc050402edc:	4621                	li	a2,8
ffffffc050402ede:	4581                	li	a1,0
ffffffc050402ee0:	853e                	mv	a0,a5
ffffffc050402ee2:	283030ef          	jal	ra,ffffffc050406964 <memset>
ffffffc050402ee6:	fe843783          	ld	a5,-24(s0)
ffffffc050402eea:	0007a023          	sw	zero,0(a5)
ffffffc050402eee:	4781                	li	a5,0
ffffffc050402ef0:	853e                	mv	a0,a5
ffffffc050402ef2:	60e2                	ld	ra,24(sp)
ffffffc050402ef4:	6442                	ld	s0,16(sp)
ffffffc050402ef6:	6105                	addi	sp,sp,32
ffffffc050402ef8:	8082                	ret

ffffffc050402efa <k_mbox_open>:
ffffffc050402efa:	7179                	addi	sp,sp,-48
ffffffc050402efc:	f406                	sd	ra,40(sp)
ffffffc050402efe:	f022                	sd	s0,32(sp)
ffffffc050402f00:	1800                	addi	s0,sp,48
ffffffc050402f02:	fca43c23          	sd	a0,-40(s0)
ffffffc050402f06:	87ae                	mv	a5,a1
ffffffc050402f08:	fcf42a23          	sw	a5,-44(s0)
ffffffc050402f0c:	82018793          	addi	a5,gp,-2016 # ffffffc05044c9c8 <mbox_first_time>
ffffffc050402f10:	439c                	lw	a5,0(a5)
ffffffc050402f12:	cfa9                	beqz	a5,ffffffc050402f6c <k_mbox_open+0x72>
ffffffc050402f14:	fe042623          	sw	zero,-20(s0)
ffffffc050402f18:	a83d                	j	ffffffc050402f56 <k_mbox_open+0x5c>
ffffffc050402f1a:	10c00513          	li	a0,268
ffffffc050402f1e:	7b3020ef          	jal	ra,ffffffc050405ed0 <kmalloc>
ffffffc050402f22:	86aa                	mv	a3,a0
ffffffc050402f24:	0004f717          	auipc	a4,0x4f
ffffffc050402f28:	e1470713          	addi	a4,a4,-492 # ffffffc050451d38 <mbox_list>
ffffffc050402f2c:	fec42783          	lw	a5,-20(s0)
ffffffc050402f30:	078e                	slli	a5,a5,0x3
ffffffc050402f32:	97ba                	add	a5,a5,a4
ffffffc050402f34:	e394                	sd	a3,0(a5)
ffffffc050402f36:	0004f717          	auipc	a4,0x4f
ffffffc050402f3a:	e0270713          	addi	a4,a4,-510 # ffffffc050451d38 <mbox_list>
ffffffc050402f3e:	fec42783          	lw	a5,-20(s0)
ffffffc050402f42:	078e                	slli	a5,a5,0x3
ffffffc050402f44:	97ba                	add	a5,a5,a4
ffffffc050402f46:	639c                	ld	a5,0(a5)
ffffffc050402f48:	0007a223          	sw	zero,4(a5)
ffffffc050402f4c:	fec42783          	lw	a5,-20(s0)
ffffffc050402f50:	2785                	addiw	a5,a5,1
ffffffc050402f52:	fef42623          	sw	a5,-20(s0)
ffffffc050402f56:	fec42783          	lw	a5,-20(s0)
ffffffc050402f5a:	0007871b          	sext.w	a4,a5
ffffffc050402f5e:	47fd                	li	a5,31
ffffffc050402f60:	fae7dde3          	bge	a5,a4,ffffffc050402f1a <k_mbox_open+0x20>
ffffffc050402f64:	82018793          	addi	a5,gp,-2016 # ffffffc05044c9c8 <mbox_first_time>
ffffffc050402f68:	0007a023          	sw	zero,0(a5)
ffffffc050402f6c:	fd843783          	ld	a5,-40(s0)
ffffffc050402f70:	e399                	bnez	a5,ffffffc050402f76 <k_mbox_open+0x7c>
ffffffc050402f72:	57f9                	li	a5,-2
ffffffc050402f74:	ae95                	j	ffffffc0504032e8 <k_mbox_open+0x3ee>
ffffffc050402f76:	fe042423          	sw	zero,-24(s0)
ffffffc050402f7a:	a8f5                	j	ffffffc050403076 <k_mbox_open+0x17c>
ffffffc050402f7c:	0004f717          	auipc	a4,0x4f
ffffffc050402f80:	dbc70713          	addi	a4,a4,-580 # ffffffc050451d38 <mbox_list>
ffffffc050402f84:	fe842783          	lw	a5,-24(s0)
ffffffc050402f88:	078e                	slli	a5,a5,0x3
ffffffc050402f8a:	97ba                	add	a5,a5,a4
ffffffc050402f8c:	639c                	ld	a5,0(a5)
ffffffc050402f8e:	43dc                	lw	a5,4(a5)
ffffffc050402f90:	cff1                	beqz	a5,ffffffc05040306c <k_mbox_open+0x172>
ffffffc050402f92:	0004f717          	auipc	a4,0x4f
ffffffc050402f96:	da670713          	addi	a4,a4,-602 # ffffffc050451d38 <mbox_list>
ffffffc050402f9a:	fe842783          	lw	a5,-24(s0)
ffffffc050402f9e:	078e                	slli	a5,a5,0x3
ffffffc050402fa0:	97ba                	add	a5,a5,a4
ffffffc050402fa2:	639c                	ld	a5,0(a5)
ffffffc050402fa4:	07a1                	addi	a5,a5,8
ffffffc050402fa6:	fd843583          	ld	a1,-40(s0)
ffffffc050402faa:	853e                	mv	a0,a5
ffffffc050402fac:	237030ef          	jal	ra,ffffffc0504069e2 <strcmp>
ffffffc050402fb0:	87aa                	mv	a5,a0
ffffffc050402fb2:	efcd                	bnez	a5,ffffffc05040306c <k_mbox_open+0x172>
ffffffc050402fb4:	0004f717          	auipc	a4,0x4f
ffffffc050402fb8:	d8470713          	addi	a4,a4,-636 # ffffffc050451d38 <mbox_list>
ffffffc050402fbc:	fe842783          	lw	a5,-24(s0)
ffffffc050402fc0:	078e                	slli	a5,a5,0x3
ffffffc050402fc2:	97ba                	add	a5,a5,a4
ffffffc050402fc4:	6394                	ld	a3,0(a5)
ffffffc050402fc6:	0004f717          	auipc	a4,0x4f
ffffffc050402fca:	d7270713          	addi	a4,a4,-654 # ffffffc050451d38 <mbox_list>
ffffffc050402fce:	fe842783          	lw	a5,-24(s0)
ffffffc050402fd2:	078e                	slli	a5,a5,0x3
ffffffc050402fd4:	97ba                	add	a5,a5,a4
ffffffc050402fd6:	6398                	ld	a4,0(a5)
ffffffc050402fd8:	0e072783          	lw	a5,224(a4)
ffffffc050402fdc:	0017861b          	addiw	a2,a5,1
ffffffc050402fe0:	2601                	sext.w	a2,a2
ffffffc050402fe2:	0ec72023          	sw	a2,224(a4)
ffffffc050402fe6:	03878793          	addi	a5,a5,56
ffffffc050402fea:	078a                	slli	a5,a5,0x2
ffffffc050402fec:	97b6                	add	a5,a5,a3
ffffffc050402fee:	fd442703          	lw	a4,-44(s0)
ffffffc050402ff2:	c3d8                	sw	a4,4(a5)
ffffffc050402ff4:	fd442783          	lw	a5,-44(s0)
ffffffc050402ff8:	37fd                	addiw	a5,a5,-1
ffffffc050402ffa:	0007859b          	sext.w	a1,a5
ffffffc050402ffe:	fd442783          	lw	a5,-44(s0)
ffffffc050403002:	37fd                	addiw	a5,a5,-1
ffffffc050403004:	0007869b          	sext.w	a3,a5
ffffffc050403008:	0004f717          	auipc	a4,0x4f
ffffffc05040300c:	01870713          	addi	a4,a4,24 # ffffffc050452020 <pcb>
ffffffc050403010:	1d000793          	li	a5,464
ffffffc050403014:	02f687b3          	mul	a5,a3,a5
ffffffc050403018:	97ba                	add	a5,a5,a4
ffffffc05040301a:	19c7a703          	lw	a4,412(a5)
ffffffc05040301e:	0017079b          	addiw	a5,a4,1
ffffffc050403022:	0007861b          	sext.w	a2,a5
ffffffc050403026:	0004f517          	auipc	a0,0x4f
ffffffc05040302a:	ffa50513          	addi	a0,a0,-6 # ffffffc050452020 <pcb>
ffffffc05040302e:	1d000793          	li	a5,464
ffffffc050403032:	02f687b3          	mul	a5,a3,a5
ffffffc050403036:	97aa                	add	a5,a5,a0
ffffffc050403038:	18c7ae23          	sw	a2,412(a5)
ffffffc05040303c:	fe842783          	lw	a5,-24(s0)
ffffffc050403040:	2785                	addiw	a5,a5,1
ffffffc050403042:	0007869b          	sext.w	a3,a5
ffffffc050403046:	0004f617          	auipc	a2,0x4f
ffffffc05040304a:	fda60613          	addi	a2,a2,-38 # ffffffc050452020 <pcb>
ffffffc05040304e:	07400793          	li	a5,116
ffffffc050403052:	02f587b3          	mul	a5,a1,a5
ffffffc050403056:	97ba                	add	a5,a5,a4
ffffffc050403058:	05078793          	addi	a5,a5,80
ffffffc05040305c:	078a                	slli	a5,a5,0x2
ffffffc05040305e:	97b2                	add	a5,a5,a2
ffffffc050403060:	c7d4                	sw	a3,12(a5)
ffffffc050403062:	fe842783          	lw	a5,-24(s0)
ffffffc050403066:	2785                	addiw	a5,a5,1
ffffffc050403068:	2781                	sext.w	a5,a5
ffffffc05040306a:	acbd                	j	ffffffc0504032e8 <k_mbox_open+0x3ee>
ffffffc05040306c:	fe842783          	lw	a5,-24(s0)
ffffffc050403070:	2785                	addiw	a5,a5,1
ffffffc050403072:	fef42423          	sw	a5,-24(s0)
ffffffc050403076:	fe842783          	lw	a5,-24(s0)
ffffffc05040307a:	0007871b          	sext.w	a4,a5
ffffffc05040307e:	47fd                	li	a5,31
ffffffc050403080:	eee7dee3          	bge	a5,a4,ffffffc050402f7c <k_mbox_open+0x82>
ffffffc050403084:	450d                	li	a0,3
ffffffc050403086:	9a0ff0ef          	jal	ra,ffffffc050402226 <find_free>
ffffffc05040308a:	87aa                	mv	a5,a0
ffffffc05040308c:	fef42223          	sw	a5,-28(s0)
ffffffc050403090:	fe442783          	lw	a5,-28(s0)
ffffffc050403094:	2781                	sext.w	a5,a5
ffffffc050403096:	0007d463          	bgez	a5,ffffffc05040309e <k_mbox_open+0x1a4>
ffffffc05040309a:	57fd                	li	a5,-1
ffffffc05040309c:	a4b1                	j	ffffffc0504032e8 <k_mbox_open+0x3ee>
ffffffc05040309e:	0004f717          	auipc	a4,0x4f
ffffffc0504030a2:	c9a70713          	addi	a4,a4,-870 # ffffffc050451d38 <mbox_list>
ffffffc0504030a6:	fe442783          	lw	a5,-28(s0)
ffffffc0504030aa:	078e                	slli	a5,a5,0x3
ffffffc0504030ac:	97ba                	add	a5,a5,a4
ffffffc0504030ae:	639c                	ld	a5,0(a5)
ffffffc0504030b0:	fe442703          	lw	a4,-28(s0)
ffffffc0504030b4:	2705                	addiw	a4,a4,1
ffffffc0504030b6:	2701                	sext.w	a4,a4
ffffffc0504030b8:	c398                	sw	a4,0(a5)
ffffffc0504030ba:	0004f717          	auipc	a4,0x4f
ffffffc0504030be:	c7e70713          	addi	a4,a4,-898 # ffffffc050451d38 <mbox_list>
ffffffc0504030c2:	fe442783          	lw	a5,-28(s0)
ffffffc0504030c6:	078e                	slli	a5,a5,0x3
ffffffc0504030c8:	97ba                	add	a5,a5,a4
ffffffc0504030ca:	639c                	ld	a5,0(a5)
ffffffc0504030cc:	4705                	li	a4,1
ffffffc0504030ce:	c3d8                	sw	a4,4(a5)
ffffffc0504030d0:	0004f717          	auipc	a4,0x4f
ffffffc0504030d4:	c6870713          	addi	a4,a4,-920 # ffffffc050451d38 <mbox_list>
ffffffc0504030d8:	fe442783          	lw	a5,-28(s0)
ffffffc0504030dc:	078e                	slli	a5,a5,0x3
ffffffc0504030de:	97ba                	add	a5,a5,a4
ffffffc0504030e0:	639c                	ld	a5,0(a5)
ffffffc0504030e2:	07a1                	addi	a5,a5,8
ffffffc0504030e4:	fd843583          	ld	a1,-40(s0)
ffffffc0504030e8:	853e                	mv	a0,a5
ffffffc0504030ea:	187030ef          	jal	ra,ffffffc050406a70 <strcpy>
ffffffc0504030ee:	0004f717          	auipc	a4,0x4f
ffffffc0504030f2:	c4a70713          	addi	a4,a4,-950 # ffffffc050451d38 <mbox_list>
ffffffc0504030f6:	fe442783          	lw	a5,-28(s0)
ffffffc0504030fa:	078e                	slli	a5,a5,0x3
ffffffc0504030fc:	97ba                	add	a5,a5,a4
ffffffc0504030fe:	639c                	ld	a5,0(a5)
ffffffc050403100:	04878793          	addi	a5,a5,72
ffffffc050403104:	08000613          	li	a2,128
ffffffc050403108:	4581                	li	a1,0
ffffffc05040310a:	853e                	mv	a0,a5
ffffffc05040310c:	059030ef          	jal	ra,ffffffc050406964 <memset>
ffffffc050403110:	0004f717          	auipc	a4,0x4f
ffffffc050403114:	c2870713          	addi	a4,a4,-984 # ffffffc050451d38 <mbox_list>
ffffffc050403118:	fe442783          	lw	a5,-28(s0)
ffffffc05040311c:	078e                	slli	a5,a5,0x3
ffffffc05040311e:	97ba                	add	a5,a5,a4
ffffffc050403120:	639c                	ld	a5,0(a5)
ffffffc050403122:	0c07a423          	sw	zero,200(a5)
ffffffc050403126:	0004f717          	auipc	a4,0x4f
ffffffc05040312a:	c1270713          	addi	a4,a4,-1006 # ffffffc050451d38 <mbox_list>
ffffffc05040312e:	fe442783          	lw	a5,-28(s0)
ffffffc050403132:	078e                	slli	a5,a5,0x3
ffffffc050403134:	97ba                	add	a5,a5,a4
ffffffc050403136:	639c                	ld	a5,0(a5)
ffffffc050403138:	0c07a623          	sw	zero,204(a5)
ffffffc05040313c:	0004f717          	auipc	a4,0x4f
ffffffc050403140:	bfc70713          	addi	a4,a4,-1028 # ffffffc050451d38 <mbox_list>
ffffffc050403144:	fe442783          	lw	a5,-28(s0)
ffffffc050403148:	078e                	slli	a5,a5,0x3
ffffffc05040314a:	97ba                	add	a5,a5,a4
ffffffc05040314c:	639c                	ld	a5,0(a5)
ffffffc05040314e:	0c07a823          	sw	zero,208(a5)
ffffffc050403152:	0004f717          	auipc	a4,0x4f
ffffffc050403156:	be670713          	addi	a4,a4,-1050 # ffffffc050451d38 <mbox_list>
ffffffc05040315a:	fe442783          	lw	a5,-28(s0)
ffffffc05040315e:	078e                	slli	a5,a5,0x3
ffffffc050403160:	97ba                	add	a5,a5,a4
ffffffc050403162:	639c                	ld	a5,0(a5)
ffffffc050403164:	0c07aa23          	sw	zero,212(a5)
ffffffc050403168:	0004f717          	auipc	a4,0x4f
ffffffc05040316c:	bd070713          	addi	a4,a4,-1072 # ffffffc050451d38 <mbox_list>
ffffffc050403170:	fe442783          	lw	a5,-28(s0)
ffffffc050403174:	078e                	slli	a5,a5,0x3
ffffffc050403176:	97ba                	add	a5,a5,a4
ffffffc050403178:	639c                	ld	a5,0(a5)
ffffffc05040317a:	0c07ac23          	sw	zero,216(a5)
ffffffc05040317e:	0004f717          	auipc	a4,0x4f
ffffffc050403182:	bba70713          	addi	a4,a4,-1094 # ffffffc050451d38 <mbox_list>
ffffffc050403186:	fe442783          	lw	a5,-28(s0)
ffffffc05040318a:	078e                	slli	a5,a5,0x3
ffffffc05040318c:	97ba                	add	a5,a5,a4
ffffffc05040318e:	639c                	ld	a5,0(a5)
ffffffc050403190:	0c07ae23          	sw	zero,220(a5)
ffffffc050403194:	0004f717          	auipc	a4,0x4f
ffffffc050403198:	ba470713          	addi	a4,a4,-1116 # ffffffc050451d38 <mbox_list>
ffffffc05040319c:	fe442783          	lw	a5,-28(s0)
ffffffc0504031a0:	078e                	slli	a5,a5,0x3
ffffffc0504031a2:	97ba                	add	a5,a5,a4
ffffffc0504031a4:	639c                	ld	a5,0(a5)
ffffffc0504031a6:	0d478793          	addi	a5,a5,212
ffffffc0504031aa:	fd442703          	lw	a4,-44(s0)
ffffffc0504031ae:	85ba                	mv	a1,a4
ffffffc0504031b0:	853e                	mv	a0,a5
ffffffc0504031b2:	b01fe0ef          	jal	ra,ffffffc050401cb2 <k_mutex_lock_init>
ffffffc0504031b6:	0004f717          	auipc	a4,0x4f
ffffffc0504031ba:	b8270713          	addi	a4,a4,-1150 # ffffffc050451d38 <mbox_list>
ffffffc0504031be:	fe442783          	lw	a5,-28(s0)
ffffffc0504031c2:	078e                	slli	a5,a5,0x3
ffffffc0504031c4:	97ba                	add	a5,a5,a4
ffffffc0504031c6:	639c                	ld	a5,0(a5)
ffffffc0504031c8:	0d878793          	addi	a5,a5,216
ffffffc0504031cc:	fd442703          	lw	a4,-44(s0)
ffffffc0504031d0:	85ba                	mv	a1,a4
ffffffc0504031d2:	853e                	mv	a0,a5
ffffffc0504031d4:	e56ff0ef          	jal	ra,ffffffc05040282a <k_cond_init>
ffffffc0504031d8:	0004f717          	auipc	a4,0x4f
ffffffc0504031dc:	b6070713          	addi	a4,a4,-1184 # ffffffc050451d38 <mbox_list>
ffffffc0504031e0:	fe442783          	lw	a5,-28(s0)
ffffffc0504031e4:	078e                	slli	a5,a5,0x3
ffffffc0504031e6:	97ba                	add	a5,a5,a4
ffffffc0504031e8:	639c                	ld	a5,0(a5)
ffffffc0504031ea:	0dc78793          	addi	a5,a5,220
ffffffc0504031ee:	fd442703          	lw	a4,-44(s0)
ffffffc0504031f2:	85ba                	mv	a1,a4
ffffffc0504031f4:	853e                	mv	a0,a5
ffffffc0504031f6:	e34ff0ef          	jal	ra,ffffffc05040282a <k_cond_init>
ffffffc0504031fa:	0004f717          	auipc	a4,0x4f
ffffffc0504031fe:	b3e70713          	addi	a4,a4,-1218 # ffffffc050451d38 <mbox_list>
ffffffc050403202:	fe442783          	lw	a5,-28(s0)
ffffffc050403206:	078e                	slli	a5,a5,0x3
ffffffc050403208:	97ba                	add	a5,a5,a4
ffffffc05040320a:	639c                	ld	a5,0(a5)
ffffffc05040320c:	0e478793          	addi	a5,a5,228
ffffffc050403210:	02800613          	li	a2,40
ffffffc050403214:	4581                	li	a1,0
ffffffc050403216:	853e                	mv	a0,a5
ffffffc050403218:	74c030ef          	jal	ra,ffffffc050406964 <memset>
ffffffc05040321c:	0004f717          	auipc	a4,0x4f
ffffffc050403220:	b1c70713          	addi	a4,a4,-1252 # ffffffc050451d38 <mbox_list>
ffffffc050403224:	fe442783          	lw	a5,-28(s0)
ffffffc050403228:	078e                	slli	a5,a5,0x3
ffffffc05040322a:	97ba                	add	a5,a5,a4
ffffffc05040322c:	639c                	ld	a5,0(a5)
ffffffc05040322e:	0e07a023          	sw	zero,224(a5)
ffffffc050403232:	0004f717          	auipc	a4,0x4f
ffffffc050403236:	b0670713          	addi	a4,a4,-1274 # ffffffc050451d38 <mbox_list>
ffffffc05040323a:	fe442783          	lw	a5,-28(s0)
ffffffc05040323e:	078e                	slli	a5,a5,0x3
ffffffc050403240:	97ba                	add	a5,a5,a4
ffffffc050403242:	6394                	ld	a3,0(a5)
ffffffc050403244:	0004f717          	auipc	a4,0x4f
ffffffc050403248:	af470713          	addi	a4,a4,-1292 # ffffffc050451d38 <mbox_list>
ffffffc05040324c:	fe442783          	lw	a5,-28(s0)
ffffffc050403250:	078e                	slli	a5,a5,0x3
ffffffc050403252:	97ba                	add	a5,a5,a4
ffffffc050403254:	6398                	ld	a4,0(a5)
ffffffc050403256:	0e072783          	lw	a5,224(a4)
ffffffc05040325a:	0017861b          	addiw	a2,a5,1
ffffffc05040325e:	2601                	sext.w	a2,a2
ffffffc050403260:	0ec72023          	sw	a2,224(a4)
ffffffc050403264:	03878793          	addi	a5,a5,56
ffffffc050403268:	078a                	slli	a5,a5,0x2
ffffffc05040326a:	97b6                	add	a5,a5,a3
ffffffc05040326c:	fd442703          	lw	a4,-44(s0)
ffffffc050403270:	c3d8                	sw	a4,4(a5)
ffffffc050403272:	fd442783          	lw	a5,-44(s0)
ffffffc050403276:	37fd                	addiw	a5,a5,-1
ffffffc050403278:	0007859b          	sext.w	a1,a5
ffffffc05040327c:	fd442783          	lw	a5,-44(s0)
ffffffc050403280:	37fd                	addiw	a5,a5,-1
ffffffc050403282:	0007869b          	sext.w	a3,a5
ffffffc050403286:	0004f717          	auipc	a4,0x4f
ffffffc05040328a:	d9a70713          	addi	a4,a4,-614 # ffffffc050452020 <pcb>
ffffffc05040328e:	1d000793          	li	a5,464
ffffffc050403292:	02f687b3          	mul	a5,a3,a5
ffffffc050403296:	97ba                	add	a5,a5,a4
ffffffc050403298:	19c7a703          	lw	a4,412(a5)
ffffffc05040329c:	0017079b          	addiw	a5,a4,1
ffffffc0504032a0:	0007861b          	sext.w	a2,a5
ffffffc0504032a4:	0004f517          	auipc	a0,0x4f
ffffffc0504032a8:	d7c50513          	addi	a0,a0,-644 # ffffffc050452020 <pcb>
ffffffc0504032ac:	1d000793          	li	a5,464
ffffffc0504032b0:	02f687b3          	mul	a5,a3,a5
ffffffc0504032b4:	97aa                	add	a5,a5,a0
ffffffc0504032b6:	18c7ae23          	sw	a2,412(a5)
ffffffc0504032ba:	fe442783          	lw	a5,-28(s0)
ffffffc0504032be:	2785                	addiw	a5,a5,1
ffffffc0504032c0:	0007869b          	sext.w	a3,a5
ffffffc0504032c4:	0004f617          	auipc	a2,0x4f
ffffffc0504032c8:	d5c60613          	addi	a2,a2,-676 # ffffffc050452020 <pcb>
ffffffc0504032cc:	07400793          	li	a5,116
ffffffc0504032d0:	02f587b3          	mul	a5,a1,a5
ffffffc0504032d4:	97ba                	add	a5,a5,a4
ffffffc0504032d6:	05078793          	addi	a5,a5,80
ffffffc0504032da:	078a                	slli	a5,a5,0x2
ffffffc0504032dc:	97b2                	add	a5,a5,a2
ffffffc0504032de:	c7d4                	sw	a3,12(a5)
ffffffc0504032e0:	fe442783          	lw	a5,-28(s0)
ffffffc0504032e4:	2785                	addiw	a5,a5,1
ffffffc0504032e6:	2781                	sext.w	a5,a5
ffffffc0504032e8:	853e                	mv	a0,a5
ffffffc0504032ea:	70a2                	ld	ra,40(sp)
ffffffc0504032ec:	7402                	ld	s0,32(sp)
ffffffc0504032ee:	6145                	addi	sp,sp,48
ffffffc0504032f0:	8082                	ret

ffffffc0504032f2 <k_mbox_close>:
ffffffc0504032f2:	7179                	addi	sp,sp,-48
ffffffc0504032f4:	f406                	sd	ra,40(sp)
ffffffc0504032f6:	f022                	sd	s0,32(sp)
ffffffc0504032f8:	1800                	addi	s0,sp,48
ffffffc0504032fa:	87aa                	mv	a5,a0
ffffffc0504032fc:	fcf42e23          	sw	a5,-36(s0)
ffffffc050403300:	fe042623          	sw	zero,-20(s0)
ffffffc050403304:	a2c9                	j	ffffffc0504034c6 <k_mbox_close+0x1d4>
ffffffc050403306:	fdc42783          	lw	a5,-36(s0)
ffffffc05040330a:	37fd                	addiw	a5,a5,-1
ffffffc05040330c:	0007861b          	sext.w	a2,a5
ffffffc050403310:	0004f717          	auipc	a4,0x4f
ffffffc050403314:	d1070713          	addi	a4,a4,-752 # ffffffc050452020 <pcb>
ffffffc050403318:	fec42783          	lw	a5,-20(s0)
ffffffc05040331c:	07400693          	li	a3,116
ffffffc050403320:	02d606b3          	mul	a3,a2,a3
ffffffc050403324:	97b6                	add	a5,a5,a3
ffffffc050403326:	05078793          	addi	a5,a5,80
ffffffc05040332a:	078a                	slli	a5,a5,0x2
ffffffc05040332c:	97ba                	add	a5,a5,a4
ffffffc05040332e:	47dc                	lw	a5,12(a5)
ffffffc050403330:	37fd                	addiw	a5,a5,-1
ffffffc050403332:	2781                	sext.w	a5,a5
ffffffc050403334:	0004f717          	auipc	a4,0x4f
ffffffc050403338:	a0470713          	addi	a4,a4,-1532 # ffffffc050451d38 <mbox_list>
ffffffc05040333c:	078e                	slli	a5,a5,0x3
ffffffc05040333e:	97ba                	add	a5,a5,a4
ffffffc050403340:	639c                	ld	a5,0(a5)
ffffffc050403342:	0e07a703          	lw	a4,224(a5)
ffffffc050403346:	377d                	addiw	a4,a4,-1
ffffffc050403348:	2701                	sext.w	a4,a4
ffffffc05040334a:	0ee7a023          	sw	a4,224(a5)
ffffffc05040334e:	fdc42783          	lw	a5,-36(s0)
ffffffc050403352:	37fd                	addiw	a5,a5,-1
ffffffc050403354:	0007861b          	sext.w	a2,a5
ffffffc050403358:	0004f717          	auipc	a4,0x4f
ffffffc05040335c:	cc870713          	addi	a4,a4,-824 # ffffffc050452020 <pcb>
ffffffc050403360:	fec42783          	lw	a5,-20(s0)
ffffffc050403364:	07400693          	li	a3,116
ffffffc050403368:	02d606b3          	mul	a3,a2,a3
ffffffc05040336c:	97b6                	add	a5,a5,a3
ffffffc05040336e:	05078793          	addi	a5,a5,80
ffffffc050403372:	078a                	slli	a5,a5,0x2
ffffffc050403374:	97ba                	add	a5,a5,a4
ffffffc050403376:	47dc                	lw	a5,12(a5)
ffffffc050403378:	37fd                	addiw	a5,a5,-1
ffffffc05040337a:	2781                	sext.w	a5,a5
ffffffc05040337c:	0004f717          	auipc	a4,0x4f
ffffffc050403380:	9bc70713          	addi	a4,a4,-1604 # ffffffc050451d38 <mbox_list>
ffffffc050403384:	078e                	slli	a5,a5,0x3
ffffffc050403386:	97ba                	add	a5,a5,a4
ffffffc050403388:	639c                	ld	a5,0(a5)
ffffffc05040338a:	0e07a783          	lw	a5,224(a5)
ffffffc05040338e:	12079763          	bnez	a5,ffffffc0504034bc <k_mbox_close+0x1ca>
ffffffc050403392:	fdc42783          	lw	a5,-36(s0)
ffffffc050403396:	37fd                	addiw	a5,a5,-1
ffffffc050403398:	0007861b          	sext.w	a2,a5
ffffffc05040339c:	0004f717          	auipc	a4,0x4f
ffffffc0504033a0:	c8470713          	addi	a4,a4,-892 # ffffffc050452020 <pcb>
ffffffc0504033a4:	fec42783          	lw	a5,-20(s0)
ffffffc0504033a8:	07400693          	li	a3,116
ffffffc0504033ac:	02d606b3          	mul	a3,a2,a3
ffffffc0504033b0:	97b6                	add	a5,a5,a3
ffffffc0504033b2:	05078793          	addi	a5,a5,80
ffffffc0504033b6:	078a                	slli	a5,a5,0x2
ffffffc0504033b8:	97ba                	add	a5,a5,a4
ffffffc0504033ba:	47dc                	lw	a5,12(a5)
ffffffc0504033bc:	37fd                	addiw	a5,a5,-1
ffffffc0504033be:	2781                	sext.w	a5,a5
ffffffc0504033c0:	0004f717          	auipc	a4,0x4f
ffffffc0504033c4:	97870713          	addi	a4,a4,-1672 # ffffffc050451d38 <mbox_list>
ffffffc0504033c8:	078e                	slli	a5,a5,0x3
ffffffc0504033ca:	97ba                	add	a5,a5,a4
ffffffc0504033cc:	639c                	ld	a5,0(a5)
ffffffc0504033ce:	0d878793          	addi	a5,a5,216
ffffffc0504033d2:	fdc42703          	lw	a4,-36(s0)
ffffffc0504033d6:	85ba                	mv	a1,a4
ffffffc0504033d8:	853e                	mv	a0,a5
ffffffc0504033da:	f38ff0ef          	jal	ra,ffffffc050402b12 <k_cond_destroy>
ffffffc0504033de:	fdc42783          	lw	a5,-36(s0)
ffffffc0504033e2:	37fd                	addiw	a5,a5,-1
ffffffc0504033e4:	0007861b          	sext.w	a2,a5
ffffffc0504033e8:	0004f717          	auipc	a4,0x4f
ffffffc0504033ec:	c3870713          	addi	a4,a4,-968 # ffffffc050452020 <pcb>
ffffffc0504033f0:	fec42783          	lw	a5,-20(s0)
ffffffc0504033f4:	07400693          	li	a3,116
ffffffc0504033f8:	02d606b3          	mul	a3,a2,a3
ffffffc0504033fc:	97b6                	add	a5,a5,a3
ffffffc0504033fe:	05078793          	addi	a5,a5,80
ffffffc050403402:	078a                	slli	a5,a5,0x2
ffffffc050403404:	97ba                	add	a5,a5,a4
ffffffc050403406:	47dc                	lw	a5,12(a5)
ffffffc050403408:	37fd                	addiw	a5,a5,-1
ffffffc05040340a:	2781                	sext.w	a5,a5
ffffffc05040340c:	0004f717          	auipc	a4,0x4f
ffffffc050403410:	92c70713          	addi	a4,a4,-1748 # ffffffc050451d38 <mbox_list>
ffffffc050403414:	078e                	slli	a5,a5,0x3
ffffffc050403416:	97ba                	add	a5,a5,a4
ffffffc050403418:	639c                	ld	a5,0(a5)
ffffffc05040341a:	0dc78793          	addi	a5,a5,220
ffffffc05040341e:	fdc42703          	lw	a4,-36(s0)
ffffffc050403422:	85ba                	mv	a1,a4
ffffffc050403424:	853e                	mv	a0,a5
ffffffc050403426:	eecff0ef          	jal	ra,ffffffc050402b12 <k_cond_destroy>
ffffffc05040342a:	fdc42783          	lw	a5,-36(s0)
ffffffc05040342e:	37fd                	addiw	a5,a5,-1
ffffffc050403430:	0007861b          	sext.w	a2,a5
ffffffc050403434:	0004f717          	auipc	a4,0x4f
ffffffc050403438:	bec70713          	addi	a4,a4,-1044 # ffffffc050452020 <pcb>
ffffffc05040343c:	fec42783          	lw	a5,-20(s0)
ffffffc050403440:	07400693          	li	a3,116
ffffffc050403444:	02d606b3          	mul	a3,a2,a3
ffffffc050403448:	97b6                	add	a5,a5,a3
ffffffc05040344a:	05078793          	addi	a5,a5,80
ffffffc05040344e:	078a                	slli	a5,a5,0x2
ffffffc050403450:	97ba                	add	a5,a5,a4
ffffffc050403452:	47dc                	lw	a5,12(a5)
ffffffc050403454:	37fd                	addiw	a5,a5,-1
ffffffc050403456:	2781                	sext.w	a5,a5
ffffffc050403458:	0004f717          	auipc	a4,0x4f
ffffffc05040345c:	8e070713          	addi	a4,a4,-1824 # ffffffc050451d38 <mbox_list>
ffffffc050403460:	078e                	slli	a5,a5,0x3
ffffffc050403462:	97ba                	add	a5,a5,a4
ffffffc050403464:	639c                	ld	a5,0(a5)
ffffffc050403466:	0d478793          	addi	a5,a5,212
ffffffc05040346a:	fdc42703          	lw	a4,-36(s0)
ffffffc05040346e:	85ba                	mv	a1,a4
ffffffc050403470:	853e                	mv	a0,a5
ffffffc050403472:	c47fe0ef          	jal	ra,ffffffc0504020b8 <k_mutex_lock_destroy>
ffffffc050403476:	fdc42783          	lw	a5,-36(s0)
ffffffc05040347a:	37fd                	addiw	a5,a5,-1
ffffffc05040347c:	0007861b          	sext.w	a2,a5
ffffffc050403480:	0004f717          	auipc	a4,0x4f
ffffffc050403484:	ba070713          	addi	a4,a4,-1120 # ffffffc050452020 <pcb>
ffffffc050403488:	fec42783          	lw	a5,-20(s0)
ffffffc05040348c:	07400693          	li	a3,116
ffffffc050403490:	02d606b3          	mul	a3,a2,a3
ffffffc050403494:	97b6                	add	a5,a5,a3
ffffffc050403496:	05078793          	addi	a5,a5,80
ffffffc05040349a:	078a                	slli	a5,a5,0x2
ffffffc05040349c:	97ba                	add	a5,a5,a4
ffffffc05040349e:	47dc                	lw	a5,12(a5)
ffffffc0504034a0:	37fd                	addiw	a5,a5,-1
ffffffc0504034a2:	2781                	sext.w	a5,a5
ffffffc0504034a4:	0004f717          	auipc	a4,0x4f
ffffffc0504034a8:	89470713          	addi	a4,a4,-1900 # ffffffc050451d38 <mbox_list>
ffffffc0504034ac:	078e                	slli	a5,a5,0x3
ffffffc0504034ae:	97ba                	add	a5,a5,a4
ffffffc0504034b0:	639c                	ld	a5,0(a5)
ffffffc0504034b2:	4621                	li	a2,8
ffffffc0504034b4:	4581                	li	a1,0
ffffffc0504034b6:	853e                	mv	a0,a5
ffffffc0504034b8:	4ac030ef          	jal	ra,ffffffc050406964 <memset>
ffffffc0504034bc:	fec42783          	lw	a5,-20(s0)
ffffffc0504034c0:	2785                	addiw	a5,a5,1
ffffffc0504034c2:	fef42623          	sw	a5,-20(s0)
ffffffc0504034c6:	fdc42783          	lw	a5,-36(s0)
ffffffc0504034ca:	37fd                	addiw	a5,a5,-1
ffffffc0504034cc:	0007869b          	sext.w	a3,a5
ffffffc0504034d0:	0004f717          	auipc	a4,0x4f
ffffffc0504034d4:	b5070713          	addi	a4,a4,-1200 # ffffffc050452020 <pcb>
ffffffc0504034d8:	1d000793          	li	a5,464
ffffffc0504034dc:	02f687b3          	mul	a5,a3,a5
ffffffc0504034e0:	97ba                	add	a5,a5,a4
ffffffc0504034e2:	19c7a703          	lw	a4,412(a5)
ffffffc0504034e6:	fec42783          	lw	a5,-20(s0)
ffffffc0504034ea:	2781                	sext.w	a5,a5
ffffffc0504034ec:	e0e7cde3          	blt	a5,a4,ffffffc050403306 <k_mbox_close+0x14>
ffffffc0504034f0:	4781                	li	a5,0
ffffffc0504034f2:	853e                	mv	a0,a5
ffffffc0504034f4:	70a2                	ld	ra,40(sp)
ffffffc0504034f6:	7402                	ld	s0,32(sp)
ffffffc0504034f8:	6145                	addi	sp,sp,48
ffffffc0504034fa:	8082                	ret

ffffffc0504034fc <k_mbox_send>:
ffffffc0504034fc:	7179                	addi	sp,sp,-48
ffffffc0504034fe:	f406                	sd	ra,40(sp)
ffffffc050403500:	f022                	sd	s0,32(sp)
ffffffc050403502:	1800                	addi	s0,sp,48
ffffffc050403504:	87aa                	mv	a5,a0
ffffffc050403506:	fcb43823          	sd	a1,-48(s0)
ffffffc05040350a:	8732                	mv	a4,a2
ffffffc05040350c:	fcf42e23          	sw	a5,-36(s0)
ffffffc050403510:	87ba                	mv	a5,a4
ffffffc050403512:	fcf42c23          	sw	a5,-40(s0)
ffffffc050403516:	0004f717          	auipc	a4,0x4f
ffffffc05040351a:	82270713          	addi	a4,a4,-2014 # ffffffc050451d38 <mbox_list>
ffffffc05040351e:	fdc42783          	lw	a5,-36(s0)
ffffffc050403522:	078e                	slli	a5,a5,0x3
ffffffc050403524:	97ba                	add	a5,a5,a4
ffffffc050403526:	639c                	ld	a5,0(a5)
ffffffc050403528:	43dc                	lw	a5,4(a5)
ffffffc05040352a:	e399                	bnez	a5,ffffffc050403530 <k_mbox_send+0x34>
ffffffc05040352c:	57fd                	li	a5,-1
ffffffc05040352e:	acf9                	j	ffffffc05040380c <k_mbox_send+0x310>
ffffffc050403530:	fd043783          	ld	a5,-48(s0)
ffffffc050403534:	47dc                	lw	a5,12(a5)
ffffffc050403536:	873e                	mv	a4,a5
ffffffc050403538:	4785                	li	a5,1
ffffffc05040353a:	02f71163          	bne	a4,a5,ffffffc05040355c <k_mbox_send+0x60>
ffffffc05040353e:	fd842703          	lw	a4,-40(s0)
ffffffc050403542:	fdc42783          	lw	a5,-36(s0)
ffffffc050403546:	863a                	mv	a2,a4
ffffffc050403548:	fd043583          	ld	a1,-48(s0)
ffffffc05040354c:	853e                	mv	a0,a5
ffffffc05040354e:	5dc000ef          	jal	ra,ffffffc050403b2a <k_mbox_try_send>
ffffffc050403552:	87aa                	mv	a5,a0
ffffffc050403554:	0007d463          	bgez	a5,ffffffc05040355c <k_mbox_send+0x60>
ffffffc050403558:	57f9                	li	a5,-2
ffffffc05040355a:	ac4d                	j	ffffffc05040380c <k_mbox_send+0x310>
ffffffc05040355c:	0004e717          	auipc	a4,0x4e
ffffffc050403560:	7dc70713          	addi	a4,a4,2012 # ffffffc050451d38 <mbox_list>
ffffffc050403564:	fdc42783          	lw	a5,-36(s0)
ffffffc050403568:	078e                	slli	a5,a5,0x3
ffffffc05040356a:	97ba                	add	a5,a5,a4
ffffffc05040356c:	639c                	ld	a5,0(a5)
ffffffc05040356e:	0d47a783          	lw	a5,212(a5)
ffffffc050403572:	37fd                	addiw	a5,a5,-1
ffffffc050403574:	2781                	sext.w	a5,a5
ffffffc050403576:	fd842703          	lw	a4,-40(s0)
ffffffc05040357a:	85ba                	mv	a1,a4
ffffffc05040357c:	853e                	mv	a0,a5
ffffffc05040357e:	87bfe0ef          	jal	ra,ffffffc050401df8 <k_mutex_lock_acquire>
ffffffc050403582:	fe042623          	sw	zero,-20(s0)
ffffffc050403586:	a881                	j	ffffffc0504035d6 <k_mbox_send+0xda>
ffffffc050403588:	fec42783          	lw	a5,-20(s0)
ffffffc05040358c:	2785                	addiw	a5,a5,1
ffffffc05040358e:	fef42623          	sw	a5,-20(s0)
ffffffc050403592:	0004e717          	auipc	a4,0x4e
ffffffc050403596:	7a670713          	addi	a4,a4,1958 # ffffffc050451d38 <mbox_list>
ffffffc05040359a:	fdc42783          	lw	a5,-36(s0)
ffffffc05040359e:	078e                	slli	a5,a5,0x3
ffffffc0504035a0:	97ba                	add	a5,a5,a4
ffffffc0504035a2:	639c                	ld	a5,0(a5)
ffffffc0504035a4:	0d87a783          	lw	a5,216(a5)
ffffffc0504035a8:	37fd                	addiw	a5,a5,-1
ffffffc0504035aa:	0007869b          	sext.w	a3,a5
ffffffc0504035ae:	0004e717          	auipc	a4,0x4e
ffffffc0504035b2:	78a70713          	addi	a4,a4,1930 # ffffffc050451d38 <mbox_list>
ffffffc0504035b6:	fdc42783          	lw	a5,-36(s0)
ffffffc0504035ba:	078e                	slli	a5,a5,0x3
ffffffc0504035bc:	97ba                	add	a5,a5,a4
ffffffc0504035be:	639c                	ld	a5,0(a5)
ffffffc0504035c0:	0d47a783          	lw	a5,212(a5)
ffffffc0504035c4:	37fd                	addiw	a5,a5,-1
ffffffc0504035c6:	2781                	sext.w	a5,a5
ffffffc0504035c8:	fd842703          	lw	a4,-40(s0)
ffffffc0504035cc:	863a                	mv	a2,a4
ffffffc0504035ce:	85be                	mv	a1,a5
ffffffc0504035d0:	8536                	mv	a0,a3
ffffffc0504035d2:	b7eff0ef          	jal	ra,ffffffc050402950 <k_cond_wait>
ffffffc0504035d6:	fd043783          	ld	a5,-48(s0)
ffffffc0504035da:	4794                	lw	a3,8(a5)
ffffffc0504035dc:	0004e717          	auipc	a4,0x4e
ffffffc0504035e0:	75c70713          	addi	a4,a4,1884 # ffffffc050451d38 <mbox_list>
ffffffc0504035e4:	fdc42783          	lw	a5,-36(s0)
ffffffc0504035e8:	078e                	slli	a5,a5,0x3
ffffffc0504035ea:	97ba                	add	a5,a5,a4
ffffffc0504035ec:	639c                	ld	a5,0(a5)
ffffffc0504035ee:	0d07a783          	lw	a5,208(a5)
ffffffc0504035f2:	08000713          	li	a4,128
ffffffc0504035f6:	40f707bb          	subw	a5,a4,a5
ffffffc0504035fa:	2781                	sext.w	a5,a5
ffffffc0504035fc:	8736                	mv	a4,a3
ffffffc0504035fe:	f8e7c5e3          	blt	a5,a4,ffffffc050403588 <k_mbox_send+0x8c>
ffffffc050403602:	0004e717          	auipc	a4,0x4e
ffffffc050403606:	73670713          	addi	a4,a4,1846 # ffffffc050451d38 <mbox_list>
ffffffc05040360a:	fdc42783          	lw	a5,-36(s0)
ffffffc05040360e:	078e                	slli	a5,a5,0x3
ffffffc050403610:	97ba                	add	a5,a5,a4
ffffffc050403612:	639c                	ld	a5,0(a5)
ffffffc050403614:	0cc7a703          	lw	a4,204(a5)
ffffffc050403618:	fd043783          	ld	a5,-48(s0)
ffffffc05040361c:	479c                	lw	a5,8(a5)
ffffffc05040361e:	9fb9                	addw	a5,a5,a4
ffffffc050403620:	2781                	sext.w	a5,a5
ffffffc050403622:	08000713          	li	a4,128
ffffffc050403626:	40f707bb          	subw	a5,a4,a5
ffffffc05040362a:	fef42423          	sw	a5,-24(s0)
ffffffc05040362e:	fe842783          	lw	a5,-24(s0)
ffffffc050403632:	2781                	sext.w	a5,a5
ffffffc050403634:	0c07db63          	bgez	a5,ffffffc05040370a <k_mbox_send+0x20e>
ffffffc050403638:	0004e717          	auipc	a4,0x4e
ffffffc05040363c:	70070713          	addi	a4,a4,1792 # ffffffc050451d38 <mbox_list>
ffffffc050403640:	fdc42783          	lw	a5,-36(s0)
ffffffc050403644:	078e                	slli	a5,a5,0x3
ffffffc050403646:	97ba                	add	a5,a5,a4
ffffffc050403648:	639c                	ld	a5,0(a5)
ffffffc05040364a:	04878793          	addi	a5,a5,72
ffffffc05040364e:	0004e697          	auipc	a3,0x4e
ffffffc050403652:	6ea68693          	addi	a3,a3,1770 # ffffffc050451d38 <mbox_list>
ffffffc050403656:	fdc42703          	lw	a4,-36(s0)
ffffffc05040365a:	070e                	slli	a4,a4,0x3
ffffffc05040365c:	9736                	add	a4,a4,a3
ffffffc05040365e:	6318                	ld	a4,0(a4)
ffffffc050403660:	0cc72703          	lw	a4,204(a4)
ffffffc050403664:	00e786b3          	add	a3,a5,a4
ffffffc050403668:	fd043783          	ld	a5,-48(s0)
ffffffc05040366c:	638c                	ld	a1,0(a5)
ffffffc05040366e:	0004e717          	auipc	a4,0x4e
ffffffc050403672:	6ca70713          	addi	a4,a4,1738 # ffffffc050451d38 <mbox_list>
ffffffc050403676:	fdc42783          	lw	a5,-36(s0)
ffffffc05040367a:	078e                	slli	a5,a5,0x3
ffffffc05040367c:	97ba                	add	a5,a5,a4
ffffffc05040367e:	639c                	ld	a5,0(a5)
ffffffc050403680:	0cc7a783          	lw	a5,204(a5)
ffffffc050403684:	08000713          	li	a4,128
ffffffc050403688:	40f707bb          	subw	a5,a4,a5
ffffffc05040368c:	2781                	sext.w	a5,a5
ffffffc05040368e:	2781                	sext.w	a5,a5
ffffffc050403690:	863e                	mv	a2,a5
ffffffc050403692:	8536                	mv	a0,a3
ffffffc050403694:	27e030ef          	jal	ra,ffffffc050406912 <memcpy>
ffffffc050403698:	0004e717          	auipc	a4,0x4e
ffffffc05040369c:	6a070713          	addi	a4,a4,1696 # ffffffc050451d38 <mbox_list>
ffffffc0504036a0:	fdc42783          	lw	a5,-36(s0)
ffffffc0504036a4:	078e                	slli	a5,a5,0x3
ffffffc0504036a6:	97ba                	add	a5,a5,a4
ffffffc0504036a8:	639c                	ld	a5,0(a5)
ffffffc0504036aa:	04878513          	addi	a0,a5,72
ffffffc0504036ae:	fd043783          	ld	a5,-48(s0)
ffffffc0504036b2:	6398                	ld	a4,0(a5)
ffffffc0504036b4:	0004e697          	auipc	a3,0x4e
ffffffc0504036b8:	68468693          	addi	a3,a3,1668 # ffffffc050451d38 <mbox_list>
ffffffc0504036bc:	fdc42783          	lw	a5,-36(s0)
ffffffc0504036c0:	078e                	slli	a5,a5,0x3
ffffffc0504036c2:	97b6                	add	a5,a5,a3
ffffffc0504036c4:	639c                	ld	a5,0(a5)
ffffffc0504036c6:	0cc7a783          	lw	a5,204(a5)
ffffffc0504036ca:	86be                	mv	a3,a5
ffffffc0504036cc:	08000793          	li	a5,128
ffffffc0504036d0:	8f95                	sub	a5,a5,a3
ffffffc0504036d2:	973e                	add	a4,a4,a5
ffffffc0504036d4:	fe842783          	lw	a5,-24(s0)
ffffffc0504036d8:	40f007bb          	negw	a5,a5
ffffffc0504036dc:	2781                	sext.w	a5,a5
ffffffc0504036de:	2781                	sext.w	a5,a5
ffffffc0504036e0:	863e                	mv	a2,a5
ffffffc0504036e2:	85ba                	mv	a1,a4
ffffffc0504036e4:	22e030ef          	jal	ra,ffffffc050406912 <memcpy>
ffffffc0504036e8:	0004e717          	auipc	a4,0x4e
ffffffc0504036ec:	65070713          	addi	a4,a4,1616 # ffffffc050451d38 <mbox_list>
ffffffc0504036f0:	fdc42783          	lw	a5,-36(s0)
ffffffc0504036f4:	078e                	slli	a5,a5,0x3
ffffffc0504036f6:	97ba                	add	a5,a5,a4
ffffffc0504036f8:	639c                	ld	a5,0(a5)
ffffffc0504036fa:	fe842703          	lw	a4,-24(s0)
ffffffc0504036fe:	40e0073b          	negw	a4,a4
ffffffc050403702:	2701                	sext.w	a4,a4
ffffffc050403704:	0ce7a623          	sw	a4,204(a5)
ffffffc050403708:	a8bd                	j	ffffffc050403786 <k_mbox_send+0x28a>
ffffffc05040370a:	0004e717          	auipc	a4,0x4e
ffffffc05040370e:	62e70713          	addi	a4,a4,1582 # ffffffc050451d38 <mbox_list>
ffffffc050403712:	fdc42783          	lw	a5,-36(s0)
ffffffc050403716:	078e                	slli	a5,a5,0x3
ffffffc050403718:	97ba                	add	a5,a5,a4
ffffffc05040371a:	639c                	ld	a5,0(a5)
ffffffc05040371c:	04878793          	addi	a5,a5,72
ffffffc050403720:	0004e697          	auipc	a3,0x4e
ffffffc050403724:	61868693          	addi	a3,a3,1560 # ffffffc050451d38 <mbox_list>
ffffffc050403728:	fdc42703          	lw	a4,-36(s0)
ffffffc05040372c:	070e                	slli	a4,a4,0x3
ffffffc05040372e:	9736                	add	a4,a4,a3
ffffffc050403730:	6318                	ld	a4,0(a4)
ffffffc050403732:	0cc72703          	lw	a4,204(a4)
ffffffc050403736:	973e                	add	a4,a4,a5
ffffffc050403738:	fd043783          	ld	a5,-48(s0)
ffffffc05040373c:	6394                	ld	a3,0(a5)
ffffffc05040373e:	fd043783          	ld	a5,-48(s0)
ffffffc050403742:	479c                	lw	a5,8(a5)
ffffffc050403744:	2781                	sext.w	a5,a5
ffffffc050403746:	863e                	mv	a2,a5
ffffffc050403748:	85b6                	mv	a1,a3
ffffffc05040374a:	853a                	mv	a0,a4
ffffffc05040374c:	1c6030ef          	jal	ra,ffffffc050406912 <memcpy>
ffffffc050403750:	0004e717          	auipc	a4,0x4e
ffffffc050403754:	5e870713          	addi	a4,a4,1512 # ffffffc050451d38 <mbox_list>
ffffffc050403758:	fdc42783          	lw	a5,-36(s0)
ffffffc05040375c:	078e                	slli	a5,a5,0x3
ffffffc05040375e:	97ba                	add	a5,a5,a4
ffffffc050403760:	639c                	ld	a5,0(a5)
ffffffc050403762:	0cc7a683          	lw	a3,204(a5)
ffffffc050403766:	fd043783          	ld	a5,-48(s0)
ffffffc05040376a:	4798                	lw	a4,8(a5)
ffffffc05040376c:	0004e617          	auipc	a2,0x4e
ffffffc050403770:	5cc60613          	addi	a2,a2,1484 # ffffffc050451d38 <mbox_list>
ffffffc050403774:	fdc42783          	lw	a5,-36(s0)
ffffffc050403778:	078e                	slli	a5,a5,0x3
ffffffc05040377a:	97b2                	add	a5,a5,a2
ffffffc05040377c:	639c                	ld	a5,0(a5)
ffffffc05040377e:	9f35                	addw	a4,a4,a3
ffffffc050403780:	2701                	sext.w	a4,a4
ffffffc050403782:	0ce7a623          	sw	a4,204(a5)
ffffffc050403786:	0004e717          	auipc	a4,0x4e
ffffffc05040378a:	5b270713          	addi	a4,a4,1458 # ffffffc050451d38 <mbox_list>
ffffffc05040378e:	fdc42783          	lw	a5,-36(s0)
ffffffc050403792:	078e                	slli	a5,a5,0x3
ffffffc050403794:	97ba                	add	a5,a5,a4
ffffffc050403796:	639c                	ld	a5,0(a5)
ffffffc050403798:	0d07a683          	lw	a3,208(a5)
ffffffc05040379c:	fd043783          	ld	a5,-48(s0)
ffffffc0504037a0:	4798                	lw	a4,8(a5)
ffffffc0504037a2:	0004e617          	auipc	a2,0x4e
ffffffc0504037a6:	59660613          	addi	a2,a2,1430 # ffffffc050451d38 <mbox_list>
ffffffc0504037aa:	fdc42783          	lw	a5,-36(s0)
ffffffc0504037ae:	078e                	slli	a5,a5,0x3
ffffffc0504037b0:	97b2                	add	a5,a5,a2
ffffffc0504037b2:	639c                	ld	a5,0(a5)
ffffffc0504037b4:	9f35                	addw	a4,a4,a3
ffffffc0504037b6:	2701                	sext.w	a4,a4
ffffffc0504037b8:	0ce7a823          	sw	a4,208(a5)
ffffffc0504037bc:	0004e717          	auipc	a4,0x4e
ffffffc0504037c0:	57c70713          	addi	a4,a4,1404 # ffffffc050451d38 <mbox_list>
ffffffc0504037c4:	fdc42783          	lw	a5,-36(s0)
ffffffc0504037c8:	078e                	slli	a5,a5,0x3
ffffffc0504037ca:	97ba                	add	a5,a5,a4
ffffffc0504037cc:	639c                	ld	a5,0(a5)
ffffffc0504037ce:	0dc7a783          	lw	a5,220(a5)
ffffffc0504037d2:	37fd                	addiw	a5,a5,-1
ffffffc0504037d4:	2781                	sext.w	a5,a5
ffffffc0504037d6:	fd842703          	lw	a4,-40(s0)
ffffffc0504037da:	85ba                	mv	a1,a4
ffffffc0504037dc:	853e                	mv	a0,a5
ffffffc0504037de:	aaaff0ef          	jal	ra,ffffffc050402a88 <k_cond_broadcast>
ffffffc0504037e2:	0004e717          	auipc	a4,0x4e
ffffffc0504037e6:	55670713          	addi	a4,a4,1366 # ffffffc050451d38 <mbox_list>
ffffffc0504037ea:	fdc42783          	lw	a5,-36(s0)
ffffffc0504037ee:	078e                	slli	a5,a5,0x3
ffffffc0504037f0:	97ba                	add	a5,a5,a4
ffffffc0504037f2:	639c                	ld	a5,0(a5)
ffffffc0504037f4:	0d47a783          	lw	a5,212(a5)
ffffffc0504037f8:	37fd                	addiw	a5,a5,-1
ffffffc0504037fa:	2781                	sext.w	a5,a5
ffffffc0504037fc:	fd842703          	lw	a4,-40(s0)
ffffffc050403800:	85ba                	mv	a1,a4
ffffffc050403802:	853e                	mv	a0,a5
ffffffc050403804:	f6efe0ef          	jal	ra,ffffffc050401f72 <k_mutex_lock_release>
ffffffc050403808:	fec42783          	lw	a5,-20(s0)
ffffffc05040380c:	853e                	mv	a0,a5
ffffffc05040380e:	70a2                	ld	ra,40(sp)
ffffffc050403810:	7402                	ld	s0,32(sp)
ffffffc050403812:	6145                	addi	sp,sp,48
ffffffc050403814:	8082                	ret

ffffffc050403816 <k_mbox_recv>:
ffffffc050403816:	7179                	addi	sp,sp,-48
ffffffc050403818:	f406                	sd	ra,40(sp)
ffffffc05040381a:	f022                	sd	s0,32(sp)
ffffffc05040381c:	1800                	addi	s0,sp,48
ffffffc05040381e:	87aa                	mv	a5,a0
ffffffc050403820:	fcb43823          	sd	a1,-48(s0)
ffffffc050403824:	8732                	mv	a4,a2
ffffffc050403826:	fcf42e23          	sw	a5,-36(s0)
ffffffc05040382a:	87ba                	mv	a5,a4
ffffffc05040382c:	fcf42c23          	sw	a5,-40(s0)
ffffffc050403830:	0004e717          	auipc	a4,0x4e
ffffffc050403834:	50870713          	addi	a4,a4,1288 # ffffffc050451d38 <mbox_list>
ffffffc050403838:	fdc42783          	lw	a5,-36(s0)
ffffffc05040383c:	078e                	slli	a5,a5,0x3
ffffffc05040383e:	97ba                	add	a5,a5,a4
ffffffc050403840:	639c                	ld	a5,0(a5)
ffffffc050403842:	43dc                	lw	a5,4(a5)
ffffffc050403844:	e399                	bnez	a5,ffffffc05040384a <k_mbox_recv+0x34>
ffffffc050403846:	57fd                	li	a5,-1
ffffffc050403848:	ace1                	j	ffffffc050403b20 <k_mbox_recv+0x30a>
ffffffc05040384a:	fd043783          	ld	a5,-48(s0)
ffffffc05040384e:	47dc                	lw	a5,12(a5)
ffffffc050403850:	873e                	mv	a4,a5
ffffffc050403852:	4785                	li	a5,1
ffffffc050403854:	02f71163          	bne	a4,a5,ffffffc050403876 <k_mbox_recv+0x60>
ffffffc050403858:	fd842703          	lw	a4,-40(s0)
ffffffc05040385c:	fdc42783          	lw	a5,-36(s0)
ffffffc050403860:	863a                	mv	a2,a4
ffffffc050403862:	fd043583          	ld	a1,-48(s0)
ffffffc050403866:	853e                	mv	a0,a5
ffffffc050403868:	3a4000ef          	jal	ra,ffffffc050403c0c <k_mbox_try_recv>
ffffffc05040386c:	87aa                	mv	a5,a0
ffffffc05040386e:	0007d463          	bgez	a5,ffffffc050403876 <k_mbox_recv+0x60>
ffffffc050403872:	57f9                	li	a5,-2
ffffffc050403874:	a475                	j	ffffffc050403b20 <k_mbox_recv+0x30a>
ffffffc050403876:	0004e717          	auipc	a4,0x4e
ffffffc05040387a:	4c270713          	addi	a4,a4,1218 # ffffffc050451d38 <mbox_list>
ffffffc05040387e:	fdc42783          	lw	a5,-36(s0)
ffffffc050403882:	078e                	slli	a5,a5,0x3
ffffffc050403884:	97ba                	add	a5,a5,a4
ffffffc050403886:	639c                	ld	a5,0(a5)
ffffffc050403888:	0d47a783          	lw	a5,212(a5)
ffffffc05040388c:	37fd                	addiw	a5,a5,-1
ffffffc05040388e:	2781                	sext.w	a5,a5
ffffffc050403890:	fd842703          	lw	a4,-40(s0)
ffffffc050403894:	85ba                	mv	a1,a4
ffffffc050403896:	853e                	mv	a0,a5
ffffffc050403898:	d60fe0ef          	jal	ra,ffffffc050401df8 <k_mutex_lock_acquire>
ffffffc05040389c:	fe042623          	sw	zero,-20(s0)
ffffffc0504038a0:	a881                	j	ffffffc0504038f0 <k_mbox_recv+0xda>
ffffffc0504038a2:	fec42783          	lw	a5,-20(s0)
ffffffc0504038a6:	2785                	addiw	a5,a5,1
ffffffc0504038a8:	fef42623          	sw	a5,-20(s0)
ffffffc0504038ac:	0004e717          	auipc	a4,0x4e
ffffffc0504038b0:	48c70713          	addi	a4,a4,1164 # ffffffc050451d38 <mbox_list>
ffffffc0504038b4:	fdc42783          	lw	a5,-36(s0)
ffffffc0504038b8:	078e                	slli	a5,a5,0x3
ffffffc0504038ba:	97ba                	add	a5,a5,a4
ffffffc0504038bc:	639c                	ld	a5,0(a5)
ffffffc0504038be:	0dc7a783          	lw	a5,220(a5)
ffffffc0504038c2:	37fd                	addiw	a5,a5,-1
ffffffc0504038c4:	0007869b          	sext.w	a3,a5
ffffffc0504038c8:	0004e717          	auipc	a4,0x4e
ffffffc0504038cc:	47070713          	addi	a4,a4,1136 # ffffffc050451d38 <mbox_list>
ffffffc0504038d0:	fdc42783          	lw	a5,-36(s0)
ffffffc0504038d4:	078e                	slli	a5,a5,0x3
ffffffc0504038d6:	97ba                	add	a5,a5,a4
ffffffc0504038d8:	639c                	ld	a5,0(a5)
ffffffc0504038da:	0d47a783          	lw	a5,212(a5)
ffffffc0504038de:	37fd                	addiw	a5,a5,-1
ffffffc0504038e0:	2781                	sext.w	a5,a5
ffffffc0504038e2:	fd842703          	lw	a4,-40(s0)
ffffffc0504038e6:	863a                	mv	a2,a4
ffffffc0504038e8:	85be                	mv	a1,a5
ffffffc0504038ea:	8536                	mv	a0,a3
ffffffc0504038ec:	864ff0ef          	jal	ra,ffffffc050402950 <k_cond_wait>
ffffffc0504038f0:	fd043783          	ld	a5,-48(s0)
ffffffc0504038f4:	4794                	lw	a3,8(a5)
ffffffc0504038f6:	0004e717          	auipc	a4,0x4e
ffffffc0504038fa:	44270713          	addi	a4,a4,1090 # ffffffc050451d38 <mbox_list>
ffffffc0504038fe:	fdc42783          	lw	a5,-36(s0)
ffffffc050403902:	078e                	slli	a5,a5,0x3
ffffffc050403904:	97ba                	add	a5,a5,a4
ffffffc050403906:	639c                	ld	a5,0(a5)
ffffffc050403908:	0d07a783          	lw	a5,208(a5)
ffffffc05040390c:	8736                	mv	a4,a3
ffffffc05040390e:	f8e7cae3          	blt	a5,a4,ffffffc0504038a2 <k_mbox_recv+0x8c>
ffffffc050403912:	0004e717          	auipc	a4,0x4e
ffffffc050403916:	42670713          	addi	a4,a4,1062 # ffffffc050451d38 <mbox_list>
ffffffc05040391a:	fdc42783          	lw	a5,-36(s0)
ffffffc05040391e:	078e                	slli	a5,a5,0x3
ffffffc050403920:	97ba                	add	a5,a5,a4
ffffffc050403922:	639c                	ld	a5,0(a5)
ffffffc050403924:	0c87a703          	lw	a4,200(a5)
ffffffc050403928:	fd043783          	ld	a5,-48(s0)
ffffffc05040392c:	479c                	lw	a5,8(a5)
ffffffc05040392e:	9fb9                	addw	a5,a5,a4
ffffffc050403930:	2781                	sext.w	a5,a5
ffffffc050403932:	08000713          	li	a4,128
ffffffc050403936:	40f707bb          	subw	a5,a4,a5
ffffffc05040393a:	fef42423          	sw	a5,-24(s0)
ffffffc05040393e:	fe842783          	lw	a5,-24(s0)
ffffffc050403942:	2781                	sext.w	a5,a5
ffffffc050403944:	0c07dd63          	bgez	a5,ffffffc050403a1e <k_mbox_recv+0x208>
ffffffc050403948:	fd043783          	ld	a5,-48(s0)
ffffffc05040394c:	6388                	ld	a0,0(a5)
ffffffc05040394e:	0004e717          	auipc	a4,0x4e
ffffffc050403952:	3ea70713          	addi	a4,a4,1002 # ffffffc050451d38 <mbox_list>
ffffffc050403956:	fdc42783          	lw	a5,-36(s0)
ffffffc05040395a:	078e                	slli	a5,a5,0x3
ffffffc05040395c:	97ba                	add	a5,a5,a4
ffffffc05040395e:	639c                	ld	a5,0(a5)
ffffffc050403960:	04878793          	addi	a5,a5,72
ffffffc050403964:	0004e697          	auipc	a3,0x4e
ffffffc050403968:	3d468693          	addi	a3,a3,980 # ffffffc050451d38 <mbox_list>
ffffffc05040396c:	fdc42703          	lw	a4,-36(s0)
ffffffc050403970:	070e                	slli	a4,a4,0x3
ffffffc050403972:	9736                	add	a4,a4,a3
ffffffc050403974:	6318                	ld	a4,0(a4)
ffffffc050403976:	0c872703          	lw	a4,200(a4)
ffffffc05040397a:	00e786b3          	add	a3,a5,a4
ffffffc05040397e:	0004e717          	auipc	a4,0x4e
ffffffc050403982:	3ba70713          	addi	a4,a4,954 # ffffffc050451d38 <mbox_list>
ffffffc050403986:	fdc42783          	lw	a5,-36(s0)
ffffffc05040398a:	078e                	slli	a5,a5,0x3
ffffffc05040398c:	97ba                	add	a5,a5,a4
ffffffc05040398e:	639c                	ld	a5,0(a5)
ffffffc050403990:	0c87a783          	lw	a5,200(a5)
ffffffc050403994:	08000713          	li	a4,128
ffffffc050403998:	40f707bb          	subw	a5,a4,a5
ffffffc05040399c:	2781                	sext.w	a5,a5
ffffffc05040399e:	2781                	sext.w	a5,a5
ffffffc0504039a0:	863e                	mv	a2,a5
ffffffc0504039a2:	85b6                	mv	a1,a3
ffffffc0504039a4:	76f020ef          	jal	ra,ffffffc050406912 <memcpy>
ffffffc0504039a8:	fd043783          	ld	a5,-48(s0)
ffffffc0504039ac:	6398                	ld	a4,0(a5)
ffffffc0504039ae:	0004e697          	auipc	a3,0x4e
ffffffc0504039b2:	38a68693          	addi	a3,a3,906 # ffffffc050451d38 <mbox_list>
ffffffc0504039b6:	fdc42783          	lw	a5,-36(s0)
ffffffc0504039ba:	078e                	slli	a5,a5,0x3
ffffffc0504039bc:	97b6                	add	a5,a5,a3
ffffffc0504039be:	639c                	ld	a5,0(a5)
ffffffc0504039c0:	0c87a783          	lw	a5,200(a5)
ffffffc0504039c4:	86be                	mv	a3,a5
ffffffc0504039c6:	08000793          	li	a5,128
ffffffc0504039ca:	8f95                	sub	a5,a5,a3
ffffffc0504039cc:	00f706b3          	add	a3,a4,a5
ffffffc0504039d0:	0004e717          	auipc	a4,0x4e
ffffffc0504039d4:	36870713          	addi	a4,a4,872 # ffffffc050451d38 <mbox_list>
ffffffc0504039d8:	fdc42783          	lw	a5,-36(s0)
ffffffc0504039dc:	078e                	slli	a5,a5,0x3
ffffffc0504039de:	97ba                	add	a5,a5,a4
ffffffc0504039e0:	639c                	ld	a5,0(a5)
ffffffc0504039e2:	04878713          	addi	a4,a5,72
ffffffc0504039e6:	fe842783          	lw	a5,-24(s0)
ffffffc0504039ea:	40f007bb          	negw	a5,a5
ffffffc0504039ee:	2781                	sext.w	a5,a5
ffffffc0504039f0:	2781                	sext.w	a5,a5
ffffffc0504039f2:	863e                	mv	a2,a5
ffffffc0504039f4:	85ba                	mv	a1,a4
ffffffc0504039f6:	8536                	mv	a0,a3
ffffffc0504039f8:	71b020ef          	jal	ra,ffffffc050406912 <memcpy>
ffffffc0504039fc:	0004e717          	auipc	a4,0x4e
ffffffc050403a00:	33c70713          	addi	a4,a4,828 # ffffffc050451d38 <mbox_list>
ffffffc050403a04:	fdc42783          	lw	a5,-36(s0)
ffffffc050403a08:	078e                	slli	a5,a5,0x3
ffffffc050403a0a:	97ba                	add	a5,a5,a4
ffffffc050403a0c:	639c                	ld	a5,0(a5)
ffffffc050403a0e:	fe842703          	lw	a4,-24(s0)
ffffffc050403a12:	40e0073b          	negw	a4,a4
ffffffc050403a16:	2701                	sext.w	a4,a4
ffffffc050403a18:	0ce7a423          	sw	a4,200(a5)
ffffffc050403a1c:	a8b5                	j	ffffffc050403a98 <k_mbox_recv+0x282>
ffffffc050403a1e:	fd043783          	ld	a5,-48(s0)
ffffffc050403a22:	6388                	ld	a0,0(a5)
ffffffc050403a24:	0004e717          	auipc	a4,0x4e
ffffffc050403a28:	31470713          	addi	a4,a4,788 # ffffffc050451d38 <mbox_list>
ffffffc050403a2c:	fdc42783          	lw	a5,-36(s0)
ffffffc050403a30:	078e                	slli	a5,a5,0x3
ffffffc050403a32:	97ba                	add	a5,a5,a4
ffffffc050403a34:	639c                	ld	a5,0(a5)
ffffffc050403a36:	04878793          	addi	a5,a5,72
ffffffc050403a3a:	0004e697          	auipc	a3,0x4e
ffffffc050403a3e:	2fe68693          	addi	a3,a3,766 # ffffffc050451d38 <mbox_list>
ffffffc050403a42:	fdc42703          	lw	a4,-36(s0)
ffffffc050403a46:	070e                	slli	a4,a4,0x3
ffffffc050403a48:	9736                	add	a4,a4,a3
ffffffc050403a4a:	6318                	ld	a4,0(a4)
ffffffc050403a4c:	0c872703          	lw	a4,200(a4)
ffffffc050403a50:	973e                	add	a4,a4,a5
ffffffc050403a52:	fd043783          	ld	a5,-48(s0)
ffffffc050403a56:	479c                	lw	a5,8(a5)
ffffffc050403a58:	2781                	sext.w	a5,a5
ffffffc050403a5a:	863e                	mv	a2,a5
ffffffc050403a5c:	85ba                	mv	a1,a4
ffffffc050403a5e:	6b5020ef          	jal	ra,ffffffc050406912 <memcpy>
ffffffc050403a62:	0004e717          	auipc	a4,0x4e
ffffffc050403a66:	2d670713          	addi	a4,a4,726 # ffffffc050451d38 <mbox_list>
ffffffc050403a6a:	fdc42783          	lw	a5,-36(s0)
ffffffc050403a6e:	078e                	slli	a5,a5,0x3
ffffffc050403a70:	97ba                	add	a5,a5,a4
ffffffc050403a72:	639c                	ld	a5,0(a5)
ffffffc050403a74:	0c87a683          	lw	a3,200(a5)
ffffffc050403a78:	fd043783          	ld	a5,-48(s0)
ffffffc050403a7c:	4798                	lw	a4,8(a5)
ffffffc050403a7e:	0004e617          	auipc	a2,0x4e
ffffffc050403a82:	2ba60613          	addi	a2,a2,698 # ffffffc050451d38 <mbox_list>
ffffffc050403a86:	fdc42783          	lw	a5,-36(s0)
ffffffc050403a8a:	078e                	slli	a5,a5,0x3
ffffffc050403a8c:	97b2                	add	a5,a5,a2
ffffffc050403a8e:	639c                	ld	a5,0(a5)
ffffffc050403a90:	9f35                	addw	a4,a4,a3
ffffffc050403a92:	2701                	sext.w	a4,a4
ffffffc050403a94:	0ce7a423          	sw	a4,200(a5)
ffffffc050403a98:	0004e717          	auipc	a4,0x4e
ffffffc050403a9c:	2a070713          	addi	a4,a4,672 # ffffffc050451d38 <mbox_list>
ffffffc050403aa0:	fdc42783          	lw	a5,-36(s0)
ffffffc050403aa4:	078e                	slli	a5,a5,0x3
ffffffc050403aa6:	97ba                	add	a5,a5,a4
ffffffc050403aa8:	639c                	ld	a5,0(a5)
ffffffc050403aaa:	0d07a683          	lw	a3,208(a5)
ffffffc050403aae:	fd043783          	ld	a5,-48(s0)
ffffffc050403ab2:	4798                	lw	a4,8(a5)
ffffffc050403ab4:	0004e617          	auipc	a2,0x4e
ffffffc050403ab8:	28460613          	addi	a2,a2,644 # ffffffc050451d38 <mbox_list>
ffffffc050403abc:	fdc42783          	lw	a5,-36(s0)
ffffffc050403ac0:	078e                	slli	a5,a5,0x3
ffffffc050403ac2:	97b2                	add	a5,a5,a2
ffffffc050403ac4:	639c                	ld	a5,0(a5)
ffffffc050403ac6:	40e6873b          	subw	a4,a3,a4
ffffffc050403aca:	2701                	sext.w	a4,a4
ffffffc050403acc:	0ce7a823          	sw	a4,208(a5)
ffffffc050403ad0:	0004e717          	auipc	a4,0x4e
ffffffc050403ad4:	26870713          	addi	a4,a4,616 # ffffffc050451d38 <mbox_list>
ffffffc050403ad8:	fdc42783          	lw	a5,-36(s0)
ffffffc050403adc:	078e                	slli	a5,a5,0x3
ffffffc050403ade:	97ba                	add	a5,a5,a4
ffffffc050403ae0:	639c                	ld	a5,0(a5)
ffffffc050403ae2:	0d87a783          	lw	a5,216(a5)
ffffffc050403ae6:	37fd                	addiw	a5,a5,-1
ffffffc050403ae8:	2781                	sext.w	a5,a5
ffffffc050403aea:	fd842703          	lw	a4,-40(s0)
ffffffc050403aee:	85ba                	mv	a1,a4
ffffffc050403af0:	853e                	mv	a0,a5
ffffffc050403af2:	f97fe0ef          	jal	ra,ffffffc050402a88 <k_cond_broadcast>
ffffffc050403af6:	0004e717          	auipc	a4,0x4e
ffffffc050403afa:	24270713          	addi	a4,a4,578 # ffffffc050451d38 <mbox_list>
ffffffc050403afe:	fdc42783          	lw	a5,-36(s0)
ffffffc050403b02:	078e                	slli	a5,a5,0x3
ffffffc050403b04:	97ba                	add	a5,a5,a4
ffffffc050403b06:	639c                	ld	a5,0(a5)
ffffffc050403b08:	0d47a783          	lw	a5,212(a5)
ffffffc050403b0c:	37fd                	addiw	a5,a5,-1
ffffffc050403b0e:	2781                	sext.w	a5,a5
ffffffc050403b10:	fd842703          	lw	a4,-40(s0)
ffffffc050403b14:	85ba                	mv	a1,a4
ffffffc050403b16:	853e                	mv	a0,a5
ffffffc050403b18:	c5afe0ef          	jal	ra,ffffffc050401f72 <k_mutex_lock_release>
ffffffc050403b1c:	fec42783          	lw	a5,-20(s0)
ffffffc050403b20:	853e                	mv	a0,a5
ffffffc050403b22:	70a2                	ld	ra,40(sp)
ffffffc050403b24:	7402                	ld	s0,32(sp)
ffffffc050403b26:	6145                	addi	sp,sp,48
ffffffc050403b28:	8082                	ret

ffffffc050403b2a <k_mbox_try_send>:
ffffffc050403b2a:	1101                	addi	sp,sp,-32
ffffffc050403b2c:	ec06                	sd	ra,24(sp)
ffffffc050403b2e:	e822                	sd	s0,16(sp)
ffffffc050403b30:	1000                	addi	s0,sp,32
ffffffc050403b32:	87aa                	mv	a5,a0
ffffffc050403b34:	feb43023          	sd	a1,-32(s0)
ffffffc050403b38:	8732                	mv	a4,a2
ffffffc050403b3a:	fef42623          	sw	a5,-20(s0)
ffffffc050403b3e:	87ba                	mv	a5,a4
ffffffc050403b40:	fef42423          	sw	a5,-24(s0)
ffffffc050403b44:	0004e717          	auipc	a4,0x4e
ffffffc050403b48:	1f470713          	addi	a4,a4,500 # ffffffc050451d38 <mbox_list>
ffffffc050403b4c:	fec42783          	lw	a5,-20(s0)
ffffffc050403b50:	078e                	slli	a5,a5,0x3
ffffffc050403b52:	97ba                	add	a5,a5,a4
ffffffc050403b54:	639c                	ld	a5,0(a5)
ffffffc050403b56:	43dc                	lw	a5,4(a5)
ffffffc050403b58:	e399                	bnez	a5,ffffffc050403b5e <k_mbox_try_send+0x34>
ffffffc050403b5a:	57fd                	li	a5,-1
ffffffc050403b5c:	a05d                	j	ffffffc050403c02 <k_mbox_try_send+0xd8>
ffffffc050403b5e:	0004e717          	auipc	a4,0x4e
ffffffc050403b62:	1da70713          	addi	a4,a4,474 # ffffffc050451d38 <mbox_list>
ffffffc050403b66:	fec42783          	lw	a5,-20(s0)
ffffffc050403b6a:	078e                	slli	a5,a5,0x3
ffffffc050403b6c:	97ba                	add	a5,a5,a4
ffffffc050403b6e:	639c                	ld	a5,0(a5)
ffffffc050403b70:	0d47a783          	lw	a5,212(a5)
ffffffc050403b74:	37fd                	addiw	a5,a5,-1
ffffffc050403b76:	2781                	sext.w	a5,a5
ffffffc050403b78:	fe842703          	lw	a4,-24(s0)
ffffffc050403b7c:	85ba                	mv	a1,a4
ffffffc050403b7e:	853e                	mv	a0,a5
ffffffc050403b80:	a78fe0ef          	jal	ra,ffffffc050401df8 <k_mutex_lock_acquire>
ffffffc050403b84:	fe043783          	ld	a5,-32(s0)
ffffffc050403b88:	4794                	lw	a3,8(a5)
ffffffc050403b8a:	0004e717          	auipc	a4,0x4e
ffffffc050403b8e:	1ae70713          	addi	a4,a4,430 # ffffffc050451d38 <mbox_list>
ffffffc050403b92:	fec42783          	lw	a5,-20(s0)
ffffffc050403b96:	078e                	slli	a5,a5,0x3
ffffffc050403b98:	97ba                	add	a5,a5,a4
ffffffc050403b9a:	639c                	ld	a5,0(a5)
ffffffc050403b9c:	0d07a783          	lw	a5,208(a5)
ffffffc050403ba0:	08000713          	li	a4,128
ffffffc050403ba4:	40f707bb          	subw	a5,a4,a5
ffffffc050403ba8:	2781                	sext.w	a5,a5
ffffffc050403baa:	8736                	mv	a4,a3
ffffffc050403bac:	02e7d763          	bge	a5,a4,ffffffc050403bda <k_mbox_try_send+0xb0>
ffffffc050403bb0:	0004e717          	auipc	a4,0x4e
ffffffc050403bb4:	18870713          	addi	a4,a4,392 # ffffffc050451d38 <mbox_list>
ffffffc050403bb8:	fec42783          	lw	a5,-20(s0)
ffffffc050403bbc:	078e                	slli	a5,a5,0x3
ffffffc050403bbe:	97ba                	add	a5,a5,a4
ffffffc050403bc0:	639c                	ld	a5,0(a5)
ffffffc050403bc2:	0d47a783          	lw	a5,212(a5)
ffffffc050403bc6:	37fd                	addiw	a5,a5,-1
ffffffc050403bc8:	2781                	sext.w	a5,a5
ffffffc050403bca:	fe842703          	lw	a4,-24(s0)
ffffffc050403bce:	85ba                	mv	a1,a4
ffffffc050403bd0:	853e                	mv	a0,a5
ffffffc050403bd2:	ba0fe0ef          	jal	ra,ffffffc050401f72 <k_mutex_lock_release>
ffffffc050403bd6:	57f9                	li	a5,-2
ffffffc050403bd8:	a02d                	j	ffffffc050403c02 <k_mbox_try_send+0xd8>
ffffffc050403bda:	0004e717          	auipc	a4,0x4e
ffffffc050403bde:	15e70713          	addi	a4,a4,350 # ffffffc050451d38 <mbox_list>
ffffffc050403be2:	fec42783          	lw	a5,-20(s0)
ffffffc050403be6:	078e                	slli	a5,a5,0x3
ffffffc050403be8:	97ba                	add	a5,a5,a4
ffffffc050403bea:	639c                	ld	a5,0(a5)
ffffffc050403bec:	0d47a783          	lw	a5,212(a5)
ffffffc050403bf0:	37fd                	addiw	a5,a5,-1
ffffffc050403bf2:	2781                	sext.w	a5,a5
ffffffc050403bf4:	fe842703          	lw	a4,-24(s0)
ffffffc050403bf8:	85ba                	mv	a1,a4
ffffffc050403bfa:	853e                	mv	a0,a5
ffffffc050403bfc:	b76fe0ef          	jal	ra,ffffffc050401f72 <k_mutex_lock_release>
ffffffc050403c00:	4781                	li	a5,0
ffffffc050403c02:	853e                	mv	a0,a5
ffffffc050403c04:	60e2                	ld	ra,24(sp)
ffffffc050403c06:	6442                	ld	s0,16(sp)
ffffffc050403c08:	6105                	addi	sp,sp,32
ffffffc050403c0a:	8082                	ret

ffffffc050403c0c <k_mbox_try_recv>:
ffffffc050403c0c:	1101                	addi	sp,sp,-32
ffffffc050403c0e:	ec06                	sd	ra,24(sp)
ffffffc050403c10:	e822                	sd	s0,16(sp)
ffffffc050403c12:	1000                	addi	s0,sp,32
ffffffc050403c14:	87aa                	mv	a5,a0
ffffffc050403c16:	feb43023          	sd	a1,-32(s0)
ffffffc050403c1a:	8732                	mv	a4,a2
ffffffc050403c1c:	fef42623          	sw	a5,-20(s0)
ffffffc050403c20:	87ba                	mv	a5,a4
ffffffc050403c22:	fef42423          	sw	a5,-24(s0)
ffffffc050403c26:	0004e717          	auipc	a4,0x4e
ffffffc050403c2a:	11270713          	addi	a4,a4,274 # ffffffc050451d38 <mbox_list>
ffffffc050403c2e:	fec42783          	lw	a5,-20(s0)
ffffffc050403c32:	078e                	slli	a5,a5,0x3
ffffffc050403c34:	97ba                	add	a5,a5,a4
ffffffc050403c36:	639c                	ld	a5,0(a5)
ffffffc050403c38:	43dc                	lw	a5,4(a5)
ffffffc050403c3a:	e399                	bnez	a5,ffffffc050403c40 <k_mbox_try_recv+0x34>
ffffffc050403c3c:	57fd                	li	a5,-1
ffffffc050403c3e:	a871                	j	ffffffc050403cda <k_mbox_try_recv+0xce>
ffffffc050403c40:	0004e717          	auipc	a4,0x4e
ffffffc050403c44:	0f870713          	addi	a4,a4,248 # ffffffc050451d38 <mbox_list>
ffffffc050403c48:	fec42783          	lw	a5,-20(s0)
ffffffc050403c4c:	078e                	slli	a5,a5,0x3
ffffffc050403c4e:	97ba                	add	a5,a5,a4
ffffffc050403c50:	639c                	ld	a5,0(a5)
ffffffc050403c52:	0d47a783          	lw	a5,212(a5)
ffffffc050403c56:	37fd                	addiw	a5,a5,-1
ffffffc050403c58:	2781                	sext.w	a5,a5
ffffffc050403c5a:	fe842703          	lw	a4,-24(s0)
ffffffc050403c5e:	85ba                	mv	a1,a4
ffffffc050403c60:	853e                	mv	a0,a5
ffffffc050403c62:	996fe0ef          	jal	ra,ffffffc050401df8 <k_mutex_lock_acquire>
ffffffc050403c66:	fe043783          	ld	a5,-32(s0)
ffffffc050403c6a:	4794                	lw	a3,8(a5)
ffffffc050403c6c:	0004e717          	auipc	a4,0x4e
ffffffc050403c70:	0cc70713          	addi	a4,a4,204 # ffffffc050451d38 <mbox_list>
ffffffc050403c74:	fec42783          	lw	a5,-20(s0)
ffffffc050403c78:	078e                	slli	a5,a5,0x3
ffffffc050403c7a:	97ba                	add	a5,a5,a4
ffffffc050403c7c:	639c                	ld	a5,0(a5)
ffffffc050403c7e:	0d07a783          	lw	a5,208(a5)
ffffffc050403c82:	8736                	mv	a4,a3
ffffffc050403c84:	02e7d763          	bge	a5,a4,ffffffc050403cb2 <k_mbox_try_recv+0xa6>
ffffffc050403c88:	0004e717          	auipc	a4,0x4e
ffffffc050403c8c:	0b070713          	addi	a4,a4,176 # ffffffc050451d38 <mbox_list>
ffffffc050403c90:	fec42783          	lw	a5,-20(s0)
ffffffc050403c94:	078e                	slli	a5,a5,0x3
ffffffc050403c96:	97ba                	add	a5,a5,a4
ffffffc050403c98:	639c                	ld	a5,0(a5)
ffffffc050403c9a:	0d47a783          	lw	a5,212(a5)
ffffffc050403c9e:	37fd                	addiw	a5,a5,-1
ffffffc050403ca0:	2781                	sext.w	a5,a5
ffffffc050403ca2:	fe842703          	lw	a4,-24(s0)
ffffffc050403ca6:	85ba                	mv	a1,a4
ffffffc050403ca8:	853e                	mv	a0,a5
ffffffc050403caa:	ac8fe0ef          	jal	ra,ffffffc050401f72 <k_mutex_lock_release>
ffffffc050403cae:	57f9                	li	a5,-2
ffffffc050403cb0:	a02d                	j	ffffffc050403cda <k_mbox_try_recv+0xce>
ffffffc050403cb2:	0004e717          	auipc	a4,0x4e
ffffffc050403cb6:	08670713          	addi	a4,a4,134 # ffffffc050451d38 <mbox_list>
ffffffc050403cba:	fec42783          	lw	a5,-20(s0)
ffffffc050403cbe:	078e                	slli	a5,a5,0x3
ffffffc050403cc0:	97ba                	add	a5,a5,a4
ffffffc050403cc2:	639c                	ld	a5,0(a5)
ffffffc050403cc4:	0d47a783          	lw	a5,212(a5)
ffffffc050403cc8:	37fd                	addiw	a5,a5,-1
ffffffc050403cca:	2781                	sext.w	a5,a5
ffffffc050403ccc:	fe842703          	lw	a4,-24(s0)
ffffffc050403cd0:	85ba                	mv	a1,a4
ffffffc050403cd2:	853e                	mv	a0,a5
ffffffc050403cd4:	a9efe0ef          	jal	ra,ffffffc050401f72 <k_mutex_lock_release>
ffffffc050403cd8:	4781                	li	a5,0
ffffffc050403cda:	853e                	mv	a0,a5
ffffffc050403cdc:	60e2                	ld	ra,24(sp)
ffffffc050403cde:	6442                	ld	s0,16(sp)
ffffffc050403ce0:	6105                	addi	sp,sp,32
ffffffc050403ce2:	8082                	ret

ffffffc050403ce4 <init_list_head>:
ffffffc050403ce4:	1101                	addi	sp,sp,-32
ffffffc050403ce6:	ec22                	sd	s0,24(sp)
ffffffc050403ce8:	1000                	addi	s0,sp,32
ffffffc050403cea:	fea43423          	sd	a0,-24(s0)
ffffffc050403cee:	fe843783          	ld	a5,-24(s0)
ffffffc050403cf2:	fe843703          	ld	a4,-24(s0)
ffffffc050403cf6:	e398                	sd	a4,0(a5)
ffffffc050403cf8:	fe843783          	ld	a5,-24(s0)
ffffffc050403cfc:	fe843703          	ld	a4,-24(s0)
ffffffc050403d00:	e798                	sd	a4,8(a5)
ffffffc050403d02:	0001                	nop
ffffffc050403d04:	6462                	ld	s0,24(sp)
ffffffc050403d06:	6105                	addi	sp,sp,32
ffffffc050403d08:	8082                	ret

ffffffc050403d0a <list_init_with_null>:
ffffffc050403d0a:	1101                	addi	sp,sp,-32
ffffffc050403d0c:	ec22                	sd	s0,24(sp)
ffffffc050403d0e:	1000                	addi	s0,sp,32
ffffffc050403d10:	fea43423          	sd	a0,-24(s0)
ffffffc050403d14:	fe843783          	ld	a5,-24(s0)
ffffffc050403d18:	0007b023          	sd	zero,0(a5)
ffffffc050403d1c:	fe843783          	ld	a5,-24(s0)
ffffffc050403d20:	0007b423          	sd	zero,8(a5)
ffffffc050403d24:	0001                	nop
ffffffc050403d26:	6462                	ld	s0,24(sp)
ffffffc050403d28:	6105                	addi	sp,sp,32
ffffffc050403d2a:	8082                	ret

ffffffc050403d2c <__list_add>:
ffffffc050403d2c:	7179                	addi	sp,sp,-48
ffffffc050403d2e:	f422                	sd	s0,40(sp)
ffffffc050403d30:	1800                	addi	s0,sp,48
ffffffc050403d32:	fea43423          	sd	a0,-24(s0)
ffffffc050403d36:	feb43023          	sd	a1,-32(s0)
ffffffc050403d3a:	fcc43c23          	sd	a2,-40(s0)
ffffffc050403d3e:	fd843783          	ld	a5,-40(s0)
ffffffc050403d42:	fe843703          	ld	a4,-24(s0)
ffffffc050403d46:	e798                	sd	a4,8(a5)
ffffffc050403d48:	fe843783          	ld	a5,-24(s0)
ffffffc050403d4c:	fd843703          	ld	a4,-40(s0)
ffffffc050403d50:	e398                	sd	a4,0(a5)
ffffffc050403d52:	fe843783          	ld	a5,-24(s0)
ffffffc050403d56:	fe043703          	ld	a4,-32(s0)
ffffffc050403d5a:	e798                	sd	a4,8(a5)
ffffffc050403d5c:	fe043783          	ld	a5,-32(s0)
ffffffc050403d60:	fe843703          	ld	a4,-24(s0)
ffffffc050403d64:	e398                	sd	a4,0(a5)
ffffffc050403d66:	0001                	nop
ffffffc050403d68:	7422                	ld	s0,40(sp)
ffffffc050403d6a:	6145                	addi	sp,sp,48
ffffffc050403d6c:	8082                	ret

ffffffc050403d6e <list_add>:
ffffffc050403d6e:	1101                	addi	sp,sp,-32
ffffffc050403d70:	ec06                	sd	ra,24(sp)
ffffffc050403d72:	e822                	sd	s0,16(sp)
ffffffc050403d74:	1000                	addi	s0,sp,32
ffffffc050403d76:	fea43423          	sd	a0,-24(s0)
ffffffc050403d7a:	feb43023          	sd	a1,-32(s0)
ffffffc050403d7e:	fe043783          	ld	a5,-32(s0)
ffffffc050403d82:	639c                	ld	a5,0(a5)
ffffffc050403d84:	863e                	mv	a2,a5
ffffffc050403d86:	fe043583          	ld	a1,-32(s0)
ffffffc050403d8a:	fe843503          	ld	a0,-24(s0)
ffffffc050403d8e:	f9fff0ef          	jal	ra,ffffffc050403d2c <__list_add>
ffffffc050403d92:	0001                	nop
ffffffc050403d94:	60e2                	ld	ra,24(sp)
ffffffc050403d96:	6442                	ld	s0,16(sp)
ffffffc050403d98:	6105                	addi	sp,sp,32
ffffffc050403d9a:	8082                	ret

ffffffc050403d9c <list_add_tail>:
ffffffc050403d9c:	1101                	addi	sp,sp,-32
ffffffc050403d9e:	ec06                	sd	ra,24(sp)
ffffffc050403da0:	e822                	sd	s0,16(sp)
ffffffc050403da2:	1000                	addi	s0,sp,32
ffffffc050403da4:	fea43423          	sd	a0,-24(s0)
ffffffc050403da8:	feb43023          	sd	a1,-32(s0)
ffffffc050403dac:	fe043783          	ld	a5,-32(s0)
ffffffc050403db0:	679c                	ld	a5,8(a5)
ffffffc050403db2:	fe043603          	ld	a2,-32(s0)
ffffffc050403db6:	85be                	mv	a1,a5
ffffffc050403db8:	fe843503          	ld	a0,-24(s0)
ffffffc050403dbc:	f71ff0ef          	jal	ra,ffffffc050403d2c <__list_add>
ffffffc050403dc0:	0001                	nop
ffffffc050403dc2:	60e2                	ld	ra,24(sp)
ffffffc050403dc4:	6442                	ld	s0,16(sp)
ffffffc050403dc6:	6105                	addi	sp,sp,32
ffffffc050403dc8:	8082                	ret

ffffffc050403dca <__list_del>:
ffffffc050403dca:	1101                	addi	sp,sp,-32
ffffffc050403dcc:	ec22                	sd	s0,24(sp)
ffffffc050403dce:	1000                	addi	s0,sp,32
ffffffc050403dd0:	fea43423          	sd	a0,-24(s0)
ffffffc050403dd4:	feb43023          	sd	a1,-32(s0)
ffffffc050403dd8:	fe043783          	ld	a5,-32(s0)
ffffffc050403ddc:	fe843703          	ld	a4,-24(s0)
ffffffc050403de0:	e798                	sd	a4,8(a5)
ffffffc050403de2:	fe843783          	ld	a5,-24(s0)
ffffffc050403de6:	fe043703          	ld	a4,-32(s0)
ffffffc050403dea:	e398                	sd	a4,0(a5)
ffffffc050403dec:	0001                	nop
ffffffc050403dee:	6462                	ld	s0,24(sp)
ffffffc050403df0:	6105                	addi	sp,sp,32
ffffffc050403df2:	8082                	ret

ffffffc050403df4 <__list_del_entry>:
ffffffc050403df4:	1101                	addi	sp,sp,-32
ffffffc050403df6:	ec06                	sd	ra,24(sp)
ffffffc050403df8:	e822                	sd	s0,16(sp)
ffffffc050403dfa:	1000                	addi	s0,sp,32
ffffffc050403dfc:	fea43423          	sd	a0,-24(s0)
ffffffc050403e00:	fe843783          	ld	a5,-24(s0)
ffffffc050403e04:	6798                	ld	a4,8(a5)
ffffffc050403e06:	fe843783          	ld	a5,-24(s0)
ffffffc050403e0a:	639c                	ld	a5,0(a5)
ffffffc050403e0c:	85be                	mv	a1,a5
ffffffc050403e0e:	853a                	mv	a0,a4
ffffffc050403e10:	fbbff0ef          	jal	ra,ffffffc050403dca <__list_del>
ffffffc050403e14:	0001                	nop
ffffffc050403e16:	60e2                	ld	ra,24(sp)
ffffffc050403e18:	6442                	ld	s0,16(sp)
ffffffc050403e1a:	6105                	addi	sp,sp,32
ffffffc050403e1c:	8082                	ret

ffffffc050403e1e <list_del>:
ffffffc050403e1e:	1101                	addi	sp,sp,-32
ffffffc050403e20:	ec06                	sd	ra,24(sp)
ffffffc050403e22:	e822                	sd	s0,16(sp)
ffffffc050403e24:	1000                	addi	s0,sp,32
ffffffc050403e26:	fea43423          	sd	a0,-24(s0)
ffffffc050403e2a:	fe843503          	ld	a0,-24(s0)
ffffffc050403e2e:	fc7ff0ef          	jal	ra,ffffffc050403df4 <__list_del_entry>
ffffffc050403e32:	fe843783          	ld	a5,-24(s0)
ffffffc050403e36:	0007b023          	sd	zero,0(a5)
ffffffc050403e3a:	fe843783          	ld	a5,-24(s0)
ffffffc050403e3e:	0007b423          	sd	zero,8(a5)
ffffffc050403e42:	0001                	nop
ffffffc050403e44:	60e2                	ld	ra,24(sp)
ffffffc050403e46:	6442                	ld	s0,16(sp)
ffffffc050403e48:	6105                	addi	sp,sp,32
ffffffc050403e4a:	8082                	ret

ffffffc050403e4c <list_is_empty>:
ffffffc050403e4c:	1101                	addi	sp,sp,-32
ffffffc050403e4e:	ec22                	sd	s0,24(sp)
ffffffc050403e50:	1000                	addi	s0,sp,32
ffffffc050403e52:	fea43423          	sd	a0,-24(s0)
ffffffc050403e56:	fe843783          	ld	a5,-24(s0)
ffffffc050403e5a:	639c                	ld	a5,0(a5)
ffffffc050403e5c:	fe843703          	ld	a4,-24(s0)
ffffffc050403e60:	40f707b3          	sub	a5,a4,a5
ffffffc050403e64:	0017b793          	seqz	a5,a5
ffffffc050403e68:	0ff7f793          	andi	a5,a5,255
ffffffc050403e6c:	2781                	sext.w	a5,a5
ffffffc050403e6e:	853e                	mv	a0,a5
ffffffc050403e70:	6462                	ld	s0,24(sp)
ffffffc050403e72:	6105                	addi	sp,sp,32
ffffffc050403e74:	8082                	ret

ffffffc050403e76 <list_fetch>:
ffffffc050403e76:	7179                	addi	sp,sp,-48
ffffffc050403e78:	f406                	sd	ra,40(sp)
ffffffc050403e7a:	f022                	sd	s0,32(sp)
ffffffc050403e7c:	1800                	addi	s0,sp,48
ffffffc050403e7e:	fca43c23          	sd	a0,-40(s0)
ffffffc050403e82:	fcb43823          	sd	a1,-48(s0)
ffffffc050403e86:	fd843503          	ld	a0,-40(s0)
ffffffc050403e8a:	fc3ff0ef          	jal	ra,ffffffc050403e4c <list_is_empty>
ffffffc050403e8e:	87aa                	mv	a5,a0
ffffffc050403e90:	e781                	bnez	a5,ffffffc050403e98 <list_fetch+0x22>
ffffffc050403e92:	fd043783          	ld	a5,-48(s0)
ffffffc050403e96:	e399                	bnez	a5,ffffffc050403e9c <list_fetch+0x26>
ffffffc050403e98:	4781                	li	a5,0
ffffffc050403e9a:	a82d                	j	ffffffc050403ed4 <list_fetch+0x5e>
ffffffc050403e9c:	fd843783          	ld	a5,-40(s0)
ffffffc050403ea0:	fef43423          	sd	a5,-24(s0)
ffffffc050403ea4:	a031                	j	ffffffc050403eb0 <list_fetch+0x3a>
ffffffc050403ea6:	fe843783          	ld	a5,-24(s0)
ffffffc050403eaa:	639c                	ld	a5,0(a5)
ffffffc050403eac:	fef43423          	sd	a5,-24(s0)
ffffffc050403eb0:	fd043783          	ld	a5,-48(s0)
ffffffc050403eb4:	fff78713          	addi	a4,a5,-1
ffffffc050403eb8:	fce43823          	sd	a4,-48(s0)
ffffffc050403ebc:	cb89                	beqz	a5,ffffffc050403ece <list_fetch+0x58>
ffffffc050403ebe:	fe843783          	ld	a5,-24(s0)
ffffffc050403ec2:	6398                	ld	a4,0(a5)
ffffffc050403ec4:	fd843783          	ld	a5,-40(s0)
ffffffc050403ec8:	679c                	ld	a5,8(a5)
ffffffc050403eca:	fcf71ee3          	bne	a4,a5,ffffffc050403ea6 <list_fetch+0x30>
ffffffc050403ece:	fe843783          	ld	a5,-24(s0)
ffffffc050403ed2:	639c                	ld	a5,0(a5)
ffffffc050403ed4:	853e                	mv	a0,a5
ffffffc050403ed6:	70a2                	ld	ra,40(sp)
ffffffc050403ed8:	7402                	ld	s0,32(sp)
ffffffc050403eda:	6145                	addi	sp,sp,48
ffffffc050403edc:	8082                	ret

ffffffc050403ede <local_flush_tlb_all>:
ffffffc050403ede:	1141                	addi	sp,sp,-16
ffffffc050403ee0:	e422                	sd	s0,8(sp)
ffffffc050403ee2:	0800                	addi	s0,sp,16
ffffffc050403ee4:	12000073          	sfence.vma
ffffffc050403ee8:	0001                	nop
ffffffc050403eea:	6422                	ld	s0,8(sp)
ffffffc050403eec:	0141                	addi	sp,sp,16
ffffffc050403eee:	8082                	ret

ffffffc050403ef0 <set_satp>:
ffffffc050403ef0:	7179                	addi	sp,sp,-48
ffffffc050403ef2:	f422                	sd	s0,40(sp)
ffffffc050403ef4:	1800                	addi	s0,sp,48
ffffffc050403ef6:	87aa                	mv	a5,a0
ffffffc050403ef8:	872e                	mv	a4,a1
ffffffc050403efa:	fcc43823          	sd	a2,-48(s0)
ffffffc050403efe:	fcf42e23          	sw	a5,-36(s0)
ffffffc050403f02:	87ba                	mv	a5,a4
ffffffc050403f04:	fcf42c23          	sw	a5,-40(s0)
ffffffc050403f08:	fdc46783          	lwu	a5,-36(s0)
ffffffc050403f0c:	03c79713          	slli	a4,a5,0x3c
ffffffc050403f10:	fd846783          	lwu	a5,-40(s0)
ffffffc050403f14:	02c79693          	slli	a3,a5,0x2c
ffffffc050403f18:	0ffff7b7          	lui	a5,0xffff
ffffffc050403f1c:	1782                	slli	a5,a5,0x20
ffffffc050403f1e:	8ff5                	and	a5,a5,a3
ffffffc050403f20:	8f5d                	or	a4,a4,a5
ffffffc050403f22:	fd043683          	ld	a3,-48(s0)
ffffffc050403f26:	57fd                	li	a5,-1
ffffffc050403f28:	83d1                	srli	a5,a5,0x14
ffffffc050403f2a:	8ff5                	and	a5,a5,a3
ffffffc050403f2c:	8fd9                	or	a5,a5,a4
ffffffc050403f2e:	fef43423          	sd	a5,-24(s0)
ffffffc050403f32:	fe843783          	ld	a5,-24(s0)
ffffffc050403f36:	12000073          	sfence.vma
ffffffc050403f3a:	18079073          	csrw	satp,a5
ffffffc050403f3e:	0001                	nop
ffffffc050403f40:	7422                	ld	s0,40(sp)
ffffffc050403f42:	6145                	addi	sp,sp,48
ffffffc050403f44:	8082                	ret

ffffffc050403f46 <kva2pa>:
ffffffc050403f46:	1101                	addi	sp,sp,-32
ffffffc050403f48:	ec22                	sd	s0,24(sp)
ffffffc050403f4a:	1000                	addi	s0,sp,32
ffffffc050403f4c:	fea43423          	sd	a0,-24(s0)
ffffffc050403f50:	fe843703          	ld	a4,-24(s0)
ffffffc050403f54:	4785                	li	a5,1
ffffffc050403f56:	179a                	slli	a5,a5,0x26
ffffffc050403f58:	97ba                	add	a5,a5,a4
ffffffc050403f5a:	853e                	mv	a0,a5
ffffffc050403f5c:	6462                	ld	s0,24(sp)
ffffffc050403f5e:	6105                	addi	sp,sp,32
ffffffc050403f60:	8082                	ret

ffffffc050403f62 <is_elf_format>:
ffffffc050403f62:	7179                	addi	sp,sp,-48
ffffffc050403f64:	f422                	sd	s0,40(sp)
ffffffc050403f66:	1800                	addi	s0,sp,48
ffffffc050403f68:	fca43c23          	sd	a0,-40(s0)
ffffffc050403f6c:	fd843783          	ld	a5,-40(s0)
ffffffc050403f70:	fef43423          	sd	a5,-24(s0)
ffffffc050403f74:	fe843783          	ld	a5,-24(s0)
ffffffc050403f78:	0007c783          	lbu	a5,0(a5) # ffff000 <_start-0xffffffc040401000>
ffffffc050403f7c:	eb9d                	bnez	a5,ffffffc050403fb2 <is_elf_format+0x50>
ffffffc050403f7e:	fe843783          	ld	a5,-24(s0)
ffffffc050403f82:	0017c783          	lbu	a5,1(a5)
ffffffc050403f86:	873e                	mv	a4,a5
ffffffc050403f88:	4785                	li	a5,1
ffffffc050403f8a:	02f71463          	bne	a4,a5,ffffffc050403fb2 <is_elf_format+0x50>
ffffffc050403f8e:	fe843783          	ld	a5,-24(s0)
ffffffc050403f92:	0027c783          	lbu	a5,2(a5)
ffffffc050403f96:	873e                	mv	a4,a5
ffffffc050403f98:	4789                	li	a5,2
ffffffc050403f9a:	00f71c63          	bne	a4,a5,ffffffc050403fb2 <is_elf_format+0x50>
ffffffc050403f9e:	fe843783          	ld	a5,-24(s0)
ffffffc050403fa2:	0037c783          	lbu	a5,3(a5)
ffffffc050403fa6:	873e                	mv	a4,a5
ffffffc050403fa8:	478d                	li	a5,3
ffffffc050403faa:	00f71463          	bne	a4,a5,ffffffc050403fb2 <is_elf_format+0x50>
ffffffc050403fae:	4781                	li	a5,0
ffffffc050403fb0:	a011                	j	ffffffc050403fb4 <is_elf_format+0x52>
ffffffc050403fb2:	4785                	li	a5,1
ffffffc050403fb4:	853e                	mv	a0,a5
ffffffc050403fb6:	7422                	ld	s0,40(sp)
ffffffc050403fb8:	6145                	addi	sp,sp,48
ffffffc050403fba:	8082                	ret

ffffffc050403fbc <load_elf>:
ffffffc050403fbc:	7159                	addi	sp,sp,-112
ffffffc050403fbe:	f486                	sd	ra,104(sp)
ffffffc050403fc0:	f0a2                	sd	s0,96(sp)
ffffffc050403fc2:	1880                	addi	s0,sp,112
ffffffc050403fc4:	faa43423          	sd	a0,-88(s0)
ffffffc050403fc8:	87ae                	mv	a5,a1
ffffffc050403fca:	f8c43c23          	sd	a2,-104(s0)
ffffffc050403fce:	f8d43823          	sd	a3,-112(s0)
ffffffc050403fd2:	faf42223          	sw	a5,-92(s0)
ffffffc050403fd6:	fa843783          	ld	a5,-88(s0)
ffffffc050403fda:	fcf43823          	sd	a5,-48(s0)
ffffffc050403fde:	fc043423          	sd	zero,-56(s0)
ffffffc050403fe2:	fe043423          	sd	zero,-24(s0)
ffffffc050403fe6:	fe042023          	sw	zero,-32(s0)
ffffffc050403fea:	fa442783          	lw	a5,-92(s0)
ffffffc050403fee:	0007871b          	sext.w	a4,a5
ffffffc050403ff2:	478d                	li	a5,3
ffffffc050403ff4:	00e7f863          	bgeu	a5,a4,ffffffc050404004 <load_elf+0x48>
ffffffc050403ff8:	fa843503          	ld	a0,-88(s0)
ffffffc050403ffc:	f67ff0ef          	jal	ra,ffffffc050403f62 <is_elf_format>
ffffffc050404000:	87aa                	mv	a5,a0
ffffffc050404002:	e399                	bnez	a5,ffffffc050404008 <load_elf+0x4c>
ffffffc050404004:	4781                	li	a5,0
ffffffc050404006:	a259                	j	ffffffc05040418c <load_elf+0x1d0>
ffffffc050404008:	fd043783          	ld	a5,-48(s0)
ffffffc05040400c:	739c                	ld	a5,32(a5)
ffffffc05040400e:	fa843703          	ld	a4,-88(s0)
ffffffc050404012:	97ba                	add	a5,a5,a4
ffffffc050404014:	fef43423          	sd	a5,-24(s0)
ffffffc050404018:	fd043783          	ld	a5,-48(s0)
ffffffc05040401c:	0387d783          	lhu	a5,56(a5)
ffffffc050404020:	fef41323          	sh	a5,-26(s0)
ffffffc050404024:	fd043783          	ld	a5,-48(s0)
ffffffc050404028:	0367d783          	lhu	a5,54(a5)
ffffffc05040402c:	fcf41323          	sh	a5,-58(s0)
ffffffc050404030:	a299                	j	ffffffc050404176 <load_elf+0x1ba>
ffffffc050404032:	fe843783          	ld	a5,-24(s0)
ffffffc050404036:	fcf43423          	sd	a5,-56(s0)
ffffffc05040403a:	fc843783          	ld	a5,-56(s0)
ffffffc05040403e:	439c                	lw	a5,0(a5)
ffffffc050404040:	873e                	mv	a4,a5
ffffffc050404042:	4785                	li	a5,1
ffffffc050404044:	12f71263          	bne	a4,a5,ffffffc050404168 <load_elf+0x1ac>
ffffffc050404048:	fe042023          	sw	zero,-32(s0)
ffffffc05040404c:	a239                	j	ffffffc05040415a <load_elf+0x19e>
ffffffc05040404e:	fe042703          	lw	a4,-32(s0)
ffffffc050404052:	fc843783          	ld	a5,-56(s0)
ffffffc050404056:	739c                	ld	a5,32(a5)
ffffffc050404058:	0af77463          	bgeu	a4,a5,ffffffc050404100 <load_elf+0x144>
ffffffc05040405c:	fc843783          	ld	a5,-56(s0)
ffffffc050404060:	6b98                	ld	a4,16(a5)
ffffffc050404062:	fe042783          	lw	a5,-32(s0)
ffffffc050404066:	97ba                	add	a5,a5,a4
ffffffc050404068:	f9043703          	ld	a4,-112(s0)
ffffffc05040406c:	f9843583          	ld	a1,-104(s0)
ffffffc050404070:	853e                	mv	a0,a5
ffffffc050404072:	9702                	jalr	a4
ffffffc050404074:	87aa                	mv	a5,a0
ffffffc050404076:	faf43823          	sd	a5,-80(s0)
ffffffc05040407a:	fc843783          	ld	a5,-56(s0)
ffffffc05040407e:	6798                	ld	a4,8(a5)
ffffffc050404080:	fe042783          	lw	a5,-32(s0)
ffffffc050404084:	97ba                	add	a5,a5,a4
ffffffc050404086:	fa843703          	ld	a4,-88(s0)
ffffffc05040408a:	00f706b3          	add	a3,a4,a5
ffffffc05040408e:	fc843783          	ld	a5,-56(s0)
ffffffc050404092:	7398                	ld	a4,32(a5)
ffffffc050404094:	fe042783          	lw	a5,-32(s0)
ffffffc050404098:	40f707b3          	sub	a5,a4,a5
ffffffc05040409c:	6705                	lui	a4,0x1
ffffffc05040409e:	00f77363          	bgeu	a4,a5,ffffffc0504040a4 <load_elf+0xe8>
ffffffc0504040a2:	6785                	lui	a5,0x1
ffffffc0504040a4:	2781                	sext.w	a5,a5
ffffffc0504040a6:	863e                	mv	a2,a5
ffffffc0504040a8:	85b6                	mv	a1,a3
ffffffc0504040aa:	fb043503          	ld	a0,-80(s0)
ffffffc0504040ae:	065020ef          	jal	ra,ffffffc050406912 <memcpy>
ffffffc0504040b2:	fc843783          	ld	a5,-56(s0)
ffffffc0504040b6:	7398                	ld	a4,32(a5)
ffffffc0504040b8:	fe042783          	lw	a5,-32(s0)
ffffffc0504040bc:	8f1d                	sub	a4,a4,a5
ffffffc0504040be:	6785                	lui	a5,0x1
ffffffc0504040c0:	08f77663          	bgeu	a4,a5,ffffffc05040414c <load_elf+0x190>
ffffffc0504040c4:	fc843783          	ld	a5,-56(s0)
ffffffc0504040c8:	739c                	ld	a5,32(a5)
ffffffc0504040ca:	0007871b          	sext.w	a4,a5
ffffffc0504040ce:	6785                	lui	a5,0x1
ffffffc0504040d0:	17fd                	addi	a5,a5,-1
ffffffc0504040d2:	8ff9                	and	a5,a5,a4
ffffffc0504040d4:	fcf42e23          	sw	a5,-36(s0)
ffffffc0504040d8:	a829                	j	ffffffc0504040f2 <load_elf+0x136>
ffffffc0504040da:	fdc42783          	lw	a5,-36(s0)
ffffffc0504040de:	fb043703          	ld	a4,-80(s0)
ffffffc0504040e2:	97ba                	add	a5,a5,a4
ffffffc0504040e4:	00078023          	sb	zero,0(a5) # 1000 <_start-0xffffffc0503ff000>
ffffffc0504040e8:	fdc42783          	lw	a5,-36(s0)
ffffffc0504040ec:	2785                	addiw	a5,a5,1
ffffffc0504040ee:	fcf42e23          	sw	a5,-36(s0)
ffffffc0504040f2:	fdc42783          	lw	a5,-36(s0)
ffffffc0504040f6:	873e                	mv	a4,a5
ffffffc0504040f8:	6785                	lui	a5,0x1
ffffffc0504040fa:	fef760e3          	bltu	a4,a5,ffffffc0504040da <load_elf+0x11e>
ffffffc0504040fe:	a0b9                	j	ffffffc05040414c <load_elf+0x190>
ffffffc050404100:	fc843783          	ld	a5,-56(s0)
ffffffc050404104:	6b98                	ld	a4,16(a5)
ffffffc050404106:	fe042783          	lw	a5,-32(s0)
ffffffc05040410a:	97ba                	add	a5,a5,a4
ffffffc05040410c:	f9043703          	ld	a4,-112(s0)
ffffffc050404110:	f9843583          	ld	a1,-104(s0)
ffffffc050404114:	853e                	mv	a0,a5
ffffffc050404116:	9702                	jalr	a4
ffffffc050404118:	87aa                	mv	a5,a0
ffffffc05040411a:	faf43c23          	sd	a5,-72(s0)
ffffffc05040411e:	fc042c23          	sw	zero,-40(s0)
ffffffc050404122:	a831                	j	ffffffc05040413e <load_elf+0x182>
ffffffc050404124:	fd842783          	lw	a5,-40(s0)
ffffffc050404128:	078e                	slli	a5,a5,0x3
ffffffc05040412a:	fb843703          	ld	a4,-72(s0)
ffffffc05040412e:	97ba                	add	a5,a5,a4
ffffffc050404130:	0007b023          	sd	zero,0(a5) # 1000 <_start-0xffffffc0503ff000>
ffffffc050404134:	fd842783          	lw	a5,-40(s0)
ffffffc050404138:	2785                	addiw	a5,a5,1
ffffffc05040413a:	fcf42c23          	sw	a5,-40(s0)
ffffffc05040413e:	fd842783          	lw	a5,-40(s0)
ffffffc050404142:	873e                	mv	a4,a5
ffffffc050404144:	1ff00793          	li	a5,511
ffffffc050404148:	fce7fee3          	bgeu	a5,a4,ffffffc050404124 <load_elf+0x168>
ffffffc05040414c:	fe042703          	lw	a4,-32(s0)
ffffffc050404150:	6785                	lui	a5,0x1
ffffffc050404152:	9fb9                	addw	a5,a5,a4
ffffffc050404154:	2781                	sext.w	a5,a5
ffffffc050404156:	fef42023          	sw	a5,-32(s0)
ffffffc05040415a:	fe042703          	lw	a4,-32(s0)
ffffffc05040415e:	fc843783          	ld	a5,-56(s0)
ffffffc050404162:	779c                	ld	a5,40(a5)
ffffffc050404164:	eef765e3          	bltu	a4,a5,ffffffc05040404e <load_elf+0x92>
ffffffc050404168:	fc645783          	lhu	a5,-58(s0)
ffffffc05040416c:	fe843703          	ld	a4,-24(s0)
ffffffc050404170:	97ba                	add	a5,a5,a4
ffffffc050404172:	fef43423          	sd	a5,-24(s0)
ffffffc050404176:	fe645783          	lhu	a5,-26(s0)
ffffffc05040417a:	fff7871b          	addiw	a4,a5,-1
ffffffc05040417e:	fee41323          	sh	a4,-26(s0)
ffffffc050404182:	ea0798e3          	bnez	a5,ffffffc050404032 <load_elf+0x76>
ffffffc050404186:	fd043783          	ld	a5,-48(s0)
ffffffc05040418a:	6f9c                	ld	a5,24(a5)
ffffffc05040418c:	853e                	mv	a0,a5
ffffffc05040418e:	70a6                	ld	ra,104(sp)
ffffffc050404190:	7406                	ld	s0,96(sp)
ffffffc050404192:	6165                	addi	sp,sp,112
ffffffc050404194:	8082                	ret

ffffffc050404196 <assert_supervisor_mode>:
ffffffc050404196:	1141                	addi	sp,sp,-16
ffffffc050404198:	e422                	sd	s0,8(sp)
ffffffc05040419a:	0800                	addi	s0,sp,16
ffffffc05040419c:	14002073          	csrr	zero,sscratch
ffffffc0504041a0:	0001                	nop
ffffffc0504041a2:	6422                	ld	s0,8(sp)
ffffffc0504041a4:	0141                	addi	sp,sp,16
ffffffc0504041a6:	8082                	ret

ffffffc0504041a8 <dequeue>:
ffffffc0504041a8:	7139                	addi	sp,sp,-64
ffffffc0504041aa:	fc06                	sd	ra,56(sp)
ffffffc0504041ac:	f822                	sd	s0,48(sp)
ffffffc0504041ae:	0080                	addi	s0,sp,64
ffffffc0504041b0:	fca43423          	sd	a0,-56(s0)
ffffffc0504041b4:	87ae                	mv	a5,a1
ffffffc0504041b6:	fcf42223          	sw	a5,-60(s0)
ffffffc0504041ba:	fc442783          	lw	a5,-60(s0)
ffffffc0504041be:	0007871b          	sext.w	a4,a5
ffffffc0504041c2:	478d                	li	a5,3
ffffffc0504041c4:	0cf70d63          	beq	a4,a5,ffffffc05040429e <dequeue+0xf6>
ffffffc0504041c8:	fc442783          	lw	a5,-60(s0)
ffffffc0504041cc:	0007871b          	sext.w	a4,a5
ffffffc0504041d0:	478d                	li	a5,3
ffffffc0504041d2:	0ee7c363          	blt	a5,a4,ffffffc0504042b8 <dequeue+0x110>
ffffffc0504041d6:	fc442783          	lw	a5,-60(s0)
ffffffc0504041da:	0007871b          	sext.w	a4,a5
ffffffc0504041de:	4789                	li	a5,2
ffffffc0504041e0:	06f70b63          	beq	a4,a5,ffffffc050404256 <dequeue+0xae>
ffffffc0504041e4:	fc442783          	lw	a5,-60(s0)
ffffffc0504041e8:	0007871b          	sext.w	a4,a5
ffffffc0504041ec:	4789                	li	a5,2
ffffffc0504041ee:	0ce7c563          	blt	a5,a4,ffffffc0504042b8 <dequeue+0x110>
ffffffc0504041f2:	fc442783          	lw	a5,-60(s0)
ffffffc0504041f6:	2781                	sext.w	a5,a5
ffffffc0504041f8:	cb89                	beqz	a5,ffffffc05040420a <dequeue+0x62>
ffffffc0504041fa:	fc442783          	lw	a5,-60(s0)
ffffffc0504041fe:	0007871b          	sext.w	a4,a5
ffffffc050404202:	4785                	li	a5,1
ffffffc050404204:	02f70663          	beq	a4,a5,ffffffc050404230 <dequeue+0x88>
ffffffc050404208:	a845                	j	ffffffc0504042b8 <dequeue+0x110>
ffffffc05040420a:	fc843783          	ld	a5,-56(s0)
ffffffc05040420e:	639c                	ld	a5,0(a5)
ffffffc050404210:	fcf43823          	sd	a5,-48(s0)
ffffffc050404214:	fd043783          	ld	a5,-48(s0)
ffffffc050404218:	fa878793          	addi	a5,a5,-88 # fa8 <_start-0xffffffc0503ff058>
ffffffc05040421c:	fef43423          	sd	a5,-24(s0)
ffffffc050404220:	fe843783          	ld	a5,-24(s0)
ffffffc050404224:	05878793          	addi	a5,a5,88
ffffffc050404228:	853e                	mv	a0,a5
ffffffc05040422a:	bf5ff0ef          	jal	ra,ffffffc050403e1e <list_del>
ffffffc05040422e:	a071                	j	ffffffc0504042ba <dequeue+0x112>
ffffffc050404230:	fc843783          	ld	a5,-56(s0)
ffffffc050404234:	639c                	ld	a5,0(a5)
ffffffc050404236:	fcf43c23          	sd	a5,-40(s0)
ffffffc05040423a:	fd843783          	ld	a5,-40(s0)
ffffffc05040423e:	f9078793          	addi	a5,a5,-112
ffffffc050404242:	fef43423          	sd	a5,-24(s0)
ffffffc050404246:	fe843783          	ld	a5,-24(s0)
ffffffc05040424a:	07078793          	addi	a5,a5,112
ffffffc05040424e:	853e                	mv	a0,a5
ffffffc050404250:	bcfff0ef          	jal	ra,ffffffc050403e1e <list_del>
ffffffc050404254:	a09d                	j	ffffffc0504042ba <dequeue+0x112>
ffffffc050404256:	fc843783          	ld	a5,-56(s0)
ffffffc05040425a:	639c                	ld	a5,0(a5)
ffffffc05040425c:	fef43023          	sd	a5,-32(s0)
ffffffc050404260:	fe043783          	ld	a5,-32(s0)
ffffffc050404264:	f9078793          	addi	a5,a5,-112
ffffffc050404268:	fef43423          	sd	a5,-24(s0)
ffffffc05040426c:	fe843783          	ld	a5,-24(s0)
ffffffc050404270:	07078793          	addi	a5,a5,112
ffffffc050404274:	853e                	mv	a0,a5
ffffffc050404276:	ba9ff0ef          	jal	ra,ffffffc050403e1e <list_del>
ffffffc05040427a:	fe843783          	ld	a5,-24(s0)
ffffffc05040427e:	08078793          	addi	a5,a5,128
ffffffc050404282:	02800613          	li	a2,40
ffffffc050404286:	4581                	li	a1,0
ffffffc050404288:	853e                	mv	a0,a5
ffffffc05040428a:	6da020ef          	jal	ra,ffffffc050406964 <memset>
ffffffc05040428e:	fe843783          	ld	a5,-24(s0)
ffffffc050404292:	07078793          	addi	a5,a5,112
ffffffc050404296:	853e                	mv	a0,a5
ffffffc050404298:	a73ff0ef          	jal	ra,ffffffc050403d0a <list_init_with_null>
ffffffc05040429c:	a839                	j	ffffffc0504042ba <dequeue+0x112>
ffffffc05040429e:	fc843503          	ld	a0,-56(s0)
ffffffc0504042a2:	103000ef          	jal	ra,ffffffc050404ba4 <choose_sched_task>
ffffffc0504042a6:	fea43423          	sd	a0,-24(s0)
ffffffc0504042aa:	fe843783          	ld	a5,-24(s0)
ffffffc0504042ae:	05878793          	addi	a5,a5,88
ffffffc0504042b2:	853e                	mv	a0,a5
ffffffc0504042b4:	b6bff0ef          	jal	ra,ffffffc050403e1e <list_del>
ffffffc0504042b8:	0001                	nop
ffffffc0504042ba:	fe843783          	ld	a5,-24(s0)
ffffffc0504042be:	853e                	mv	a0,a5
ffffffc0504042c0:	70e2                	ld	ra,56(sp)
ffffffc0504042c2:	7442                	ld	s0,48(sp)
ffffffc0504042c4:	6121                	addi	sp,sp,64
ffffffc0504042c6:	8082                	ret

ffffffc0504042c8 <k_scheduler>:
ffffffc0504042c8:	715d                	addi	sp,sp,-80
ffffffc0504042ca:	e486                	sd	ra,72(sp)
ffffffc0504042cc:	e0a2                	sd	s0,64(sp)
ffffffc0504042ce:	fc26                	sd	s1,56(sp)
ffffffc0504042d0:	0880                	addi	s0,sp,80
ffffffc0504042d2:	ec5ff0ef          	jal	ra,ffffffc050404196 <assert_supervisor_mode>
ffffffc0504042d6:	84efc0ef          	jal	ra,ffffffc050400324 <get_current_cpu_id>
ffffffc0504042da:	87aa                	mv	a5,a0
ffffffc0504042dc:	fcf42623          	sw	a5,-52(s0)
ffffffc0504042e0:	fc043c23          	sd	zero,-40(s0)
ffffffc0504042e4:	fc043823          	sd	zero,-48(s0)
ffffffc0504042e8:	fcc42783          	lw	a5,-52(s0)
ffffffc0504042ec:	2781                	sext.w	a5,a5
ffffffc0504042ee:	eb89                	bnez	a5,ffffffc050404300 <k_scheduler+0x38>
ffffffc0504042f0:	0004e797          	auipc	a5,0x4e
ffffffc0504042f4:	d2878793          	addi	a5,a5,-728 # ffffffc050452018 <current_running_core_m>
ffffffc0504042f8:	639c                	ld	a5,0(a5)
ffffffc0504042fa:	fcf43c23          	sd	a5,-40(s0)
ffffffc0504042fe:	a801                	j	ffffffc05040430e <k_scheduler+0x46>
ffffffc050404300:	00050797          	auipc	a5,0x50
ffffffc050404304:	a2878793          	addi	a5,a5,-1496 # ffffffc050453d28 <current_running_core_s>
ffffffc050404308:	639c                	ld	a5,0(a5)
ffffffc05040430a:	fcf43c23          	sd	a5,-40(s0)
ffffffc05040430e:	fd843783          	ld	a5,-40(s0)
ffffffc050404312:	5b9c                	lw	a5,48(a5)
ffffffc050404314:	873e                	mv	a4,a5
ffffffc050404316:	4785                	li	a5,1
ffffffc050404318:	06f71e63          	bne	a4,a5,ffffffc050404394 <k_scheduler+0xcc>
ffffffc05040431c:	fd843783          	ld	a5,-40(s0)
ffffffc050404320:	579c                	lw	a5,40(a5)
ffffffc050404322:	cbad                	beqz	a5,ffffffc050404394 <k_scheduler+0xcc>
ffffffc050404324:	fd843783          	ld	a5,-40(s0)
ffffffc050404328:	579c                	lw	a5,40(a5)
ffffffc05040432a:	873e                	mv	a4,a5
ffffffc05040432c:	57fd                	li	a5,-1
ffffffc05040432e:	06f70363          	beq	a4,a5,ffffffc050404394 <k_scheduler+0xcc>
ffffffc050404332:	00004517          	auipc	a0,0x4
ffffffc050404336:	d0650513          	addi	a0,a0,-762 # ffffffc050408038 <ready_queue>
ffffffc05040433a:	b13ff0ef          	jal	ra,ffffffc050403e4c <list_is_empty>
ffffffc05040433e:	87aa                	mv	a5,a0
ffffffc050404340:	e789                	bnez	a5,ffffffc05040434a <k_scheduler+0x82>
ffffffc050404342:	fd843783          	ld	a5,-40(s0)
ffffffc050404346:	63bc                	ld	a5,64(a5)
ffffffc050404348:	ef89                	bnez	a5,ffffffc050404362 <k_scheduler+0x9a>
ffffffc05040434a:	fd843783          	ld	a5,-40(s0)
ffffffc05040434e:	05878793          	addi	a5,a5,88
ffffffc050404352:	00004597          	auipc	a1,0x4
ffffffc050404356:	ce658593          	addi	a1,a1,-794 # ffffffc050408038 <ready_queue>
ffffffc05040435a:	853e                	mv	a0,a5
ffffffc05040435c:	a41ff0ef          	jal	ra,ffffffc050403d9c <list_add_tail>
ffffffc050404360:	a035                	j	ffffffc05040438c <k_scheduler+0xc4>
ffffffc050404362:	fd843783          	ld	a5,-40(s0)
ffffffc050404366:	63bc                	ld	a5,64(a5)
ffffffc050404368:	85be                	mv	a1,a5
ffffffc05040436a:	00004517          	auipc	a0,0x4
ffffffc05040436e:	cce50513          	addi	a0,a0,-818 # ffffffc050408038 <ready_queue>
ffffffc050404372:	b05ff0ef          	jal	ra,ffffffc050403e76 <list_fetch>
ffffffc050404376:	fca43023          	sd	a0,-64(s0)
ffffffc05040437a:	fd843783          	ld	a5,-40(s0)
ffffffc05040437e:	05878793          	addi	a5,a5,88
ffffffc050404382:	fc043583          	ld	a1,-64(s0)
ffffffc050404386:	853e                	mv	a0,a5
ffffffc050404388:	9e7ff0ef          	jal	ra,ffffffc050403d6e <list_add>
ffffffc05040438c:	fd843783          	ld	a5,-40(s0)
ffffffc050404390:	4709                	li	a4,2
ffffffc050404392:	db98                	sw	a4,48(a5)
ffffffc050404394:	00004517          	auipc	a0,0x4
ffffffc050404398:	ca450513          	addi	a0,a0,-860 # ffffffc050408038 <ready_queue>
ffffffc05040439c:	ab1ff0ef          	jal	ra,ffffffc050403e4c <list_is_empty>
ffffffc0504043a0:	87aa                	mv	a5,a0
ffffffc0504043a2:	cb81                	beqz	a5,ffffffc0504043b2 <k_scheduler+0xea>
ffffffc0504043a4:	fd843783          	ld	a5,-40(s0)
ffffffc0504043a8:	579c                	lw	a5,40(a5)
ffffffc0504043aa:	873e                	mv	a4,a5
ffffffc0504043ac:	57fd                	li	a5,-1
ffffffc0504043ae:	18f70763          	beq	a4,a5,ffffffc05040453c <k_scheduler+0x274>
ffffffc0504043b2:	00004517          	auipc	a0,0x4
ffffffc0504043b6:	c8650513          	addi	a0,a0,-890 # ffffffc050408038 <ready_queue>
ffffffc0504043ba:	a93ff0ef          	jal	ra,ffffffc050403e4c <list_is_empty>
ffffffc0504043be:	87aa                	mv	a5,a0
ffffffc0504043c0:	cb81                	beqz	a5,ffffffc0504043d0 <k_scheduler+0x108>
ffffffc0504043c2:	0004e797          	auipc	a5,0x4e
ffffffc0504043c6:	a7678793          	addi	a5,a5,-1418 # ffffffc050451e38 <bubble_pcb>
ffffffc0504043ca:	fcf43823          	sd	a5,-48(s0)
ffffffc0504043ce:	a0f1                	j	ffffffc05040449a <k_scheduler+0x1d2>
ffffffc0504043d0:	00004517          	auipc	a0,0x4
ffffffc0504043d4:	c7850513          	addi	a0,a0,-904 # ffffffc050408048 <blocked_queue>
ffffffc0504043d8:	a75ff0ef          	jal	ra,ffffffc050403e4c <list_is_empty>
ffffffc0504043dc:	87aa                	mv	a5,a0
ffffffc0504043de:	e399                	bnez	a5,ffffffc0504043e4 <k_scheduler+0x11c>
ffffffc0504043e0:	726010ef          	jal	ra,ffffffc050405b06 <check_timer>
ffffffc0504043e4:	00004797          	auipc	a5,0x4
ffffffc0504043e8:	c5478793          	addi	a5,a5,-940 # ffffffc050408038 <ready_queue>
ffffffc0504043ec:	639c                	ld	a5,0(a5)
ffffffc0504043ee:	faf43c23          	sd	a5,-72(s0)
ffffffc0504043f2:	fb843783          	ld	a5,-72(s0)
ffffffc0504043f6:	fa878793          	addi	a5,a5,-88
ffffffc0504043fa:	fcf43823          	sd	a5,-48(s0)
ffffffc0504043fe:	a099                	j	ffffffc050404444 <k_scheduler+0x17c>
ffffffc050404400:	fd043783          	ld	a5,-48(s0)
ffffffc050404404:	6fbc                	ld	a5,88(a5)
ffffffc050404406:	faf43823          	sd	a5,-80(s0)
ffffffc05040440a:	fb043783          	ld	a5,-80(s0)
ffffffc05040440e:	fa878793          	addi	a5,a5,-88
ffffffc050404412:	fcf43823          	sd	a5,-48(s0)
ffffffc050404416:	fd043783          	ld	a5,-48(s0)
ffffffc05040441a:	6fb8                	ld	a4,88(a5)
ffffffc05040441c:	00004797          	auipc	a5,0x4
ffffffc050404420:	c1c78793          	addi	a5,a5,-996 # ffffffc050408038 <ready_queue>
ffffffc050404424:	02f71063          	bne	a4,a5,ffffffc050404444 <k_scheduler+0x17c>
ffffffc050404428:	fd843783          	ld	a5,-40(s0)
ffffffc05040442c:	579c                	lw	a5,40(a5)
ffffffc05040442e:	873e                	mv	a4,a5
ffffffc050404430:	57fd                	li	a5,-1
ffffffc050404432:	10f70763          	beq	a4,a5,ffffffc050404540 <k_scheduler+0x278>
ffffffc050404436:	0004e797          	auipc	a5,0x4e
ffffffc05040443a:	a0278793          	addi	a5,a5,-1534 # ffffffc050451e38 <bubble_pcb>
ffffffc05040443e:	fcf43823          	sd	a5,-48(s0)
ffffffc050404442:	a8a1                	j	ffffffc05040449a <k_scheduler+0x1d2>
ffffffc050404444:	fd043783          	ld	a5,-48(s0)
ffffffc050404448:	1a07a703          	lw	a4,416(a5)
ffffffc05040444c:	fcc42783          	lw	a5,-52(s0)
ffffffc050404450:	40f757bb          	sraw	a5,a4,a5
ffffffc050404454:	2781                	sext.w	a5,a5
ffffffc050404456:	8b85                	andi	a5,a5,1
ffffffc050404458:	2781                	sext.w	a5,a5
ffffffc05040445a:	d3dd                	beqz	a5,ffffffc050404400 <k_scheduler+0x138>
ffffffc05040445c:	fd043783          	ld	a5,-48(s0)
ffffffc050404460:	73bc                	ld	a5,96(a5)
ffffffc050404462:	4581                	li	a1,0
ffffffc050404464:	853e                	mv	a0,a5
ffffffc050404466:	d43ff0ef          	jal	ra,ffffffc0504041a8 <dequeue>
ffffffc05040446a:	fca43823          	sd	a0,-48(s0)
ffffffc05040446e:	fd043783          	ld	a5,-48(s0)
ffffffc050404472:	5798                	lw	a4,40(a5)
ffffffc050404474:	82818793          	addi	a5,gp,-2008 # ffffffc05044c9d0 <process_id>
ffffffc050404478:	c398                	sw	a4,0(a5)
ffffffc05040447a:	0004d797          	auipc	a5,0x4d
ffffffc05040447e:	4b678793          	addi	a5,a5,1206 # ffffffc050451930 <screen_cursor_x>
ffffffc050404482:	4398                	lw	a4,0(a5)
ffffffc050404484:	0004d797          	auipc	a5,0x4d
ffffffc050404488:	4b078793          	addi	a5,a5,1200 # ffffffc050451934 <screen_cursor_y>
ffffffc05040448c:	439c                	lw	a5,0(a5)
ffffffc05040448e:	85be                	mv	a1,a5
ffffffc050404490:	853a                	mv	a0,a4
ffffffc050404492:	f9bfc0ef          	jal	ra,ffffffc05040142c <pcb_move_cursor>
ffffffc050404496:	b6cfd0ef          	jal	ra,ffffffc050401802 <load_curpcb_cursor>
ffffffc05040449a:	fd043783          	ld	a5,-48(s0)
ffffffc05040449e:	4705                	li	a4,1
ffffffc0504044a0:	db98                	sw	a4,48(a5)
ffffffc0504044a2:	fcc42783          	lw	a5,-52(s0)
ffffffc0504044a6:	2781                	sext.w	a5,a5
ffffffc0504044a8:	e785                	bnez	a5,ffffffc0504044d0 <k_scheduler+0x208>
ffffffc0504044aa:	0004e797          	auipc	a5,0x4e
ffffffc0504044ae:	b6e78793          	addi	a5,a5,-1170 # ffffffc050452018 <current_running_core_m>
ffffffc0504044b2:	fd043703          	ld	a4,-48(s0)
ffffffc0504044b6:	e398                	sd	a4,0(a5)
ffffffc0504044b8:	0004e797          	auipc	a5,0x4e
ffffffc0504044bc:	b5878793          	addi	a5,a5,-1192 # ffffffc050452010 <current_running>
ffffffc0504044c0:	639c                	ld	a5,0(a5)
ffffffc0504044c2:	0004e717          	auipc	a4,0x4e
ffffffc0504044c6:	b5670713          	addi	a4,a4,-1194 # ffffffc050452018 <current_running_core_m>
ffffffc0504044ca:	6318                	ld	a4,0(a4)
ffffffc0504044cc:	e398                	sd	a4,0(a5)
ffffffc0504044ce:	a01d                	j	ffffffc0504044f4 <k_scheduler+0x22c>
ffffffc0504044d0:	00050797          	auipc	a5,0x50
ffffffc0504044d4:	85878793          	addi	a5,a5,-1960 # ffffffc050453d28 <current_running_core_s>
ffffffc0504044d8:	fd043703          	ld	a4,-48(s0)
ffffffc0504044dc:	e398                	sd	a4,0(a5)
ffffffc0504044de:	0004e797          	auipc	a5,0x4e
ffffffc0504044e2:	b3278793          	addi	a5,a5,-1230 # ffffffc050452010 <current_running>
ffffffc0504044e6:	639c                	ld	a5,0(a5)
ffffffc0504044e8:	00050717          	auipc	a4,0x50
ffffffc0504044ec:	84070713          	addi	a4,a4,-1984 # ffffffc050453d28 <current_running_core_s>
ffffffc0504044f0:	6318                	ld	a4,0(a4)
ffffffc0504044f2:	e398                	sd	a4,0(a5)
ffffffc0504044f4:	0004e797          	auipc	a5,0x4e
ffffffc0504044f8:	b1c78793          	addi	a5,a5,-1252 # ffffffc050452010 <current_running>
ffffffc0504044fc:	639c                	ld	a5,0(a5)
ffffffc0504044fe:	639c                	ld	a5,0(a5)
ffffffc050404500:	579c                	lw	a5,40(a5)
ffffffc050404502:	0007849b          	sext.w	s1,a5
ffffffc050404506:	0004e797          	auipc	a5,0x4e
ffffffc05040450a:	b0a78793          	addi	a5,a5,-1270 # ffffffc050452010 <current_running>
ffffffc05040450e:	639c                	ld	a5,0(a5)
ffffffc050404510:	639c                	ld	a5,0(a5)
ffffffc050404512:	1a87b783          	ld	a5,424(a5)
ffffffc050404516:	853e                	mv	a0,a5
ffffffc050404518:	a2fff0ef          	jal	ra,ffffffc050403f46 <kva2pa>
ffffffc05040451c:	87aa                	mv	a5,a0
ffffffc05040451e:	83b1                	srli	a5,a5,0xc
ffffffc050404520:	863e                	mv	a2,a5
ffffffc050404522:	85a6                	mv	a1,s1
ffffffc050404524:	4521                	li	a0,8
ffffffc050404526:	9cbff0ef          	jal	ra,ffffffc050403ef0 <set_satp>
ffffffc05040452a:	9b5ff0ef          	jal	ra,ffffffc050403ede <local_flush_tlb_all>
ffffffc05040452e:	fd043583          	ld	a1,-48(s0)
ffffffc050404532:	fd843503          	ld	a0,-40(s0)
ffffffc050404536:	bdffb0ef          	jal	ra,ffffffc050400114 <switch_to>
ffffffc05040453a:	a021                	j	ffffffc050404542 <k_scheduler+0x27a>
ffffffc05040453c:	0001                	nop
ffffffc05040453e:	a011                	j	ffffffc050404542 <k_scheduler+0x27a>
ffffffc050404540:	0001                	nop
ffffffc050404542:	60a6                	ld	ra,72(sp)
ffffffc050404544:	6406                	ld	s0,64(sp)
ffffffc050404546:	74e2                	ld	s1,56(sp)
ffffffc050404548:	6161                	addi	sp,sp,80
ffffffc05040454a:	8082                	ret

ffffffc05040454c <k_sleep>:
ffffffc05040454c:	7179                	addi	sp,sp,-48
ffffffc05040454e:	f406                	sd	ra,40(sp)
ffffffc050404550:	f022                	sd	s0,32(sp)
ffffffc050404552:	ec26                	sd	s1,24(sp)
ffffffc050404554:	1800                	addi	s0,sp,48
ffffffc050404556:	87aa                	mv	a5,a0
ffffffc050404558:	fcf42e23          	sw	a5,-36(s0)
ffffffc05040455c:	0004e797          	auipc	a5,0x4e
ffffffc050404560:	ab478793          	addi	a5,a5,-1356 # ffffffc050452010 <current_running>
ffffffc050404564:	639c                	ld	a5,0(a5)
ffffffc050404566:	639c                	ld	a5,0(a5)
ffffffc050404568:	05878793          	addi	a5,a5,88
ffffffc05040456c:	00004597          	auipc	a1,0x4
ffffffc050404570:	adc58593          	addi	a1,a1,-1316 # ffffffc050408048 <blocked_queue>
ffffffc050404574:	853e                	mv	a0,a5
ffffffc050404576:	042000ef          	jal	ra,ffffffc0504045b8 <k_block>
ffffffc05040457a:	fdc46483          	lwu	s1,-36(s0)
ffffffc05040457e:	406010ef          	jal	ra,ffffffc050405984 <get_time_base>
ffffffc050404582:	87aa                	mv	a5,a0
ffffffc050404584:	02f48733          	mul	a4,s1,a5
ffffffc050404588:	0004e797          	auipc	a5,0x4e
ffffffc05040458c:	a8878793          	addi	a5,a5,-1400 # ffffffc050452010 <current_running>
ffffffc050404590:	639c                	ld	a5,0(a5)
ffffffc050404592:	639c                	ld	a5,0(a5)
ffffffc050404594:	05878793          	addi	a5,a5,88
ffffffc050404598:	863e                	mv	a2,a5
ffffffc05040459a:	00000597          	auipc	a1,0x0
ffffffc05040459e:	05458593          	addi	a1,a1,84 # ffffffc0504045ee <k_unblock>
ffffffc0504045a2:	853a                	mv	a0,a4
ffffffc0504045a4:	458010ef          	jal	ra,ffffffc0504059fc <create_timer>
ffffffc0504045a8:	d21ff0ef          	jal	ra,ffffffc0504042c8 <k_scheduler>
ffffffc0504045ac:	0001                	nop
ffffffc0504045ae:	70a2                	ld	ra,40(sp)
ffffffc0504045b0:	7402                	ld	s0,32(sp)
ffffffc0504045b2:	64e2                	ld	s1,24(sp)
ffffffc0504045b4:	6145                	addi	sp,sp,48
ffffffc0504045b6:	8082                	ret

ffffffc0504045b8 <k_block>:
ffffffc0504045b8:	1101                	addi	sp,sp,-32
ffffffc0504045ba:	ec06                	sd	ra,24(sp)
ffffffc0504045bc:	e822                	sd	s0,16(sp)
ffffffc0504045be:	1000                	addi	s0,sp,32
ffffffc0504045c0:	fea43423          	sd	a0,-24(s0)
ffffffc0504045c4:	feb43023          	sd	a1,-32(s0)
ffffffc0504045c8:	fe043583          	ld	a1,-32(s0)
ffffffc0504045cc:	fe843503          	ld	a0,-24(s0)
ffffffc0504045d0:	f9eff0ef          	jal	ra,ffffffc050403d6e <list_add>
ffffffc0504045d4:	0004e797          	auipc	a5,0x4e
ffffffc0504045d8:	a3c78793          	addi	a5,a5,-1476 # ffffffc050452010 <current_running>
ffffffc0504045dc:	639c                	ld	a5,0(a5)
ffffffc0504045de:	639c                	ld	a5,0(a5)
ffffffc0504045e0:	0207a823          	sw	zero,48(a5)
ffffffc0504045e4:	0001                	nop
ffffffc0504045e6:	60e2                	ld	ra,24(sp)
ffffffc0504045e8:	6442                	ld	s0,16(sp)
ffffffc0504045ea:	6105                	addi	sp,sp,32
ffffffc0504045ec:	8082                	ret

ffffffc0504045ee <k_unblock>:
ffffffc0504045ee:	7179                	addi	sp,sp,-48
ffffffc0504045f0:	f406                	sd	ra,40(sp)
ffffffc0504045f2:	f022                	sd	s0,32(sp)
ffffffc0504045f4:	1800                	addi	s0,sp,48
ffffffc0504045f6:	fca43c23          	sd	a0,-40(s0)
ffffffc0504045fa:	87ae                	mv	a5,a1
ffffffc0504045fc:	fcf42a23          	sw	a5,-44(s0)
ffffffc050404600:	fe043423          	sd	zero,-24(s0)
ffffffc050404604:	fd442783          	lw	a5,-44(s0)
ffffffc050404608:	0007871b          	sext.w	a4,a5
ffffffc05040460c:	4791                	li	a5,4
ffffffc05040460e:	0af70a63          	beq	a4,a5,ffffffc0504046c2 <k_unblock+0xd4>
ffffffc050404612:	fd442783          	lw	a5,-44(s0)
ffffffc050404616:	0007871b          	sext.w	a4,a5
ffffffc05040461a:	4791                	li	a5,4
ffffffc05040461c:	0ce7c863          	blt	a5,a4,ffffffc0504046ec <k_unblock+0xfe>
ffffffc050404620:	fd442783          	lw	a5,-44(s0)
ffffffc050404624:	0007871b          	sext.w	a4,a5
ffffffc050404628:	478d                	li	a5,3
ffffffc05040462a:	08f70263          	beq	a4,a5,ffffffc0504046ae <k_unblock+0xc0>
ffffffc05040462e:	fd442783          	lw	a5,-44(s0)
ffffffc050404632:	0007871b          	sext.w	a4,a5
ffffffc050404636:	478d                	li	a5,3
ffffffc050404638:	0ae7ca63          	blt	a5,a4,ffffffc0504046ec <k_unblock+0xfe>
ffffffc05040463c:	fd442783          	lw	a5,-44(s0)
ffffffc050404640:	0007871b          	sext.w	a4,a5
ffffffc050404644:	4785                	li	a5,1
ffffffc050404646:	00f70a63          	beq	a4,a5,ffffffc05040465a <k_unblock+0x6c>
ffffffc05040464a:	fd442783          	lw	a5,-44(s0)
ffffffc05040464e:	0007871b          	sext.w	a4,a5
ffffffc050404652:	4789                	li	a5,2
ffffffc050404654:	02f70863          	beq	a4,a5,ffffffc050404684 <k_unblock+0x96>
ffffffc050404658:	a851                	j	ffffffc0504046ec <k_unblock+0xfe>
ffffffc05040465a:	fd843783          	ld	a5,-40(s0)
ffffffc05040465e:	679c                	ld	a5,8(a5)
ffffffc050404660:	4581                	li	a1,0
ffffffc050404662:	853e                	mv	a0,a5
ffffffc050404664:	b45ff0ef          	jal	ra,ffffffc0504041a8 <dequeue>
ffffffc050404668:	fea43423          	sd	a0,-24(s0)
ffffffc05040466c:	fe843783          	ld	a5,-24(s0)
ffffffc050404670:	05878793          	addi	a5,a5,88
ffffffc050404674:	00004597          	auipc	a1,0x4
ffffffc050404678:	9c458593          	addi	a1,a1,-1596 # ffffffc050408038 <ready_queue>
ffffffc05040467c:	853e                	mv	a0,a5
ffffffc05040467e:	f1eff0ef          	jal	ra,ffffffc050403d9c <list_add_tail>
ffffffc050404682:	a0b5                	j	ffffffc0504046ee <k_unblock+0x100>
ffffffc050404684:	fd843783          	ld	a5,-40(s0)
ffffffc050404688:	679c                	ld	a5,8(a5)
ffffffc05040468a:	4581                	li	a1,0
ffffffc05040468c:	853e                	mv	a0,a5
ffffffc05040468e:	b1bff0ef          	jal	ra,ffffffc0504041a8 <dequeue>
ffffffc050404692:	fea43423          	sd	a0,-24(s0)
ffffffc050404696:	fe843783          	ld	a5,-24(s0)
ffffffc05040469a:	05878793          	addi	a5,a5,88
ffffffc05040469e:	00004597          	auipc	a1,0x4
ffffffc0504046a2:	99a58593          	addi	a1,a1,-1638 # ffffffc050408038 <ready_queue>
ffffffc0504046a6:	853e                	mv	a0,a5
ffffffc0504046a8:	ec6ff0ef          	jal	ra,ffffffc050403d6e <list_add>
ffffffc0504046ac:	a089                	j	ffffffc0504046ee <k_unblock+0x100>
ffffffc0504046ae:	fd843783          	ld	a5,-40(s0)
ffffffc0504046b2:	679c                	ld	a5,8(a5)
ffffffc0504046b4:	4581                	li	a1,0
ffffffc0504046b6:	853e                	mv	a0,a5
ffffffc0504046b8:	af1ff0ef          	jal	ra,ffffffc0504041a8 <dequeue>
ffffffc0504046bc:	fea43423          	sd	a0,-24(s0)
ffffffc0504046c0:	a03d                	j	ffffffc0504046ee <k_unblock+0x100>
ffffffc0504046c2:	fd843783          	ld	a5,-40(s0)
ffffffc0504046c6:	679c                	ld	a5,8(a5)
ffffffc0504046c8:	4589                	li	a1,2
ffffffc0504046ca:	853e                	mv	a0,a5
ffffffc0504046cc:	addff0ef          	jal	ra,ffffffc0504041a8 <dequeue>
ffffffc0504046d0:	fea43423          	sd	a0,-24(s0)
ffffffc0504046d4:	fe843783          	ld	a5,-24(s0)
ffffffc0504046d8:	05878793          	addi	a5,a5,88
ffffffc0504046dc:	00004597          	auipc	a1,0x4
ffffffc0504046e0:	95c58593          	addi	a1,a1,-1700 # ffffffc050408038 <ready_queue>
ffffffc0504046e4:	853e                	mv	a0,a5
ffffffc0504046e6:	eb6ff0ef          	jal	ra,ffffffc050403d9c <list_add_tail>
ffffffc0504046ea:	a011                	j	ffffffc0504046ee <k_unblock+0x100>
ffffffc0504046ec:	0001                	nop
ffffffc0504046ee:	fe843783          	ld	a5,-24(s0)
ffffffc0504046f2:	4709                	li	a4,2
ffffffc0504046f4:	db98                	sw	a4,48(a5)
ffffffc0504046f6:	0001                	nop
ffffffc0504046f8:	70a2                	ld	ra,40(sp)
ffffffc0504046fa:	7402                	ld	s0,32(sp)
ffffffc0504046fc:	6145                	addi	sp,sp,48
ffffffc0504046fe:	8082                	ret

ffffffc050404700 <find_pcb>:
ffffffc050404700:	1101                	addi	sp,sp,-32
ffffffc050404702:	ec22                	sd	s0,24(sp)
ffffffc050404704:	1000                	addi	s0,sp,32
ffffffc050404706:	4785                	li	a5,1
ffffffc050404708:	fef42623          	sw	a5,-20(s0)
ffffffc05040470c:	a035                	j	ffffffc050404738 <find_pcb+0x38>
ffffffc05040470e:	0004e717          	auipc	a4,0x4e
ffffffc050404712:	91270713          	addi	a4,a4,-1774 # ffffffc050452020 <pcb>
ffffffc050404716:	fec42683          	lw	a3,-20(s0)
ffffffc05040471a:	1d000793          	li	a5,464
ffffffc05040471e:	02f687b3          	mul	a5,a3,a5
ffffffc050404722:	97ba                	add	a5,a5,a4
ffffffc050404724:	579c                	lw	a5,40(a5)
ffffffc050404726:	e781                	bnez	a5,ffffffc05040472e <find_pcb+0x2e>
ffffffc050404728:	fec42783          	lw	a5,-20(s0)
ffffffc05040472c:	a831                	j	ffffffc050404748 <find_pcb+0x48>
ffffffc05040472e:	fec42783          	lw	a5,-20(s0)
ffffffc050404732:	2785                	addiw	a5,a5,1
ffffffc050404734:	fef42623          	sw	a5,-20(s0)
ffffffc050404738:	fec42783          	lw	a5,-20(s0)
ffffffc05040473c:	0007871b          	sext.w	a4,a5
ffffffc050404740:	47bd                	li	a5,15
ffffffc050404742:	fce7d6e3          	bge	a5,a4,ffffffc05040470e <find_pcb+0xe>
ffffffc050404746:	57fd                	li	a5,-1
ffffffc050404748:	853e                	mv	a0,a5
ffffffc05040474a:	6462                	ld	s0,24(sp)
ffffffc05040474c:	6105                	addi	sp,sp,32
ffffffc05040474e:	8082                	ret

ffffffc050404750 <k_fork>:
ffffffc050404750:	7179                	addi	sp,sp,-48
ffffffc050404752:	f406                	sd	ra,40(sp)
ffffffc050404754:	f022                	sd	s0,32(sp)
ffffffc050404756:	1800                	addi	s0,sp,48
ffffffc050404758:	fa9ff0ef          	jal	ra,ffffffc050404700 <find_pcb>
ffffffc05040475c:	87aa                	mv	a5,a0
ffffffc05040475e:	fef42623          	sw	a5,-20(s0)
ffffffc050404762:	fec42783          	lw	a5,-20(s0)
ffffffc050404766:	0007871b          	sext.w	a4,a5
ffffffc05040476a:	57fd                	li	a5,-1
ffffffc05040476c:	00f71463          	bne	a4,a5,ffffffc050404774 <k_fork+0x24>
ffffffc050404770:	57fd                	li	a5,-1
ffffffc050404772:	a215                	j	ffffffc050404896 <k_fork+0x146>
ffffffc050404774:	0004e797          	auipc	a5,0x4e
ffffffc050404778:	89c78793          	addi	a5,a5,-1892 # ffffffc050452010 <current_running>
ffffffc05040477c:	639c                	ld	a5,0(a5)
ffffffc05040477e:	639c                	ld	a5,0(a5)
ffffffc050404780:	fef43023          	sd	a5,-32(s0)
ffffffc050404784:	fec42703          	lw	a4,-20(s0)
ffffffc050404788:	1d000793          	li	a5,464
ffffffc05040478c:	02f70733          	mul	a4,a4,a5
ffffffc050404790:	0004e797          	auipc	a5,0x4e
ffffffc050404794:	89078793          	addi	a5,a5,-1904 # ffffffc050452020 <pcb>
ffffffc050404798:	97ba                	add	a5,a5,a4
ffffffc05040479a:	fcf43c23          	sd	a5,-40(s0)
ffffffc05040479e:	fd843503          	ld	a0,-40(s0)
ffffffc0504047a2:	924fc0ef          	jal	ra,ffffffc0504008c6 <init_pcb_stack_pointer>
ffffffc0504047a6:	fe043783          	ld	a5,-32(s0)
ffffffc0504047aa:	6bb8                	ld	a4,80(a5)
ffffffc0504047ac:	fd843783          	ld	a5,-40(s0)
ffffffc0504047b0:	ebb8                	sd	a4,80(a5)
ffffffc0504047b2:	fd843783          	ld	a5,-40(s0)
ffffffc0504047b6:	05878793          	addi	a5,a5,88
ffffffc0504047ba:	853e                	mv	a0,a5
ffffffc0504047bc:	d28ff0ef          	jal	ra,ffffffc050403ce4 <init_list_head>
ffffffc0504047c0:	0004e797          	auipc	a5,0x4e
ffffffc0504047c4:	85078793          	addi	a5,a5,-1968 # ffffffc050452010 <current_running>
ffffffc0504047c8:	639c                	ld	a5,0(a5)
ffffffc0504047ca:	6398                	ld	a4,0(a5)
ffffffc0504047cc:	fd843783          	ld	a5,-40(s0)
ffffffc0504047d0:	f7b8                	sd	a4,104(a5)
ffffffc0504047d2:	fd843783          	ld	a5,-40(s0)
ffffffc0504047d6:	fec42703          	lw	a4,-20(s0)
ffffffc0504047da:	d798                	sw	a4,40(a5)
ffffffc0504047dc:	fd843783          	ld	a5,-40(s0)
ffffffc0504047e0:	1407a423          	sw	zero,328(a5)
ffffffc0504047e4:	fd843783          	ld	a5,-40(s0)
ffffffc0504047e8:	1807ae23          	sw	zero,412(a5)
ffffffc0504047ec:	fe043783          	ld	a5,-32(s0)
ffffffc0504047f0:	57d8                	lw	a4,44(a5)
ffffffc0504047f2:	fd843783          	ld	a5,-40(s0)
ffffffc0504047f6:	d7d8                	sw	a4,44(a5)
ffffffc0504047f8:	fd843783          	ld	a5,-40(s0)
ffffffc0504047fc:	4709                	li	a4,2
ffffffc0504047fe:	db98                	sw	a4,48(a5)
ffffffc050404800:	fe043783          	ld	a5,-32(s0)
ffffffc050404804:	5f98                	lw	a4,56(a5)
ffffffc050404806:	fd843783          	ld	a5,-40(s0)
ffffffc05040480a:	df98                	sw	a4,56(a5)
ffffffc05040480c:	fe043783          	ld	a5,-32(s0)
ffffffc050404810:	5fdc                	lw	a5,60(a5)
ffffffc050404812:	2785                	addiw	a5,a5,1
ffffffc050404814:	0007871b          	sext.w	a4,a5
ffffffc050404818:	fd843783          	ld	a5,-40(s0)
ffffffc05040481c:	dfd8                	sw	a4,60(a5)
ffffffc05040481e:	fe043783          	ld	a5,-32(s0)
ffffffc050404822:	0807a703          	lw	a4,128(a5)
ffffffc050404826:	fd843783          	ld	a5,-40(s0)
ffffffc05040482a:	08e7a023          	sw	a4,128(a5)
ffffffc05040482e:	fd843783          	ld	a5,-40(s0)
ffffffc050404832:	0407b423          	sd	zero,72(a5)
ffffffc050404836:	fd843783          	ld	a5,-40(s0)
ffffffc05040483a:	0407b023          	sd	zero,64(a5)
ffffffc05040483e:	0004d797          	auipc	a5,0x4d
ffffffc050404842:	7d278793          	addi	a5,a5,2002 # ffffffc050452010 <current_running>
ffffffc050404846:	639c                	ld	a5,0(a5)
ffffffc050404848:	639c                	ld	a5,0(a5)
ffffffc05040484a:	1a07a703          	lw	a4,416(a5)
ffffffc05040484e:	fd843783          	ld	a5,-40(s0)
ffffffc050404852:	1ae7a023          	sw	a4,416(a5)
ffffffc050404856:	fd843783          	ld	a5,-40(s0)
ffffffc05040485a:	6388                	ld	a0,0(a5)
ffffffc05040485c:	fd843783          	ld	a5,-40(s0)
ffffffc050404860:	6b8c                	ld	a1,16(a5)
ffffffc050404862:	fe043783          	ld	a5,-32(s0)
ffffffc050404866:	6394                	ld	a3,0(a5)
ffffffc050404868:	fe043783          	ld	a5,-32(s0)
ffffffc05040486c:	6b98                	ld	a4,16(a5)
ffffffc05040486e:	fe043783          	ld	a5,-32(s0)
ffffffc050404872:	fd843603          	ld	a2,-40(s0)
ffffffc050404876:	02a000ef          	jal	ra,ffffffc0504048a0 <copy_pcb_stack>
ffffffc05040487a:	fd843783          	ld	a5,-40(s0)
ffffffc05040487e:	05878793          	addi	a5,a5,88
ffffffc050404882:	00003597          	auipc	a1,0x3
ffffffc050404886:	7b658593          	addi	a1,a1,1974 # ffffffc050408038 <ready_queue>
ffffffc05040488a:	853e                	mv	a0,a5
ffffffc05040488c:	d10ff0ef          	jal	ra,ffffffc050403d9c <list_add_tail>
ffffffc050404890:	fd843783          	ld	a5,-40(s0)
ffffffc050404894:	579c                	lw	a5,40(a5)
ffffffc050404896:	853e                	mv	a0,a5
ffffffc050404898:	70a2                	ld	ra,40(sp)
ffffffc05040489a:	7402                	ld	s0,32(sp)
ffffffc05040489c:	6145                	addi	sp,sp,48
ffffffc05040489e:	8082                	ret

ffffffc0504048a0 <copy_pcb_stack>:
ffffffc0504048a0:	7159                	addi	sp,sp,-112
ffffffc0504048a2:	f486                	sd	ra,104(sp)
ffffffc0504048a4:	f0a2                	sd	s0,96(sp)
ffffffc0504048a6:	1880                	addi	s0,sp,112
ffffffc0504048a8:	faa43c23          	sd	a0,-72(s0)
ffffffc0504048ac:	fab43823          	sd	a1,-80(s0)
ffffffc0504048b0:	fac43423          	sd	a2,-88(s0)
ffffffc0504048b4:	fad43023          	sd	a3,-96(s0)
ffffffc0504048b8:	f8e43c23          	sd	a4,-104(s0)
ffffffc0504048bc:	f8f43823          	sd	a5,-112(s0)
ffffffc0504048c0:	fb843783          	ld	a5,-72(s0)
ffffffc0504048c4:	e6878713          	addi	a4,a5,-408
ffffffc0504048c8:	fa843783          	ld	a5,-88(s0)
ffffffc0504048cc:	e398                	sd	a4,0(a5)
ffffffc0504048ce:	fa843783          	ld	a5,-88(s0)
ffffffc0504048d2:	639c                	ld	a5,0(a5)
ffffffc0504048d4:	fef43023          	sd	a5,-32(s0)
ffffffc0504048d8:	f9043783          	ld	a5,-112(s0)
ffffffc0504048dc:	639c                	ld	a5,0(a5)
ffffffc0504048de:	fcf43c23          	sd	a5,-40(s0)
ffffffc0504048e2:	fb843783          	ld	a5,-72(s0)
ffffffc0504048e6:	ed878793          	addi	a5,a5,-296
ffffffc0504048ea:	fcf43823          	sd	a5,-48(s0)
ffffffc0504048ee:	fa043783          	ld	a5,-96(s0)
ffffffc0504048f2:	07078793          	addi	a5,a5,112
ffffffc0504048f6:	fcf43423          	sd	a5,-56(s0)
ffffffc0504048fa:	fa843783          	ld	a5,-88(s0)
ffffffc0504048fe:	6b98                	ld	a4,16(a5)
ffffffc050404900:	f9043783          	ld	a5,-112(s0)
ffffffc050404904:	6b9c                	ld	a5,16(a5)
ffffffc050404906:	8f1d                	sub	a4,a4,a5
ffffffc050404908:	fc843783          	ld	a5,-56(s0)
ffffffc05040490c:	63bc                	ld	a5,64(a5)
ffffffc05040490e:	973e                	add	a4,a4,a5
ffffffc050404910:	fa843783          	ld	a5,-88(s0)
ffffffc050404914:	eb98                	sd	a4,16(a5)
ffffffc050404916:	fa843783          	ld	a5,-88(s0)
ffffffc05040491a:	6b9c                	ld	a5,16(a5)
ffffffc05040491c:	86be                	mv	a3,a5
ffffffc05040491e:	f9043783          	ld	a5,-112(s0)
ffffffc050404922:	6b9c                	ld	a5,16(a5)
ffffffc050404924:	85be                	mv	a1,a5
ffffffc050404926:	f9043783          	ld	a5,-112(s0)
ffffffc05040492a:	6b9c                	ld	a5,16(a5)
ffffffc05040492c:	2781                	sext.w	a5,a5
ffffffc05040492e:	873e                	mv	a4,a5
ffffffc050404930:	6785                	lui	a5,0x1
ffffffc050404932:	17fd                	addi	a5,a5,-1
ffffffc050404934:	8ff9                	and	a5,a5,a4
ffffffc050404936:	2781                	sext.w	a5,a5
ffffffc050404938:	6705                	lui	a4,0x1
ffffffc05040493a:	40f707bb          	subw	a5,a4,a5
ffffffc05040493e:	2781                	sext.w	a5,a5
ffffffc050404940:	863e                	mv	a2,a5
ffffffc050404942:	8536                	mv	a0,a3
ffffffc050404944:	7cf010ef          	jal	ra,ffffffc050406912 <memcpy>
ffffffc050404948:	fa843783          	ld	a5,-88(s0)
ffffffc05040494c:	6798                	ld	a4,8(a5)
ffffffc05040494e:	f9043783          	ld	a5,-112(s0)
ffffffc050404952:	679c                	ld	a5,8(a5)
ffffffc050404954:	8f1d                	sub	a4,a4,a5
ffffffc050404956:	fc843783          	ld	a5,-56(s0)
ffffffc05040495a:	63bc                	ld	a5,64(a5)
ffffffc05040495c:	973e                	add	a4,a4,a5
ffffffc05040495e:	fa843783          	ld	a5,-88(s0)
ffffffc050404962:	e798                	sd	a4,8(a5)
ffffffc050404964:	fa843783          	ld	a5,-88(s0)
ffffffc050404968:	679c                	ld	a5,8(a5)
ffffffc05040496a:	86be                	mv	a3,a5
ffffffc05040496c:	f9043783          	ld	a5,-112(s0)
ffffffc050404970:	679c                	ld	a5,8(a5)
ffffffc050404972:	85be                	mv	a1,a5
ffffffc050404974:	f9043783          	ld	a5,-112(s0)
ffffffc050404978:	679c                	ld	a5,8(a5)
ffffffc05040497a:	2781                	sext.w	a5,a5
ffffffc05040497c:	873e                	mv	a4,a5
ffffffc05040497e:	6785                	lui	a5,0x1
ffffffc050404980:	17fd                	addi	a5,a5,-1
ffffffc050404982:	8ff9                	and	a5,a5,a4
ffffffc050404984:	2781                	sext.w	a5,a5
ffffffc050404986:	6705                	lui	a4,0x1
ffffffc050404988:	40f707bb          	subw	a5,a4,a5
ffffffc05040498c:	2781                	sext.w	a5,a5
ffffffc05040498e:	863e                	mv	a2,a5
ffffffc050404990:	8536                	mv	a0,a3
ffffffc050404992:	781010ef          	jal	ra,ffffffc050406912 <memcpy>
ffffffc050404996:	ffffb717          	auipc	a4,0xffffb
ffffffc05040499a:	7c670713          	addi	a4,a4,1990 # ffffffc05040015c <ret_from_exception>
ffffffc05040499e:	fe043783          	ld	a5,-32(s0)
ffffffc0504049a2:	e398                	sd	a4,0(a5)
ffffffc0504049a4:	fd843783          	ld	a5,-40(s0)
ffffffc0504049a8:	6b98                	ld	a4,16(a5)
ffffffc0504049aa:	6785                	lui	a5,0x1
ffffffc0504049ac:	17fd                	addi	a5,a5,-1
ffffffc0504049ae:	8f7d                	and	a4,a4,a5
ffffffc0504049b0:	fb843783          	ld	a5,-72(s0)
ffffffc0504049b4:	973e                	add	a4,a4,a5
ffffffc0504049b6:	77fd                	lui	a5,0xfffff
ffffffc0504049b8:	973e                	add	a4,a4,a5
ffffffc0504049ba:	fe043783          	ld	a5,-32(s0)
ffffffc0504049be:	eb98                	sd	a4,16(a5)
ffffffc0504049c0:	fd843783          	ld	a5,-40(s0)
ffffffc0504049c4:	6798                	ld	a4,8(a5)
ffffffc0504049c6:	6785                	lui	a5,0x1
ffffffc0504049c8:	17fd                	addi	a5,a5,-1
ffffffc0504049ca:	8f7d                	and	a4,a4,a5
ffffffc0504049cc:	fb843783          	ld	a5,-72(s0)
ffffffc0504049d0:	973e                	add	a4,a4,a5
ffffffc0504049d2:	77fd                	lui	a5,0xfffff
ffffffc0504049d4:	973e                	add	a4,a4,a5
ffffffc0504049d6:	fe043783          	ld	a5,-32(s0)
ffffffc0504049da:	e798                	sd	a4,8(a5)
ffffffc0504049dc:	fe043783          	ld	a5,-32(s0)
ffffffc0504049e0:	679c                	ld	a5,8(a5)
ffffffc0504049e2:	86be                	mv	a3,a5
ffffffc0504049e4:	fd843783          	ld	a5,-40(s0)
ffffffc0504049e8:	679c                	ld	a5,8(a5)
ffffffc0504049ea:	85be                	mv	a1,a5
ffffffc0504049ec:	fd843783          	ld	a5,-40(s0)
ffffffc0504049f0:	679c                	ld	a5,8(a5)
ffffffc0504049f2:	2781                	sext.w	a5,a5
ffffffc0504049f4:	873e                	mv	a4,a5
ffffffc0504049f6:	6785                	lui	a5,0x1
ffffffc0504049f8:	17fd                	addi	a5,a5,-1
ffffffc0504049fa:	8ff9                	and	a5,a5,a4
ffffffc0504049fc:	2781                	sext.w	a5,a5
ffffffc0504049fe:	6705                	lui	a4,0x1
ffffffc050404a00:	e687071b          	addiw	a4,a4,-408
ffffffc050404a04:	40f707bb          	subw	a5,a4,a5
ffffffc050404a08:	2781                	sext.w	a5,a5
ffffffc050404a0a:	863e                	mv	a2,a5
ffffffc050404a0c:	8536                	mv	a0,a3
ffffffc050404a0e:	705010ef          	jal	ra,ffffffc050406912 <memcpy>
ffffffc050404a12:	4789                	li	a5,2
ffffffc050404a14:	fef42623          	sw	a5,-20(s0)
ffffffc050404a18:	a025                	j	ffffffc050404a40 <copy_pcb_stack+0x1a0>
ffffffc050404a1a:	fd843703          	ld	a4,-40(s0)
ffffffc050404a1e:	fec42783          	lw	a5,-20(s0)
ffffffc050404a22:	078e                	slli	a5,a5,0x3
ffffffc050404a24:	97ba                	add	a5,a5,a4
ffffffc050404a26:	6398                	ld	a4,0(a5)
ffffffc050404a28:	fe043683          	ld	a3,-32(s0)
ffffffc050404a2c:	fec42783          	lw	a5,-20(s0)
ffffffc050404a30:	078e                	slli	a5,a5,0x3
ffffffc050404a32:	97b6                	add	a5,a5,a3
ffffffc050404a34:	e398                	sd	a4,0(a5)
ffffffc050404a36:	fec42783          	lw	a5,-20(s0)
ffffffc050404a3a:	2785                	addiw	a5,a5,1
ffffffc050404a3c:	fef42623          	sw	a5,-20(s0)
ffffffc050404a40:	fec42783          	lw	a5,-20(s0)
ffffffc050404a44:	0007871b          	sext.w	a4,a5
ffffffc050404a48:	47b5                	li	a5,13
ffffffc050404a4a:	fce7d8e3          	bge	a5,a4,ffffffc050404a1a <copy_pcb_stack+0x17a>
ffffffc050404a4e:	fe042423          	sw	zero,-24(s0)
ffffffc050404a52:	a025                	j	ffffffc050404a7a <copy_pcb_stack+0x1da>
ffffffc050404a54:	fc843703          	ld	a4,-56(s0)
ffffffc050404a58:	fe842783          	lw	a5,-24(s0)
ffffffc050404a5c:	078e                	slli	a5,a5,0x3
ffffffc050404a5e:	97ba                	add	a5,a5,a4
ffffffc050404a60:	6398                	ld	a4,0(a5)
ffffffc050404a62:	fd043683          	ld	a3,-48(s0)
ffffffc050404a66:	fe842783          	lw	a5,-24(s0)
ffffffc050404a6a:	078e                	slli	a5,a5,0x3
ffffffc050404a6c:	97b6                	add	a5,a5,a3
ffffffc050404a6e:	e398                	sd	a4,0(a5)
ffffffc050404a70:	fe842783          	lw	a5,-24(s0)
ffffffc050404a74:	2785                	addiw	a5,a5,1
ffffffc050404a76:	fef42423          	sw	a5,-24(s0)
ffffffc050404a7a:	fe842783          	lw	a5,-24(s0)
ffffffc050404a7e:	0007871b          	sext.w	a4,a5
ffffffc050404a82:	47fd                	li	a5,31
ffffffc050404a84:	fce7d8e3          	bge	a5,a4,ffffffc050404a54 <copy_pcb_stack+0x1b4>
ffffffc050404a88:	fa843783          	ld	a5,-88(s0)
ffffffc050404a8c:	6798                	ld	a4,8(a5)
ffffffc050404a8e:	f9043783          	ld	a5,-112(s0)
ffffffc050404a92:	679c                	ld	a5,8(a5)
ffffffc050404a94:	8f1d                	sub	a4,a4,a5
ffffffc050404a96:	fc843783          	ld	a5,-56(s0)
ffffffc050404a9a:	63bc                	ld	a5,64(a5)
ffffffc050404a9c:	973e                	add	a4,a4,a5
ffffffc050404a9e:	fd043783          	ld	a5,-48(s0)
ffffffc050404aa2:	e3b8                	sd	a4,64(a5)
ffffffc050404aa4:	fd043783          	ld	a5,-48(s0)
ffffffc050404aa8:	0407b823          	sd	zero,80(a5) # 1050 <_start-0xffffffc0503fefb0>
ffffffc050404aac:	fc843783          	ld	a5,-56(s0)
ffffffc050404ab0:	1087b703          	ld	a4,264(a5)
ffffffc050404ab4:	fd043783          	ld	a5,-48(s0)
ffffffc050404ab8:	10e7b423          	sd	a4,264(a5)
ffffffc050404abc:	fc843783          	ld	a5,-56(s0)
ffffffc050404ac0:	1187b703          	ld	a4,280(a5)
ffffffc050404ac4:	fd043783          	ld	a5,-48(s0)
ffffffc050404ac8:	10e7bc23          	sd	a4,280(a5)
ffffffc050404acc:	fc843783          	ld	a5,-56(s0)
ffffffc050404ad0:	1107b703          	ld	a4,272(a5)
ffffffc050404ad4:	fd043783          	ld	a5,-48(s0)
ffffffc050404ad8:	10e7b823          	sd	a4,272(a5)
ffffffc050404adc:	fc843783          	ld	a5,-56(s0)
ffffffc050404ae0:	1207b703          	ld	a4,288(a5)
ffffffc050404ae4:	fd043783          	ld	a5,-48(s0)
ffffffc050404ae8:	12e7b023          	sd	a4,288(a5)
ffffffc050404aec:	fc843783          	ld	a5,-56(s0)
ffffffc050404af0:	1007b703          	ld	a4,256(a5)
ffffffc050404af4:	fd043783          	ld	a5,-48(s0)
ffffffc050404af8:	10e7b023          	sd	a4,256(a5)
ffffffc050404afc:	0001                	nop
ffffffc050404afe:	70a6                	ld	ra,104(sp)
ffffffc050404b00:	7406                	ld	s0,96(sp)
ffffffc050404b02:	6165                	addi	sp,sp,112
ffffffc050404b04:	8082                	ret

ffffffc050404b06 <set_priority>:
ffffffc050404b06:	1101                	addi	sp,sp,-32
ffffffc050404b08:	ec22                	sd	s0,24(sp)
ffffffc050404b0a:	1000                	addi	s0,sp,32
ffffffc050404b0c:	fea43423          	sd	a0,-24(s0)
ffffffc050404b10:	0004d797          	auipc	a5,0x4d
ffffffc050404b14:	50078793          	addi	a5,a5,1280 # ffffffc050452010 <current_running>
ffffffc050404b18:	639c                	ld	a5,0(a5)
ffffffc050404b1a:	639c                	ld	a5,0(a5)
ffffffc050404b1c:	fe843703          	ld	a4,-24(s0)
ffffffc050404b20:	e3b8                	sd	a4,64(a5)
ffffffc050404b22:	0001                	nop
ffffffc050404b24:	6462                	ld	s0,24(sp)
ffffffc050404b26:	6105                	addi	sp,sp,32
ffffffc050404b28:	8082                	ret

ffffffc050404b2a <cal_priority>:
ffffffc050404b2a:	715d                	addi	sp,sp,-80
ffffffc050404b2c:	e4a2                	sd	s0,72(sp)
ffffffc050404b2e:	0880                	addi	s0,sp,80
ffffffc050404b30:	fca43423          	sd	a0,-56(s0)
ffffffc050404b34:	fcb43023          	sd	a1,-64(s0)
ffffffc050404b38:	fac43c23          	sd	a2,-72(s0)
ffffffc050404b3c:	fc843703          	ld	a4,-56(s0)
ffffffc050404b40:	06400793          	li	a5,100
ffffffc050404b44:	02f757b3          	divu	a5,a4,a5
ffffffc050404b48:	fef43423          	sd	a5,-24(s0)
ffffffc050404b4c:	4785                	li	a5,1
ffffffc050404b4e:	fef43023          	sd	a5,-32(s0)
ffffffc050404b52:	a005                	j	ffffffc050404b72 <cal_priority+0x48>
ffffffc050404b54:	fe843703          	ld	a4,-24(s0)
ffffffc050404b58:	47a9                	li	a5,10
ffffffc050404b5a:	02f757b3          	divu	a5,a4,a5
ffffffc050404b5e:	fef43423          	sd	a5,-24(s0)
ffffffc050404b62:	fe043703          	ld	a4,-32(s0)
ffffffc050404b66:	87ba                	mv	a5,a4
ffffffc050404b68:	078a                	slli	a5,a5,0x2
ffffffc050404b6a:	97ba                	add	a5,a5,a4
ffffffc050404b6c:	0786                	slli	a5,a5,0x1
ffffffc050404b6e:	fef43023          	sd	a5,-32(s0)
ffffffc050404b72:	fe843703          	ld	a4,-24(s0)
ffffffc050404b76:	47a9                	li	a5,10
ffffffc050404b78:	fce7eee3          	bltu	a5,a4,ffffffc050404b54 <cal_priority+0x2a>
ffffffc050404b7c:	fc843703          	ld	a4,-56(s0)
ffffffc050404b80:	fc043783          	ld	a5,-64(s0)
ffffffc050404b84:	8f1d                	sub	a4,a4,a5
ffffffc050404b86:	fb843683          	ld	a3,-72(s0)
ffffffc050404b8a:	fe043783          	ld	a5,-32(s0)
ffffffc050404b8e:	02f687b3          	mul	a5,a3,a5
ffffffc050404b92:	97ba                	add	a5,a5,a4
ffffffc050404b94:	fcf43c23          	sd	a5,-40(s0)
ffffffc050404b98:	fd843783          	ld	a5,-40(s0)
ffffffc050404b9c:	853e                	mv	a0,a5
ffffffc050404b9e:	6426                	ld	s0,72(sp)
ffffffc050404ba0:	6161                	addi	sp,sp,80
ffffffc050404ba2:	8082                	ret

ffffffc050404ba4 <choose_sched_task>:
ffffffc050404ba4:	711d                	addi	sp,sp,-96
ffffffc050404ba6:	ec86                	sd	ra,88(sp)
ffffffc050404ba8:	e8a2                	sd	s0,80(sp)
ffffffc050404baa:	1080                	addi	s0,sp,96
ffffffc050404bac:	faa43423          	sd	a0,-88(s0)
ffffffc050404bb0:	591000ef          	jal	ra,ffffffc050405940 <get_ticks>
ffffffc050404bb4:	fca43823          	sd	a0,-48(s0)
ffffffc050404bb8:	fe043423          	sd	zero,-24(s0)
ffffffc050404bbc:	fc043423          	sd	zero,-56(s0)
ffffffc050404bc0:	fa843783          	ld	a5,-88(s0)
ffffffc050404bc4:	639c                	ld	a5,0(a5)
ffffffc050404bc6:	fef43023          	sd	a5,-32(s0)
ffffffc050404bca:	fc043c23          	sd	zero,-40(s0)
ffffffc050404bce:	fe043783          	ld	a5,-32(s0)
ffffffc050404bd2:	639c                	ld	a5,0(a5)
ffffffc050404bd4:	fa843703          	ld	a4,-88(s0)
ffffffc050404bd8:	06f71863          	bne	a4,a5,ffffffc050404c48 <choose_sched_task+0xa4>
ffffffc050404bdc:	fe043783          	ld	a5,-32(s0)
ffffffc050404be0:	faf43823          	sd	a5,-80(s0)
ffffffc050404be4:	fb043783          	ld	a5,-80(s0)
ffffffc050404be8:	fa878793          	addi	a5,a5,-88
ffffffc050404bec:	fcf43c23          	sd	a5,-40(s0)
ffffffc050404bf0:	a09d                	j	ffffffc050404c56 <choose_sched_task+0xb2>
ffffffc050404bf2:	fe043783          	ld	a5,-32(s0)
ffffffc050404bf6:	fcf43023          	sd	a5,-64(s0)
ffffffc050404bfa:	fc043783          	ld	a5,-64(s0)
ffffffc050404bfe:	fa878793          	addi	a5,a5,-88
ffffffc050404c02:	faf43c23          	sd	a5,-72(s0)
ffffffc050404c06:	fb843783          	ld	a5,-72(s0)
ffffffc050404c0a:	67b8                	ld	a4,72(a5)
ffffffc050404c0c:	fb843783          	ld	a5,-72(s0)
ffffffc050404c10:	63bc                	ld	a5,64(a5)
ffffffc050404c12:	863e                	mv	a2,a5
ffffffc050404c14:	85ba                	mv	a1,a4
ffffffc050404c16:	fd043503          	ld	a0,-48(s0)
ffffffc050404c1a:	f11ff0ef          	jal	ra,ffffffc050404b2a <cal_priority>
ffffffc050404c1e:	fca43423          	sd	a0,-56(s0)
ffffffc050404c22:	fe843703          	ld	a4,-24(s0)
ffffffc050404c26:	fc843783          	ld	a5,-56(s0)
ffffffc050404c2a:	00f77a63          	bgeu	a4,a5,ffffffc050404c3e <choose_sched_task+0x9a>
ffffffc050404c2e:	fc843783          	ld	a5,-56(s0)
ffffffc050404c32:	fef43423          	sd	a5,-24(s0)
ffffffc050404c36:	fb843783          	ld	a5,-72(s0)
ffffffc050404c3a:	fcf43c23          	sd	a5,-40(s0)
ffffffc050404c3e:	fe043783          	ld	a5,-32(s0)
ffffffc050404c42:	639c                	ld	a5,0(a5)
ffffffc050404c44:	fef43023          	sd	a5,-32(s0)
ffffffc050404c48:	fe043783          	ld	a5,-32(s0)
ffffffc050404c4c:	639c                	ld	a5,0(a5)
ffffffc050404c4e:	fa843703          	ld	a4,-88(s0)
ffffffc050404c52:	faf710e3          	bne	a4,a5,ffffffc050404bf2 <choose_sched_task+0x4e>
ffffffc050404c56:	fd843783          	ld	a5,-40(s0)
ffffffc050404c5a:	fd043703          	ld	a4,-48(s0)
ffffffc050404c5e:	e7b8                	sd	a4,72(a5)
ffffffc050404c60:	fd843783          	ld	a5,-40(s0)
ffffffc050404c64:	853e                	mv	a0,a5
ffffffc050404c66:	60e6                	ld	ra,88(sp)
ffffffc050404c68:	6446                	ld	s0,80(sp)
ffffffc050404c6a:	6125                	addi	sp,sp,96
ffffffc050404c6c:	8082                	ret

ffffffc050404c6e <k_spawn>:
ffffffc050404c6e:	711d                	addi	sp,sp,-96
ffffffc050404c70:	ec86                	sd	ra,88(sp)
ffffffc050404c72:	e8a2                	sd	s0,80(sp)
ffffffc050404c74:	1080                	addi	s0,sp,96
ffffffc050404c76:	faa43c23          	sd	a0,-72(s0)
ffffffc050404c7a:	87ae                	mv	a5,a1
ffffffc050404c7c:	fac43423          	sd	a2,-88(s0)
ffffffc050404c80:	8736                	mv	a4,a3
ffffffc050404c82:	faf42a23          	sw	a5,-76(s0)
ffffffc050404c86:	87ba                	mv	a5,a4
ffffffc050404c88:	faf42823          	sw	a5,-80(s0)
ffffffc050404c8c:	a75ff0ef          	jal	ra,ffffffc050404700 <find_pcb>
ffffffc050404c90:	87aa                	mv	a5,a0
ffffffc050404c92:	fef42223          	sw	a5,-28(s0)
ffffffc050404c96:	fe442783          	lw	a5,-28(s0)
ffffffc050404c9a:	0007871b          	sext.w	a4,a5
ffffffc050404c9e:	57fd                	li	a5,-1
ffffffc050404ca0:	00f71463          	bne	a4,a5,ffffffc050404ca8 <k_spawn+0x3a>
ffffffc050404ca4:	57fd                	li	a5,-1
ffffffc050404ca6:	a261                	j	ffffffc050404e2e <k_spawn+0x1c0>
ffffffc050404ca8:	fe442703          	lw	a4,-28(s0)
ffffffc050404cac:	1d000793          	li	a5,464
ffffffc050404cb0:	02f70733          	mul	a4,a4,a5
ffffffc050404cb4:	0004d797          	auipc	a5,0x4d
ffffffc050404cb8:	36c78793          	addi	a5,a5,876 # ffffffc050452020 <pcb>
ffffffc050404cbc:	97ba                	add	a5,a5,a4
ffffffc050404cbe:	fcf43c23          	sd	a5,-40(s0)
ffffffc050404cc2:	fd843503          	ld	a0,-40(s0)
ffffffc050404cc6:	da3fb0ef          	jal	ra,ffffffc050400a68 <init_pcb_block>
ffffffc050404cca:	fe042623          	sw	zero,-20(s0)
ffffffc050404cce:	fe042423          	sw	zero,-24(s0)
ffffffc050404cd2:	a059                	j	ffffffc050404d58 <k_spawn+0xea>
ffffffc050404cd4:	fec42783          	lw	a5,-20(s0)
ffffffc050404cd8:	078e                	slli	a5,a5,0x3
ffffffc050404cda:	fa843703          	ld	a4,-88(s0)
ffffffc050404cde:	97ba                	add	a5,a5,a4
ffffffc050404ce0:	6398                	ld	a4,0(a5)
ffffffc050404ce2:	fe842783          	lw	a5,-24(s0)
ffffffc050404ce6:	97ba                	add	a5,a5,a4
ffffffc050404ce8:	c799                	beqz	a5,ffffffc050404cf6 <k_spawn+0x88>
ffffffc050404cea:	fe842783          	lw	a5,-24(s0)
ffffffc050404cee:	2785                	addiw	a5,a5,1
ffffffc050404cf0:	fef42423          	sw	a5,-24(s0)
ffffffc050404cf4:	a8a9                	j	ffffffc050404d4e <k_spawn+0xe0>
ffffffc050404cf6:	fe842783          	lw	a5,-24(s0)
ffffffc050404cfa:	2781                	sext.w	a5,a5
ffffffc050404cfc:	cba9                	beqz	a5,ffffffc050404d4e <k_spawn+0xe0>
ffffffc050404cfe:	fd843783          	ld	a5,-40(s0)
ffffffc050404d02:	6b98                	ld	a4,16(a5)
ffffffc050404d04:	fe842783          	lw	a5,-24(s0)
ffffffc050404d08:	40f707b3          	sub	a5,a4,a5
ffffffc050404d0c:	86be                	mv	a3,a5
ffffffc050404d0e:	fec42783          	lw	a5,-20(s0)
ffffffc050404d12:	078e                	slli	a5,a5,0x3
ffffffc050404d14:	fa843703          	ld	a4,-88(s0)
ffffffc050404d18:	97ba                	add	a5,a5,a4
ffffffc050404d1a:	639c                	ld	a5,0(a5)
ffffffc050404d1c:	fe842703          	lw	a4,-24(s0)
ffffffc050404d20:	863a                	mv	a2,a4
ffffffc050404d22:	85be                	mv	a1,a5
ffffffc050404d24:	8536                	mv	a0,a3
ffffffc050404d26:	3ed010ef          	jal	ra,ffffffc050406912 <memcpy>
ffffffc050404d2a:	fd843783          	ld	a5,-40(s0)
ffffffc050404d2e:	6b98                	ld	a4,16(a5)
ffffffc050404d30:	fe842783          	lw	a5,-24(s0)
ffffffc050404d34:	8f1d                	sub	a4,a4,a5
ffffffc050404d36:	fd843783          	ld	a5,-40(s0)
ffffffc050404d3a:	eb98                	sd	a4,16(a5)
ffffffc050404d3c:	fd843783          	ld	a5,-40(s0)
ffffffc050404d40:	6798                	ld	a4,8(a5)
ffffffc050404d42:	fe842783          	lw	a5,-24(s0)
ffffffc050404d46:	8f1d                	sub	a4,a4,a5
ffffffc050404d48:	fd843783          	ld	a5,-40(s0)
ffffffc050404d4c:	e798                	sd	a4,8(a5)
ffffffc050404d4e:	fec42783          	lw	a5,-20(s0)
ffffffc050404d52:	2785                	addiw	a5,a5,1
ffffffc050404d54:	fef42623          	sw	a5,-20(s0)
ffffffc050404d58:	fec42703          	lw	a4,-20(s0)
ffffffc050404d5c:	fb442783          	lw	a5,-76(s0)
ffffffc050404d60:	2701                	sext.w	a4,a4
ffffffc050404d62:	2781                	sext.w	a5,a5
ffffffc050404d64:	f6f748e3          	blt	a4,a5,ffffffc050404cd4 <k_spawn+0x66>
ffffffc050404d68:	fb843503          	ld	a0,-72(s0)
ffffffc050404d6c:	770020ef          	jal	ra,ffffffc0504074dc <match_elf>
ffffffc050404d70:	87aa                	mv	a5,a0
ffffffc050404d72:	fcf42a23          	sw	a5,-44(s0)
ffffffc050404d76:	00048697          	auipc	a3,0x48
ffffffc050404d7a:	b8a68693          	addi	a3,a3,-1142 # ffffffc05044c900 <elf_files>
ffffffc050404d7e:	fd442703          	lw	a4,-44(s0)
ffffffc050404d82:	87ba                	mv	a5,a4
ffffffc050404d84:	0786                	slli	a5,a5,0x1
ffffffc050404d86:	97ba                	add	a5,a5,a4
ffffffc050404d88:	078e                	slli	a5,a5,0x3
ffffffc050404d8a:	97b6                	add	a5,a5,a3
ffffffc050404d8c:	6788                	ld	a0,8(a5)
ffffffc050404d8e:	00048697          	auipc	a3,0x48
ffffffc050404d92:	b7268693          	addi	a3,a3,-1166 # ffffffc05044c900 <elf_files>
ffffffc050404d96:	fd442703          	lw	a4,-44(s0)
ffffffc050404d9a:	87ba                	mv	a5,a4
ffffffc050404d9c:	0786                	slli	a5,a5,0x1
ffffffc050404d9e:	97ba                	add	a5,a5,a4
ffffffc050404da0:	078e                	slli	a5,a5,0x3
ffffffc050404da2:	97b6                	add	a5,a5,a3
ffffffc050404da4:	6b9c                	ld	a5,16(a5)
ffffffc050404da6:	0007871b          	sext.w	a4,a5
ffffffc050404daa:	0004d797          	auipc	a5,0x4d
ffffffc050404dae:	08e78793          	addi	a5,a5,142 # ffffffc050451e38 <bubble_pcb>
ffffffc050404db2:	1a87b783          	ld	a5,424(a5)
ffffffc050404db6:	00002697          	auipc	a3,0x2
ffffffc050404dba:	91668693          	addi	a3,a3,-1770 # ffffffc0504066cc <alloc_page_helper_user>
ffffffc050404dbe:	863e                	mv	a2,a5
ffffffc050404dc0:	85ba                	mv	a1,a4
ffffffc050404dc2:	9faff0ef          	jal	ra,ffffffc050403fbc <load_elf>
ffffffc050404dc6:	fca43423          	sd	a0,-56(s0)
ffffffc050404dca:	fe442783          	lw	a5,-28(s0)
ffffffc050404dce:	2785                	addiw	a5,a5,1
ffffffc050404dd0:	0007871b          	sext.w	a4,a5
ffffffc050404dd4:	fd843783          	ld	a5,-40(s0)
ffffffc050404dd8:	d798                	sw	a4,40(a5)
ffffffc050404dda:	0004d797          	auipc	a5,0x4d
ffffffc050404dde:	23678793          	addi	a5,a5,566 # ffffffc050452010 <current_running>
ffffffc050404de2:	639c                	ld	a5,0(a5)
ffffffc050404de4:	639c                	ld	a5,0(a5)
ffffffc050404de6:	1a07a703          	lw	a4,416(a5)
ffffffc050404dea:	fd843783          	ld	a5,-40(s0)
ffffffc050404dee:	1ae7a023          	sw	a4,416(a5)
ffffffc050404df2:	fd843783          	ld	a5,-40(s0)
ffffffc050404df6:	6388                	ld	a0,0(a5)
ffffffc050404df8:	fd843783          	ld	a5,-40(s0)
ffffffc050404dfc:	6b8c                	ld	a1,16(a5)
ffffffc050404dfe:	fb442703          	lw	a4,-76(s0)
ffffffc050404e02:	fa843783          	ld	a5,-88(s0)
ffffffc050404e06:	fd843683          	ld	a3,-40(s0)
ffffffc050404e0a:	fc843603          	ld	a2,-56(s0)
ffffffc050404e0e:	8d3fb0ef          	jal	ra,ffffffc0504006e0 <init_pcb_stack>
ffffffc050404e12:	fd843783          	ld	a5,-40(s0)
ffffffc050404e16:	05878793          	addi	a5,a5,88
ffffffc050404e1a:	00003597          	auipc	a1,0x3
ffffffc050404e1e:	21e58593          	addi	a1,a1,542 # ffffffc050408038 <ready_queue>
ffffffc050404e22:	853e                	mv	a0,a5
ffffffc050404e24:	f79fe0ef          	jal	ra,ffffffc050403d9c <list_add_tail>
ffffffc050404e28:	fd843783          	ld	a5,-40(s0)
ffffffc050404e2c:	579c                	lw	a5,40(a5)
ffffffc050404e2e:	853e                	mv	a0,a5
ffffffc050404e30:	60e6                	ld	ra,88(sp)
ffffffc050404e32:	6446                	ld	s0,80(sp)
ffffffc050404e34:	6125                	addi	sp,sp,96
ffffffc050404e36:	8082                	ret

ffffffc050404e38 <k_exit>:
ffffffc050404e38:	1141                	addi	sp,sp,-16
ffffffc050404e3a:	e406                	sd	ra,8(sp)
ffffffc050404e3c:	e022                	sd	s0,0(sp)
ffffffc050404e3e:	0800                	addi	s0,sp,16
ffffffc050404e40:	0004d797          	auipc	a5,0x4d
ffffffc050404e44:	1d078793          	addi	a5,a5,464 # ffffffc050452010 <current_running>
ffffffc050404e48:	639c                	ld	a5,0(a5)
ffffffc050404e4a:	639c                	ld	a5,0(a5)
ffffffc050404e4c:	579c                	lw	a5,40(a5)
ffffffc050404e4e:	853e                	mv	a0,a5
ffffffc050404e50:	00e000ef          	jal	ra,ffffffc050404e5e <k_kill>
ffffffc050404e54:	0001                	nop
ffffffc050404e56:	60a2                	ld	ra,8(sp)
ffffffc050404e58:	6402                	ld	s0,0(sp)
ffffffc050404e5a:	0141                	addi	sp,sp,16
ffffffc050404e5c:	8082                	ret

ffffffc050404e5e <k_kill>:
ffffffc050404e5e:	7139                	addi	sp,sp,-64
ffffffc050404e60:	fc06                	sd	ra,56(sp)
ffffffc050404e62:	f822                	sd	s0,48(sp)
ffffffc050404e64:	0080                	addi	s0,sp,64
ffffffc050404e66:	87aa                	mv	a5,a0
ffffffc050404e68:	fcf42623          	sw	a5,-52(s0)
ffffffc050404e6c:	fcc42783          	lw	a5,-52(s0)
ffffffc050404e70:	37fd                	addiw	a5,a5,-1
ffffffc050404e72:	fef42223          	sw	a5,-28(s0)
ffffffc050404e76:	fe442783          	lw	a5,-28(s0)
ffffffc050404e7a:	2781                	sext.w	a5,a5
ffffffc050404e7c:	00f05963          	blez	a5,ffffffc050404e8e <k_kill+0x30>
ffffffc050404e80:	fe442783          	lw	a5,-28(s0)
ffffffc050404e84:	0007871b          	sext.w	a4,a5
ffffffc050404e88:	47bd                	li	a5,15
ffffffc050404e8a:	06e7de63          	bge	a5,a4,ffffffc050404f06 <k_kill+0xa8>
ffffffc050404e8e:	0004d797          	auipc	a5,0x4d
ffffffc050404e92:	18278793          	addi	a5,a5,386 # ffffffc050452010 <current_running>
ffffffc050404e96:	639c                	ld	a5,0(a5)
ffffffc050404e98:	639c                	ld	a5,0(a5)
ffffffc050404e9a:	5f98                	lw	a4,56(a5)
ffffffc050404e9c:	0004f797          	auipc	a5,0x4f
ffffffc050404ea0:	e8478793          	addi	a5,a5,-380 # ffffffc050453d20 <cursor_x>
ffffffc050404ea4:	c398                	sw	a4,0(a5)
ffffffc050404ea6:	0004d797          	auipc	a5,0x4d
ffffffc050404eaa:	16a78793          	addi	a5,a5,362 # ffffffc050452010 <current_running>
ffffffc050404eae:	639c                	ld	a5,0(a5)
ffffffc050404eb0:	639c                	ld	a5,0(a5)
ffffffc050404eb2:	5fd8                	lw	a4,60(a5)
ffffffc050404eb4:	0004d797          	auipc	a5,0x4d
ffffffc050404eb8:	15478793          	addi	a5,a5,340 # ffffffc050452008 <cursor_y>
ffffffc050404ebc:	c398                	sw	a4,0(a5)
ffffffc050404ebe:	4585                	li	a1,1
ffffffc050404ec0:	4505                	li	a0,1
ffffffc050404ec2:	daafc0ef          	jal	ra,ffffffc05040146c <vt100_move_cursor>
ffffffc050404ec6:	00003517          	auipc	a0,0x3
ffffffc050404eca:	b5250513          	addi	a0,a0,-1198 # ffffffc050407a18 <__FUNCTION__.1825+0x68>
ffffffc050404ece:	486020ef          	jal	ra,ffffffc050407354 <printk>
ffffffc050404ed2:	4585                	li	a1,1
ffffffc050404ed4:	4505                	li	a0,1
ffffffc050404ed6:	d96fc0ef          	jal	ra,ffffffc05040146c <vt100_move_cursor>
ffffffc050404eda:	00003517          	auipc	a0,0x3
ffffffc050404ede:	b5e50513          	addi	a0,a0,-1186 # ffffffc050407a38 <__FUNCTION__.1825+0x88>
ffffffc050404ee2:	472020ef          	jal	ra,ffffffc050407354 <printk>
ffffffc050404ee6:	0004f797          	auipc	a5,0x4f
ffffffc050404eea:	e3a78793          	addi	a5,a5,-454 # ffffffc050453d20 <cursor_x>
ffffffc050404eee:	4398                	lw	a4,0(a5)
ffffffc050404ef0:	0004d797          	auipc	a5,0x4d
ffffffc050404ef4:	11878793          	addi	a5,a5,280 # ffffffc050452008 <cursor_y>
ffffffc050404ef8:	439c                	lw	a5,0(a5)
ffffffc050404efa:	85be                	mv	a1,a5
ffffffc050404efc:	853a                	mv	a0,a4
ffffffc050404efe:	d6efc0ef          	jal	ra,ffffffc05040146c <vt100_move_cursor>
ffffffc050404f02:	57fd                	li	a5,-1
ffffffc050404f04:	a621                	j	ffffffc05040520c <k_kill+0x3ae>
ffffffc050404f06:	0004d717          	auipc	a4,0x4d
ffffffc050404f0a:	11a70713          	addi	a4,a4,282 # ffffffc050452020 <pcb>
ffffffc050404f0e:	fe442683          	lw	a3,-28(s0)
ffffffc050404f12:	1d000793          	li	a5,464
ffffffc050404f16:	02f687b3          	mul	a5,a3,a5
ffffffc050404f1a:	97ba                	add	a5,a5,a4
ffffffc050404f1c:	579c                	lw	a5,40(a5)
ffffffc050404f1e:	e3c1                	bnez	a5,ffffffc050404f9e <k_kill+0x140>
ffffffc050404f20:	0004d797          	auipc	a5,0x4d
ffffffc050404f24:	0f078793          	addi	a5,a5,240 # ffffffc050452010 <current_running>
ffffffc050404f28:	639c                	ld	a5,0(a5)
ffffffc050404f2a:	639c                	ld	a5,0(a5)
ffffffc050404f2c:	5f98                	lw	a4,56(a5)
ffffffc050404f2e:	0004f797          	auipc	a5,0x4f
ffffffc050404f32:	df278793          	addi	a5,a5,-526 # ffffffc050453d20 <cursor_x>
ffffffc050404f36:	c398                	sw	a4,0(a5)
ffffffc050404f38:	0004d797          	auipc	a5,0x4d
ffffffc050404f3c:	0d878793          	addi	a5,a5,216 # ffffffc050452010 <current_running>
ffffffc050404f40:	639c                	ld	a5,0(a5)
ffffffc050404f42:	639c                	ld	a5,0(a5)
ffffffc050404f44:	5fd8                	lw	a4,60(a5)
ffffffc050404f46:	0004d797          	auipc	a5,0x4d
ffffffc050404f4a:	0c278793          	addi	a5,a5,194 # ffffffc050452008 <cursor_y>
ffffffc050404f4e:	c398                	sw	a4,0(a5)
ffffffc050404f50:	4585                	li	a1,1
ffffffc050404f52:	4505                	li	a0,1
ffffffc050404f54:	d18fc0ef          	jal	ra,ffffffc05040146c <vt100_move_cursor>
ffffffc050404f58:	00003517          	auipc	a0,0x3
ffffffc050404f5c:	ac050513          	addi	a0,a0,-1344 # ffffffc050407a18 <__FUNCTION__.1825+0x68>
ffffffc050404f60:	3f4020ef          	jal	ra,ffffffc050407354 <printk>
ffffffc050404f64:	4585                	li	a1,1
ffffffc050404f66:	4505                	li	a0,1
ffffffc050404f68:	d04fc0ef          	jal	ra,ffffffc05040146c <vt100_move_cursor>
ffffffc050404f6c:	fcc42783          	lw	a5,-52(s0)
ffffffc050404f70:	85be                	mv	a1,a5
ffffffc050404f72:	00003517          	auipc	a0,0x3
ffffffc050404f76:	ad650513          	addi	a0,a0,-1322 # ffffffc050407a48 <__FUNCTION__.1825+0x98>
ffffffc050404f7a:	3da020ef          	jal	ra,ffffffc050407354 <printk>
ffffffc050404f7e:	0004f797          	auipc	a5,0x4f
ffffffc050404f82:	da278793          	addi	a5,a5,-606 # ffffffc050453d20 <cursor_x>
ffffffc050404f86:	4398                	lw	a4,0(a5)
ffffffc050404f88:	0004d797          	auipc	a5,0x4d
ffffffc050404f8c:	08078793          	addi	a5,a5,128 # ffffffc050452008 <cursor_y>
ffffffc050404f90:	439c                	lw	a5,0(a5)
ffffffc050404f92:	85be                	mv	a1,a5
ffffffc050404f94:	853a                	mv	a0,a4
ffffffc050404f96:	cd6fc0ef          	jal	ra,ffffffc05040146c <vt100_move_cursor>
ffffffc050404f9a:	57fd                	li	a5,-1
ffffffc050404f9c:	ac85                	j	ffffffc05040520c <k_kill+0x3ae>
ffffffc050404f9e:	fe042623          	sw	zero,-20(s0)
ffffffc050404fa2:	a8a1                	j	ffffffc050404ffa <k_kill+0x19c>
ffffffc050404fa4:	0004d717          	auipc	a4,0x4d
ffffffc050404fa8:	07c70713          	addi	a4,a4,124 # ffffffc050452020 <pcb>
ffffffc050404fac:	fec42783          	lw	a5,-20(s0)
ffffffc050404fb0:	fe442603          	lw	a2,-28(s0)
ffffffc050404fb4:	03a00693          	li	a3,58
ffffffc050404fb8:	02d606b3          	mul	a3,a2,a3
ffffffc050404fbc:	97b6                	add	a5,a5,a3
ffffffc050404fbe:	07d1                	addi	a5,a5,20
ffffffc050404fc0:	078e                	slli	a5,a5,0x3
ffffffc050404fc2:	97ba                	add	a5,a5,a4
ffffffc050404fc4:	679c                	ld	a5,8(a5)
ffffffc050404fc6:	2781                	sext.w	a5,a5
ffffffc050404fc8:	37fd                	addiw	a5,a5,-1
ffffffc050404fca:	2781                	sext.w	a5,a5
ffffffc050404fcc:	0007861b          	sext.w	a2,a5
ffffffc050404fd0:	0004d717          	auipc	a4,0x4d
ffffffc050404fd4:	05070713          	addi	a4,a4,80 # ffffffc050452020 <pcb>
ffffffc050404fd8:	fe442683          	lw	a3,-28(s0)
ffffffc050404fdc:	1d000793          	li	a5,464
ffffffc050404fe0:	02f687b3          	mul	a5,a3,a5
ffffffc050404fe4:	97ba                	add	a5,a5,a4
ffffffc050404fe6:	579c                	lw	a5,40(a5)
ffffffc050404fe8:	85be                	mv	a1,a5
ffffffc050404fea:	8532                	mv	a0,a2
ffffffc050404fec:	f87fc0ef          	jal	ra,ffffffc050401f72 <k_mutex_lock_release>
ffffffc050404ff0:	fec42783          	lw	a5,-20(s0)
ffffffc050404ff4:	2785                	addiw	a5,a5,1
ffffffc050404ff6:	fef42623          	sw	a5,-20(s0)
ffffffc050404ffa:	0004d717          	auipc	a4,0x4d
ffffffc050404ffe:	02670713          	addi	a4,a4,38 # ffffffc050452020 <pcb>
ffffffc050405002:	fe442683          	lw	a3,-28(s0)
ffffffc050405006:	1d000793          	li	a5,464
ffffffc05040500a:	02f687b3          	mul	a5,a3,a5
ffffffc05040500e:	97ba                	add	a5,a5,a4
ffffffc050405010:	1487a703          	lw	a4,328(a5)
ffffffc050405014:	fec42783          	lw	a5,-20(s0)
ffffffc050405018:	2781                	sext.w	a5,a5
ffffffc05040501a:	f8e7c5e3          	blt	a5,a4,ffffffc050404fa4 <k_kill+0x146>
ffffffc05040501e:	0004d717          	auipc	a4,0x4d
ffffffc050405022:	00270713          	addi	a4,a4,2 # ffffffc050452020 <pcb>
ffffffc050405026:	fe442683          	lw	a3,-28(s0)
ffffffc05040502a:	1d000793          	li	a5,464
ffffffc05040502e:	02f687b3          	mul	a5,a3,a5
ffffffc050405032:	97ba                	add	a5,a5,a4
ffffffc050405034:	5bdc                	lw	a5,52(a5)
ffffffc050405036:	e7bd                	bnez	a5,ffffffc0504050a4 <k_kill+0x246>
ffffffc050405038:	0004d717          	auipc	a4,0x4d
ffffffc05040503c:	fe870713          	addi	a4,a4,-24 # ffffffc050452020 <pcb>
ffffffc050405040:	fe442683          	lw	a3,-28(s0)
ffffffc050405044:	1d000793          	li	a5,464
ffffffc050405048:	02f687b3          	mul	a5,a3,a5
ffffffc05040504c:	97ba                	add	a5,a5,a4
ffffffc05040504e:	77bc                	ld	a5,104(a5)
ffffffc050405050:	cf85                	beqz	a5,ffffffc050405088 <k_kill+0x22a>
ffffffc050405052:	0004d717          	auipc	a4,0x4d
ffffffc050405056:	fce70713          	addi	a4,a4,-50 # ffffffc050452020 <pcb>
ffffffc05040505a:	fe442683          	lw	a3,-28(s0)
ffffffc05040505e:	1d000793          	li	a5,464
ffffffc050405062:	02f687b3          	mul	a5,a3,a5
ffffffc050405066:	97ba                	add	a5,a5,a4
ffffffc050405068:	77bc                	ld	a5,104(a5)
ffffffc05040506a:	fcf43c23          	sd	a5,-40(s0)
ffffffc05040506e:	fd843783          	ld	a5,-40(s0)
ffffffc050405072:	0807a783          	lw	a5,128(a5)
ffffffc050405076:	eb89                	bnez	a5,ffffffc050405088 <k_kill+0x22a>
ffffffc050405078:	fd843783          	ld	a5,-40(s0)
ffffffc05040507c:	05878793          	addi	a5,a5,88
ffffffc050405080:	4585                	li	a1,1
ffffffc050405082:	853e                	mv	a0,a5
ffffffc050405084:	d6aff0ef          	jal	ra,ffffffc0504045ee <k_unblock>
ffffffc050405088:	0004d717          	auipc	a4,0x4d
ffffffc05040508c:	f9870713          	addi	a4,a4,-104 # ffffffc050452020 <pcb>
ffffffc050405090:	fe442683          	lw	a3,-28(s0)
ffffffc050405094:	1d000793          	li	a5,464
ffffffc050405098:	02f687b3          	mul	a5,a3,a5
ffffffc05040509c:	97ba                	add	a5,a5,a4
ffffffc05040509e:	470d                	li	a4,3
ffffffc0504050a0:	db98                	sw	a4,48(a5)
ffffffc0504050a2:	a085                	j	ffffffc050405102 <k_kill+0x2a4>
ffffffc0504050a4:	0004d717          	auipc	a4,0x4d
ffffffc0504050a8:	f7c70713          	addi	a4,a4,-132 # ffffffc050452020 <pcb>
ffffffc0504050ac:	fe442683          	lw	a3,-28(s0)
ffffffc0504050b0:	1d000793          	li	a5,464
ffffffc0504050b4:	02f687b3          	mul	a5,a3,a5
ffffffc0504050b8:	97ba                	add	a5,a5,a4
ffffffc0504050ba:	5bdc                	lw	a5,52(a5)
ffffffc0504050bc:	873e                	mv	a4,a5
ffffffc0504050be:	4785                	li	a5,1
ffffffc0504050c0:	04f71163          	bne	a4,a5,ffffffc050405102 <k_kill+0x2a4>
ffffffc0504050c4:	0004d717          	auipc	a4,0x4d
ffffffc0504050c8:	f5c70713          	addi	a4,a4,-164 # ffffffc050452020 <pcb>
ffffffc0504050cc:	fe442683          	lw	a3,-28(s0)
ffffffc0504050d0:	1d000793          	li	a5,464
ffffffc0504050d4:	02f687b3          	mul	a5,a3,a5
ffffffc0504050d8:	97ba                	add	a5,a5,a4
ffffffc0504050da:	0207a423          	sw	zero,40(a5)
ffffffc0504050de:	0004d717          	auipc	a4,0x4d
ffffffc0504050e2:	f4270713          	addi	a4,a4,-190 # ffffffc050452020 <pcb>
ffffffc0504050e6:	fe442683          	lw	a3,-28(s0)
ffffffc0504050ea:	1d000793          	li	a5,464
ffffffc0504050ee:	02f687b3          	mul	a5,a3,a5
ffffffc0504050f2:	97ba                	add	a5,a5,a4
ffffffc0504050f4:	4711                	li	a4,4
ffffffc0504050f6:	db98                	sw	a4,48(a5)
ffffffc0504050f8:	fcc42783          	lw	a5,-52(s0)
ffffffc0504050fc:	853e                	mv	a0,a5
ffffffc0504050fe:	62a000ef          	jal	ra,ffffffc050405728 <k_free_all_page>
ffffffc050405102:	fe042423          	sw	zero,-24(s0)
ffffffc050405106:	a0bd                	j	ffffffc050405174 <k_kill+0x316>
ffffffc050405108:	0004d717          	auipc	a4,0x4d
ffffffc05040510c:	f1870713          	addi	a4,a4,-232 # ffffffc050452020 <pcb>
ffffffc050405110:	fe842683          	lw	a3,-24(s0)
ffffffc050405114:	1d000793          	li	a5,464
ffffffc050405118:	02f687b3          	mul	a5,a3,a5
ffffffc05040511c:	97ba                	add	a5,a5,a4
ffffffc05040511e:	77b8                	ld	a4,104(a5)
ffffffc050405120:	fe442683          	lw	a3,-28(s0)
ffffffc050405124:	1d000793          	li	a5,464
ffffffc050405128:	02f686b3          	mul	a3,a3,a5
ffffffc05040512c:	0004d797          	auipc	a5,0x4d
ffffffc050405130:	ef478793          	addi	a5,a5,-268 # ffffffc050452020 <pcb>
ffffffc050405134:	97b6                	add	a5,a5,a3
ffffffc050405136:	02f71a63          	bne	a4,a5,ffffffc05040516a <k_kill+0x30c>
ffffffc05040513a:	0004d717          	auipc	a4,0x4d
ffffffc05040513e:	ee670713          	addi	a4,a4,-282 # ffffffc050452020 <pcb>
ffffffc050405142:	fe442683          	lw	a3,-28(s0)
ffffffc050405146:	1d000793          	li	a5,464
ffffffc05040514a:	02f687b3          	mul	a5,a3,a5
ffffffc05040514e:	97ba                	add	a5,a5,a4
ffffffc050405150:	77b8                	ld	a4,104(a5)
ffffffc050405152:	0004d697          	auipc	a3,0x4d
ffffffc050405156:	ece68693          	addi	a3,a3,-306 # ffffffc050452020 <pcb>
ffffffc05040515a:	fe842603          	lw	a2,-24(s0)
ffffffc05040515e:	1d000793          	li	a5,464
ffffffc050405162:	02f607b3          	mul	a5,a2,a5
ffffffc050405166:	97b6                	add	a5,a5,a3
ffffffc050405168:	f7b8                	sd	a4,104(a5)
ffffffc05040516a:	fe842783          	lw	a5,-24(s0)
ffffffc05040516e:	2785                	addiw	a5,a5,1
ffffffc050405170:	fef42423          	sw	a5,-24(s0)
ffffffc050405174:	fe842783          	lw	a5,-24(s0)
ffffffc050405178:	0007871b          	sext.w	a4,a5
ffffffc05040517c:	47bd                	li	a5,15
ffffffc05040517e:	f8e7d5e3          	bge	a5,a4,ffffffc050405108 <k_kill+0x2aa>
ffffffc050405182:	0004d717          	auipc	a4,0x4d
ffffffc050405186:	e9e70713          	addi	a4,a4,-354 # ffffffc050452020 <pcb>
ffffffc05040518a:	fe442683          	lw	a3,-28(s0)
ffffffc05040518e:	1d000793          	li	a5,464
ffffffc050405192:	02f687b3          	mul	a5,a3,a5
ffffffc050405196:	97ba                	add	a5,a5,a4
ffffffc050405198:	6fbc                	ld	a5,88(a5)
ffffffc05040519a:	c395                	beqz	a5,ffffffc0504051be <k_kill+0x360>
ffffffc05040519c:	fe442703          	lw	a4,-28(s0)
ffffffc0504051a0:	1d000793          	li	a5,464
ffffffc0504051a4:	02f707b3          	mul	a5,a4,a5
ffffffc0504051a8:	05078713          	addi	a4,a5,80
ffffffc0504051ac:	0004d797          	auipc	a5,0x4d
ffffffc0504051b0:	e7478793          	addi	a5,a5,-396 # ffffffc050452020 <pcb>
ffffffc0504051b4:	97ba                	add	a5,a5,a4
ffffffc0504051b6:	07a1                	addi	a5,a5,8
ffffffc0504051b8:	853e                	mv	a0,a5
ffffffc0504051ba:	c65fe0ef          	jal	ra,ffffffc050403e1e <list_del>
ffffffc0504051be:	0004d797          	auipc	a5,0x4d
ffffffc0504051c2:	e5278793          	addi	a5,a5,-430 # ffffffc050452010 <current_running>
ffffffc0504051c6:	639c                	ld	a5,0(a5)
ffffffc0504051c8:	639c                	ld	a5,0(a5)
ffffffc0504051ca:	5798                	lw	a4,40(a5)
ffffffc0504051cc:	fcc42783          	lw	a5,-52(s0)
ffffffc0504051d0:	2781                	sext.w	a5,a5
ffffffc0504051d2:	02e78a63          	beq	a5,a4,ffffffc050405206 <k_kill+0x3a8>
ffffffc0504051d6:	0004d797          	auipc	a5,0x4d
ffffffc0504051da:	e3a78793          	addi	a5,a5,-454 # ffffffc050452010 <current_running>
ffffffc0504051de:	639c                	ld	a5,0(a5)
ffffffc0504051e0:	639c                	ld	a5,0(a5)
ffffffc0504051e2:	579c                	lw	a5,40(a5)
ffffffc0504051e4:	c38d                	beqz	a5,ffffffc050405206 <k_kill+0x3a8>
ffffffc0504051e6:	0004d717          	auipc	a4,0x4d
ffffffc0504051ea:	e3a70713          	addi	a4,a4,-454 # ffffffc050452020 <pcb>
ffffffc0504051ee:	fe442683          	lw	a3,-28(s0)
ffffffc0504051f2:	1d000793          	li	a5,464
ffffffc0504051f6:	02f687b3          	mul	a5,a3,a5
ffffffc0504051fa:	97ba                	add	a5,a5,a4
ffffffc0504051fc:	5bdc                	lw	a5,52(a5)
ffffffc0504051fe:	873e                	mv	a4,a5
ffffffc050405200:	4785                	li	a5,1
ffffffc050405202:	00f71463          	bne	a4,a5,ffffffc05040520a <k_kill+0x3ac>
ffffffc050405206:	8c2ff0ef          	jal	ra,ffffffc0504042c8 <k_scheduler>
ffffffc05040520a:	4781                	li	a5,0
ffffffc05040520c:	853e                	mv	a0,a5
ffffffc05040520e:	70e2                	ld	ra,56(sp)
ffffffc050405210:	7442                	ld	s0,48(sp)
ffffffc050405212:	6121                	addi	sp,sp,64
ffffffc050405214:	8082                	ret

ffffffc050405216 <k_waitpid>:
ffffffc050405216:	7179                	addi	sp,sp,-48
ffffffc050405218:	f406                	sd	ra,40(sp)
ffffffc05040521a:	f022                	sd	s0,32(sp)
ffffffc05040521c:	1800                	addi	s0,sp,48
ffffffc05040521e:	87aa                	mv	a5,a0
ffffffc050405220:	fcf42e23          	sw	a5,-36(s0)
ffffffc050405224:	fdc42783          	lw	a5,-36(s0)
ffffffc050405228:	37fd                	addiw	a5,a5,-1
ffffffc05040522a:	fef42623          	sw	a5,-20(s0)
ffffffc05040522e:	fec42783          	lw	a5,-20(s0)
ffffffc050405232:	2781                	sext.w	a5,a5
ffffffc050405234:	00f05963          	blez	a5,ffffffc050405246 <k_waitpid+0x30>
ffffffc050405238:	fec42783          	lw	a5,-20(s0)
ffffffc05040523c:	0007871b          	sext.w	a4,a5
ffffffc050405240:	47bd                	li	a5,15
ffffffc050405242:	00e7d463          	bge	a5,a4,ffffffc05040524a <k_waitpid+0x34>
ffffffc050405246:	57fd                	li	a5,-1
ffffffc050405248:	a429                	j	ffffffc050405452 <k_waitpid+0x23c>
ffffffc05040524a:	0004d717          	auipc	a4,0x4d
ffffffc05040524e:	dd670713          	addi	a4,a4,-554 # ffffffc050452020 <pcb>
ffffffc050405252:	fec42683          	lw	a3,-20(s0)
ffffffc050405256:	1d000793          	li	a5,464
ffffffc05040525a:	02f687b3          	mul	a5,a3,a5
ffffffc05040525e:	97ba                	add	a5,a5,a4
ffffffc050405260:	579c                	lw	a5,40(a5)
ffffffc050405262:	0e079d63          	bnez	a5,ffffffc05040535c <k_waitpid+0x146>
ffffffc050405266:	0004d797          	auipc	a5,0x4d
ffffffc05040526a:	daa78793          	addi	a5,a5,-598 # ffffffc050452010 <current_running>
ffffffc05040526e:	639c                	ld	a5,0(a5)
ffffffc050405270:	639c                	ld	a5,0(a5)
ffffffc050405272:	5f9c                	lw	a5,56(a5)
ffffffc050405274:	fef42423          	sw	a5,-24(s0)
ffffffc050405278:	0004d797          	auipc	a5,0x4d
ffffffc05040527c:	d9878793          	addi	a5,a5,-616 # ffffffc050452010 <current_running>
ffffffc050405280:	639c                	ld	a5,0(a5)
ffffffc050405282:	639c                	ld	a5,0(a5)
ffffffc050405284:	5fdc                	lw	a5,60(a5)
ffffffc050405286:	fef42223          	sw	a5,-28(s0)
ffffffc05040528a:	4585                	li	a1,1
ffffffc05040528c:	4505                	li	a0,1
ffffffc05040528e:	9defc0ef          	jal	ra,ffffffc05040146c <vt100_move_cursor>
ffffffc050405292:	0004d797          	auipc	a5,0x4d
ffffffc050405296:	d7e78793          	addi	a5,a5,-642 # ffffffc050452010 <current_running>
ffffffc05040529a:	639c                	ld	a5,0(a5)
ffffffc05040529c:	639c                	ld	a5,0(a5)
ffffffc05040529e:	5f9c                	lw	a5,56(a5)
ffffffc0504052a0:	fef42423          	sw	a5,-24(s0)
ffffffc0504052a4:	0004d797          	auipc	a5,0x4d
ffffffc0504052a8:	d6c78793          	addi	a5,a5,-660 # ffffffc050452010 <current_running>
ffffffc0504052ac:	639c                	ld	a5,0(a5)
ffffffc0504052ae:	639c                	ld	a5,0(a5)
ffffffc0504052b0:	5fdc                	lw	a5,60(a5)
ffffffc0504052b2:	fef42223          	sw	a5,-28(s0)
ffffffc0504052b6:	4585                	li	a1,1
ffffffc0504052b8:	4505                	li	a0,1
ffffffc0504052ba:	9b2fc0ef          	jal	ra,ffffffc05040146c <vt100_move_cursor>
ffffffc0504052be:	00002517          	auipc	a0,0x2
ffffffc0504052c2:	75a50513          	addi	a0,a0,1882 # ffffffc050407a18 <__FUNCTION__.1825+0x68>
ffffffc0504052c6:	08e020ef          	jal	ra,ffffffc050407354 <printk>
ffffffc0504052ca:	4585                	li	a1,1
ffffffc0504052cc:	4505                	li	a0,1
ffffffc0504052ce:	99efc0ef          	jal	ra,ffffffc05040146c <vt100_move_cursor>
ffffffc0504052d2:	00002517          	auipc	a0,0x2
ffffffc0504052d6:	74650513          	addi	a0,a0,1862 # ffffffc050407a18 <__FUNCTION__.1825+0x68>
ffffffc0504052da:	07a020ef          	jal	ra,ffffffc050407354 <printk>
ffffffc0504052de:	fe442703          	lw	a4,-28(s0)
ffffffc0504052e2:	fe842783          	lw	a5,-24(s0)
ffffffc0504052e6:	85ba                	mv	a1,a4
ffffffc0504052e8:	853e                	mv	a0,a5
ffffffc0504052ea:	982fc0ef          	jal	ra,ffffffc05040146c <vt100_move_cursor>
ffffffc0504052ee:	4585                	li	a1,1
ffffffc0504052f0:	4505                	li	a0,1
ffffffc0504052f2:	97afc0ef          	jal	ra,ffffffc05040146c <vt100_move_cursor>
ffffffc0504052f6:	0004d797          	auipc	a5,0x4d
ffffffc0504052fa:	d1a78793          	addi	a5,a5,-742 # ffffffc050452010 <current_running>
ffffffc0504052fe:	639c                	ld	a5,0(a5)
ffffffc050405300:	639c                	ld	a5,0(a5)
ffffffc050405302:	5f9c                	lw	a5,56(a5)
ffffffc050405304:	fef42423          	sw	a5,-24(s0)
ffffffc050405308:	0004d797          	auipc	a5,0x4d
ffffffc05040530c:	d0878793          	addi	a5,a5,-760 # ffffffc050452010 <current_running>
ffffffc050405310:	639c                	ld	a5,0(a5)
ffffffc050405312:	639c                	ld	a5,0(a5)
ffffffc050405314:	5fdc                	lw	a5,60(a5)
ffffffc050405316:	fef42223          	sw	a5,-28(s0)
ffffffc05040531a:	4585                	li	a1,1
ffffffc05040531c:	4505                	li	a0,1
ffffffc05040531e:	94efc0ef          	jal	ra,ffffffc05040146c <vt100_move_cursor>
ffffffc050405322:	00002517          	auipc	a0,0x2
ffffffc050405326:	6f650513          	addi	a0,a0,1782 # ffffffc050407a18 <__FUNCTION__.1825+0x68>
ffffffc05040532a:	02a020ef          	jal	ra,ffffffc050407354 <printk>
ffffffc05040532e:	4585                	li	a1,1
ffffffc050405330:	4505                	li	a0,1
ffffffc050405332:	93afc0ef          	jal	ra,ffffffc05040146c <vt100_move_cursor>
ffffffc050405336:	fdc42783          	lw	a5,-36(s0)
ffffffc05040533a:	85be                	mv	a1,a5
ffffffc05040533c:	00002517          	auipc	a0,0x2
ffffffc050405340:	70c50513          	addi	a0,a0,1804 # ffffffc050407a48 <__FUNCTION__.1825+0x98>
ffffffc050405344:	010020ef          	jal	ra,ffffffc050407354 <printk>
ffffffc050405348:	fe442703          	lw	a4,-28(s0)
ffffffc05040534c:	fe842783          	lw	a5,-24(s0)
ffffffc050405350:	85ba                	mv	a1,a4
ffffffc050405352:	853e                	mv	a0,a5
ffffffc050405354:	918fc0ef          	jal	ra,ffffffc05040146c <vt100_move_cursor>
ffffffc050405358:	57fd                	li	a5,-1
ffffffc05040535a:	a8e5                	j	ffffffc050405452 <k_waitpid+0x23c>
ffffffc05040535c:	0004d717          	auipc	a4,0x4d
ffffffc050405360:	cc470713          	addi	a4,a4,-828 # ffffffc050452020 <pcb>
ffffffc050405364:	fec42683          	lw	a3,-20(s0)
ffffffc050405368:	1d000793          	li	a5,464
ffffffc05040536c:	02f687b3          	mul	a5,a3,a5
ffffffc050405370:	97ba                	add	a5,a5,a4
ffffffc050405372:	5b9c                	lw	a5,48(a5)
ffffffc050405374:	873e                	mv	a4,a5
ffffffc050405376:	478d                	li	a5,3
ffffffc050405378:	06f70d63          	beq	a4,a5,ffffffc0504053f2 <k_waitpid+0x1dc>
ffffffc05040537c:	0004d717          	auipc	a4,0x4d
ffffffc050405380:	ca470713          	addi	a4,a4,-860 # ffffffc050452020 <pcb>
ffffffc050405384:	fec42683          	lw	a3,-20(s0)
ffffffc050405388:	1d000793          	li	a5,464
ffffffc05040538c:	02f687b3          	mul	a5,a3,a5
ffffffc050405390:	97ba                	add	a5,a5,a4
ffffffc050405392:	5b9c                	lw	a5,48(a5)
ffffffc050405394:	873e                	mv	a4,a5
ffffffc050405396:	4791                	li	a5,4
ffffffc050405398:	04f70d63          	beq	a4,a5,ffffffc0504053f2 <k_waitpid+0x1dc>
ffffffc05040539c:	0004d797          	auipc	a5,0x4d
ffffffc0504053a0:	c7478793          	addi	a5,a5,-908 # ffffffc050452010 <current_running>
ffffffc0504053a4:	639c                	ld	a5,0(a5)
ffffffc0504053a6:	6398                	ld	a4,0(a5)
ffffffc0504053a8:	0004d697          	auipc	a3,0x4d
ffffffc0504053ac:	c7868693          	addi	a3,a3,-904 # ffffffc050452020 <pcb>
ffffffc0504053b0:	fec42603          	lw	a2,-20(s0)
ffffffc0504053b4:	1d000793          	li	a5,464
ffffffc0504053b8:	02f607b3          	mul	a5,a2,a5
ffffffc0504053bc:	97b6                	add	a5,a5,a3
ffffffc0504053be:	f7b8                	sd	a4,104(a5)
ffffffc0504053c0:	0004d797          	auipc	a5,0x4d
ffffffc0504053c4:	c5078793          	addi	a5,a5,-944 # ffffffc050452010 <current_running>
ffffffc0504053c8:	639c                	ld	a5,0(a5)
ffffffc0504053ca:	639c                	ld	a5,0(a5)
ffffffc0504053cc:	0207a823          	sw	zero,48(a5)
ffffffc0504053d0:	0004d797          	auipc	a5,0x4d
ffffffc0504053d4:	c4078793          	addi	a5,a5,-960 # ffffffc050452010 <current_running>
ffffffc0504053d8:	639c                	ld	a5,0(a5)
ffffffc0504053da:	639c                	ld	a5,0(a5)
ffffffc0504053dc:	05878793          	addi	a5,a5,88
ffffffc0504053e0:	00003597          	auipc	a1,0x3
ffffffc0504053e4:	c6858593          	addi	a1,a1,-920 # ffffffc050408048 <blocked_queue>
ffffffc0504053e8:	853e                	mv	a0,a5
ffffffc0504053ea:	9ceff0ef          	jal	ra,ffffffc0504045b8 <k_block>
ffffffc0504053ee:	edbfe0ef          	jal	ra,ffffffc0504042c8 <k_scheduler>
ffffffc0504053f2:	0004d717          	auipc	a4,0x4d
ffffffc0504053f6:	c2e70713          	addi	a4,a4,-978 # ffffffc050452020 <pcb>
ffffffc0504053fa:	fec42683          	lw	a3,-20(s0)
ffffffc0504053fe:	1d000793          	li	a5,464
ffffffc050405402:	02f687b3          	mul	a5,a3,a5
ffffffc050405406:	97ba                	add	a5,a5,a4
ffffffc050405408:	5b9c                	lw	a5,48(a5)
ffffffc05040540a:	873e                	mv	a4,a5
ffffffc05040540c:	478d                	li	a5,3
ffffffc05040540e:	04f71163          	bne	a4,a5,ffffffc050405450 <k_waitpid+0x23a>
ffffffc050405412:	0004d717          	auipc	a4,0x4d
ffffffc050405416:	c0e70713          	addi	a4,a4,-1010 # ffffffc050452020 <pcb>
ffffffc05040541a:	fec42683          	lw	a3,-20(s0)
ffffffc05040541e:	1d000793          	li	a5,464
ffffffc050405422:	02f687b3          	mul	a5,a3,a5
ffffffc050405426:	97ba                	add	a5,a5,a4
ffffffc050405428:	4711                	li	a4,4
ffffffc05040542a:	db98                	sw	a4,48(a5)
ffffffc05040542c:	0004d717          	auipc	a4,0x4d
ffffffc050405430:	bf470713          	addi	a4,a4,-1036 # ffffffc050452020 <pcb>
ffffffc050405434:	fec42683          	lw	a3,-20(s0)
ffffffc050405438:	1d000793          	li	a5,464
ffffffc05040543c:	02f687b3          	mul	a5,a3,a5
ffffffc050405440:	97ba                	add	a5,a5,a4
ffffffc050405442:	0207a423          	sw	zero,40(a5)
ffffffc050405446:	fec42783          	lw	a5,-20(s0)
ffffffc05040544a:	853e                	mv	a0,a5
ffffffc05040544c:	2dc000ef          	jal	ra,ffffffc050405728 <k_free_all_page>
ffffffc050405450:	4781                	li	a5,0
ffffffc050405452:	853e                	mv	a0,a5
ffffffc050405454:	70a2                	ld	ra,40(sp)
ffffffc050405456:	7402                	ld	s0,32(sp)
ffffffc050405458:	6145                	addi	sp,sp,48
ffffffc05040545a:	8082                	ret

ffffffc05040545c <k_process_show>:
ffffffc05040545c:	1101                	addi	sp,sp,-32
ffffffc05040545e:	ec06                	sd	ra,24(sp)
ffffffc050405460:	e822                	sd	s0,16(sp)
ffffffc050405462:	1000                	addi	s0,sp,32
ffffffc050405464:	fe042623          	sw	zero,-20(s0)
ffffffc050405468:	00002517          	auipc	a0,0x2
ffffffc05040546c:	5f850513          	addi	a0,a0,1528 # ffffffc050407a60 <__FUNCTION__.1825+0xb0>
ffffffc050405470:	76f010ef          	jal	ra,ffffffc0504073de <prints>
ffffffc050405474:	fec42783          	lw	a5,-20(s0)
ffffffc050405478:	2785                	addiw	a5,a5,1
ffffffc05040547a:	fef42623          	sw	a5,-20(s0)
ffffffc05040547e:	4785                	li	a5,1
ffffffc050405480:	fef42423          	sw	a5,-24(s0)
ffffffc050405484:	aaf5                	j	ffffffc050405680 <k_process_show+0x224>
ffffffc050405486:	0004d717          	auipc	a4,0x4d
ffffffc05040548a:	b9a70713          	addi	a4,a4,-1126 # ffffffc050452020 <pcb>
ffffffc05040548e:	fe842683          	lw	a3,-24(s0)
ffffffc050405492:	1d000793          	li	a5,464
ffffffc050405496:	02f687b3          	mul	a5,a3,a5
ffffffc05040549a:	97ba                	add	a5,a5,a4
ffffffc05040549c:	579c                	lw	a5,40(a5)
ffffffc05040549e:	ef9d                	bnez	a5,ffffffc0504054dc <k_process_show+0x80>
ffffffc0504054a0:	0004d717          	auipc	a4,0x4d
ffffffc0504054a4:	b8070713          	addi	a4,a4,-1152 # ffffffc050452020 <pcb>
ffffffc0504054a8:	fe842683          	lw	a3,-24(s0)
ffffffc0504054ac:	1d000793          	li	a5,464
ffffffc0504054b0:	02f687b3          	mul	a5,a3,a5
ffffffc0504054b4:	97ba                	add	a5,a5,a4
ffffffc0504054b6:	579c                	lw	a5,40(a5)
ffffffc0504054b8:	1a079c63          	bnez	a5,ffffffc050405670 <k_process_show+0x214>
ffffffc0504054bc:	0004d717          	auipc	a4,0x4d
ffffffc0504054c0:	b6470713          	addi	a4,a4,-1180 # ffffffc050452020 <pcb>
ffffffc0504054c4:	fe842683          	lw	a3,-24(s0)
ffffffc0504054c8:	1d000793          	li	a5,464
ffffffc0504054cc:	02f687b3          	mul	a5,a3,a5
ffffffc0504054d0:	97ba                	add	a5,a5,a4
ffffffc0504054d2:	5b9c                	lw	a5,48(a5)
ffffffc0504054d4:	873e                	mv	a4,a5
ffffffc0504054d6:	4791                	li	a5,4
ffffffc0504054d8:	18f71c63          	bne	a4,a5,ffffffc050405670 <k_process_show+0x214>
ffffffc0504054dc:	fec42783          	lw	a5,-20(s0)
ffffffc0504054e0:	2785                	addiw	a5,a5,1
ffffffc0504054e2:	fef42623          	sw	a5,-20(s0)
ffffffc0504054e6:	0004d717          	auipc	a4,0x4d
ffffffc0504054ea:	b3a70713          	addi	a4,a4,-1222 # ffffffc050452020 <pcb>
ffffffc0504054ee:	fe842683          	lw	a3,-24(s0)
ffffffc0504054f2:	1d000793          	li	a5,464
ffffffc0504054f6:	02f687b3          	mul	a5,a3,a5
ffffffc0504054fa:	97ba                	add	a5,a5,a4
ffffffc0504054fc:	5b9c                	lw	a5,48(a5)
ffffffc0504054fe:	86be                	mv	a3,a5
ffffffc050405500:	4711                	li	a4,4
ffffffc050405502:	16d76963          	bltu	a4,a3,ffffffc050405674 <k_process_show+0x218>
ffffffc050405506:	00279713          	slli	a4,a5,0x2
ffffffc05040550a:	00002797          	auipc	a5,0x2
ffffffc05040550e:	6b278793          	addi	a5,a5,1714 # ffffffc050407bbc <__FUNCTION__.1825+0x20c>
ffffffc050405512:	97ba                	add	a5,a5,a4
ffffffc050405514:	439c                	lw	a5,0(a5)
ffffffc050405516:	0007871b          	sext.w	a4,a5
ffffffc05040551a:	00002797          	auipc	a5,0x2
ffffffc05040551e:	6a278793          	addi	a5,a5,1698 # ffffffc050407bbc <__FUNCTION__.1825+0x20c>
ffffffc050405522:	97ba                	add	a5,a5,a4
ffffffc050405524:	8782                	jr	a5
ffffffc050405526:	0004d717          	auipc	a4,0x4d
ffffffc05040552a:	afa70713          	addi	a4,a4,-1286 # ffffffc050452020 <pcb>
ffffffc05040552e:	fe842683          	lw	a3,-24(s0)
ffffffc050405532:	1d000793          	li	a5,464
ffffffc050405536:	02f687b3          	mul	a5,a3,a5
ffffffc05040553a:	97ba                	add	a5,a5,a4
ffffffc05040553c:	578c                	lw	a1,40(a5)
ffffffc05040553e:	0004d717          	auipc	a4,0x4d
ffffffc050405542:	ae270713          	addi	a4,a4,-1310 # ffffffc050452020 <pcb>
ffffffc050405546:	fe842683          	lw	a3,-24(s0)
ffffffc05040554a:	1d000793          	li	a5,464
ffffffc05040554e:	02f687b3          	mul	a5,a3,a5
ffffffc050405552:	97ba                	add	a5,a5,a4
ffffffc050405554:	1a07a783          	lw	a5,416(a5)
ffffffc050405558:	863e                	mv	a2,a5
ffffffc05040555a:	00002517          	auipc	a0,0x2
ffffffc05040555e:	54e50513          	addi	a0,a0,1358 # ffffffc050407aa8 <__FUNCTION__.1825+0xf8>
ffffffc050405562:	67d010ef          	jal	ra,ffffffc0504073de <prints>
ffffffc050405566:	aa01                	j	ffffffc050405676 <k_process_show+0x21a>
ffffffc050405568:	0004d717          	auipc	a4,0x4d
ffffffc05040556c:	ab870713          	addi	a4,a4,-1352 # ffffffc050452020 <pcb>
ffffffc050405570:	fe842683          	lw	a3,-24(s0)
ffffffc050405574:	1d000793          	li	a5,464
ffffffc050405578:	02f687b3          	mul	a5,a3,a5
ffffffc05040557c:	97ba                	add	a5,a5,a4
ffffffc05040557e:	578c                	lw	a1,40(a5)
ffffffc050405580:	0004d717          	auipc	a4,0x4d
ffffffc050405584:	aa070713          	addi	a4,a4,-1376 # ffffffc050452020 <pcb>
ffffffc050405588:	fe842683          	lw	a3,-24(s0)
ffffffc05040558c:	1d000793          	li	a5,464
ffffffc050405590:	02f687b3          	mul	a5,a3,a5
ffffffc050405594:	97ba                	add	a5,a5,a4
ffffffc050405596:	1a07a783          	lw	a5,416(a5)
ffffffc05040559a:	863e                	mv	a2,a5
ffffffc05040559c:	00002517          	auipc	a0,0x2
ffffffc0504055a0:	54450513          	addi	a0,a0,1348 # ffffffc050407ae0 <__FUNCTION__.1825+0x130>
ffffffc0504055a4:	63b010ef          	jal	ra,ffffffc0504073de <prints>
ffffffc0504055a8:	a0f9                	j	ffffffc050405676 <k_process_show+0x21a>
ffffffc0504055aa:	0004d717          	auipc	a4,0x4d
ffffffc0504055ae:	a7670713          	addi	a4,a4,-1418 # ffffffc050452020 <pcb>
ffffffc0504055b2:	fe842683          	lw	a3,-24(s0)
ffffffc0504055b6:	1d000793          	li	a5,464
ffffffc0504055ba:	02f687b3          	mul	a5,a3,a5
ffffffc0504055be:	97ba                	add	a5,a5,a4
ffffffc0504055c0:	578c                	lw	a1,40(a5)
ffffffc0504055c2:	0004d717          	auipc	a4,0x4d
ffffffc0504055c6:	a5e70713          	addi	a4,a4,-1442 # ffffffc050452020 <pcb>
ffffffc0504055ca:	fe842683          	lw	a3,-24(s0)
ffffffc0504055ce:	1d000793          	li	a5,464
ffffffc0504055d2:	02f687b3          	mul	a5,a3,a5
ffffffc0504055d6:	97ba                	add	a5,a5,a4
ffffffc0504055d8:	1a07a783          	lw	a5,416(a5)
ffffffc0504055dc:	863e                	mv	a2,a5
ffffffc0504055de:	00002517          	auipc	a0,0x2
ffffffc0504055e2:	53a50513          	addi	a0,a0,1338 # ffffffc050407b18 <__FUNCTION__.1825+0x168>
ffffffc0504055e6:	5f9010ef          	jal	ra,ffffffc0504073de <prints>
ffffffc0504055ea:	a071                	j	ffffffc050405676 <k_process_show+0x21a>
ffffffc0504055ec:	0004d717          	auipc	a4,0x4d
ffffffc0504055f0:	a3470713          	addi	a4,a4,-1484 # ffffffc050452020 <pcb>
ffffffc0504055f4:	fe842683          	lw	a3,-24(s0)
ffffffc0504055f8:	1d000793          	li	a5,464
ffffffc0504055fc:	02f687b3          	mul	a5,a3,a5
ffffffc050405600:	97ba                	add	a5,a5,a4
ffffffc050405602:	578c                	lw	a1,40(a5)
ffffffc050405604:	0004d717          	auipc	a4,0x4d
ffffffc050405608:	a1c70713          	addi	a4,a4,-1508 # ffffffc050452020 <pcb>
ffffffc05040560c:	fe842683          	lw	a3,-24(s0)
ffffffc050405610:	1d000793          	li	a5,464
ffffffc050405614:	02f687b3          	mul	a5,a3,a5
ffffffc050405618:	97ba                	add	a5,a5,a4
ffffffc05040561a:	1a07a783          	lw	a5,416(a5)
ffffffc05040561e:	863e                	mv	a2,a5
ffffffc050405620:	00002517          	auipc	a0,0x2
ffffffc050405624:	53050513          	addi	a0,a0,1328 # ffffffc050407b50 <__FUNCTION__.1825+0x1a0>
ffffffc050405628:	5b7010ef          	jal	ra,ffffffc0504073de <prints>
ffffffc05040562c:	a0a9                	j	ffffffc050405676 <k_process_show+0x21a>
ffffffc05040562e:	0004d717          	auipc	a4,0x4d
ffffffc050405632:	9f270713          	addi	a4,a4,-1550 # ffffffc050452020 <pcb>
ffffffc050405636:	fe842683          	lw	a3,-24(s0)
ffffffc05040563a:	1d000793          	li	a5,464
ffffffc05040563e:	02f687b3          	mul	a5,a3,a5
ffffffc050405642:	97ba                	add	a5,a5,a4
ffffffc050405644:	578c                	lw	a1,40(a5)
ffffffc050405646:	0004d717          	auipc	a4,0x4d
ffffffc05040564a:	9da70713          	addi	a4,a4,-1574 # ffffffc050452020 <pcb>
ffffffc05040564e:	fe842683          	lw	a3,-24(s0)
ffffffc050405652:	1d000793          	li	a5,464
ffffffc050405656:	02f687b3          	mul	a5,a3,a5
ffffffc05040565a:	97ba                	add	a5,a5,a4
ffffffc05040565c:	1a07a783          	lw	a5,416(a5)
ffffffc050405660:	863e                	mv	a2,a5
ffffffc050405662:	00002517          	auipc	a0,0x2
ffffffc050405666:	52650513          	addi	a0,a0,1318 # ffffffc050407b88 <__FUNCTION__.1825+0x1d8>
ffffffc05040566a:	575010ef          	jal	ra,ffffffc0504073de <prints>
ffffffc05040566e:	a021                	j	ffffffc050405676 <k_process_show+0x21a>
ffffffc050405670:	0001                	nop
ffffffc050405672:	a011                	j	ffffffc050405676 <k_process_show+0x21a>
ffffffc050405674:	0001                	nop
ffffffc050405676:	fe842783          	lw	a5,-24(s0)
ffffffc05040567a:	2785                	addiw	a5,a5,1
ffffffc05040567c:	fef42423          	sw	a5,-24(s0)
ffffffc050405680:	fe842783          	lw	a5,-24(s0)
ffffffc050405684:	0007871b          	sext.w	a4,a5
ffffffc050405688:	47bd                	li	a5,15
ffffffc05040568a:	dee7dee3          	bge	a5,a4,ffffffc050405486 <k_process_show+0x2a>
ffffffc05040568e:	fec42783          	lw	a5,-20(s0)
ffffffc050405692:	853e                	mv	a0,a5
ffffffc050405694:	60e2                	ld	ra,24(sp)
ffffffc050405696:	6442                	ld	s0,16(sp)
ffffffc050405698:	6105                	addi	sp,sp,32
ffffffc05040569a:	8082                	ret

ffffffc05040569c <k_taskset>:
ffffffc05040569c:	7179                	addi	sp,sp,-48
ffffffc05040569e:	f422                	sd	s0,40(sp)
ffffffc0504056a0:	1800                	addi	s0,sp,48
ffffffc0504056a2:	fca43c23          	sd	a0,-40(s0)
ffffffc0504056a6:	fd843783          	ld	a5,-40(s0)
ffffffc0504056aa:	fef43423          	sd	a5,-24(s0)
ffffffc0504056ae:	fe843783          	ld	a5,-24(s0)
ffffffc0504056b2:	439c                	lw	a5,0(a5)
ffffffc0504056b4:	37fd                	addiw	a5,a5,-1
ffffffc0504056b6:	fef42223          	sw	a5,-28(s0)
ffffffc0504056ba:	fe442783          	lw	a5,-28(s0)
ffffffc0504056be:	2781                	sext.w	a5,a5
ffffffc0504056c0:	00f05963          	blez	a5,ffffffc0504056d2 <k_taskset+0x36>
ffffffc0504056c4:	fe442783          	lw	a5,-28(s0)
ffffffc0504056c8:	0007871b          	sext.w	a4,a5
ffffffc0504056cc:	47bd                	li	a5,15
ffffffc0504056ce:	00e7d463          	bge	a5,a4,ffffffc0504056d6 <k_taskset+0x3a>
ffffffc0504056d2:	57fd                	li	a5,-1
ffffffc0504056d4:	a805                	j	ffffffc050405704 <k_taskset+0x68>
ffffffc0504056d6:	fe843783          	ld	a5,-24(s0)
ffffffc0504056da:	439c                	lw	a5,0(a5)
ffffffc0504056dc:	37fd                	addiw	a5,a5,-1
ffffffc0504056de:	0007861b          	sext.w	a2,a5
ffffffc0504056e2:	fe843783          	ld	a5,-24(s0)
ffffffc0504056e6:	43d8                	lw	a4,4(a5)
ffffffc0504056e8:	0004d697          	auipc	a3,0x4d
ffffffc0504056ec:	93868693          	addi	a3,a3,-1736 # ffffffc050452020 <pcb>
ffffffc0504056f0:	1d000793          	li	a5,464
ffffffc0504056f4:	02f607b3          	mul	a5,a2,a5
ffffffc0504056f8:	97b6                	add	a5,a5,a3
ffffffc0504056fa:	1ae7a023          	sw	a4,416(a5)
ffffffc0504056fe:	fe843783          	ld	a5,-24(s0)
ffffffc050405702:	439c                	lw	a5,0(a5)
ffffffc050405704:	853e                	mv	a0,a5
ffffffc050405706:	7422                	ld	s0,40(sp)
ffffffc050405708:	6145                	addi	sp,sp,48
ffffffc05040570a:	8082                	ret

ffffffc05040570c <k_getpid>:
ffffffc05040570c:	1141                	addi	sp,sp,-16
ffffffc05040570e:	e422                	sd	s0,8(sp)
ffffffc050405710:	0800                	addi	s0,sp,16
ffffffc050405712:	0004d797          	auipc	a5,0x4d
ffffffc050405716:	8fe78793          	addi	a5,a5,-1794 # ffffffc050452010 <current_running>
ffffffc05040571a:	639c                	ld	a5,0(a5)
ffffffc05040571c:	639c                	ld	a5,0(a5)
ffffffc05040571e:	579c                	lw	a5,40(a5)
ffffffc050405720:	853e                	mv	a0,a5
ffffffc050405722:	6422                	ld	s0,8(sp)
ffffffc050405724:	0141                	addi	sp,sp,16
ffffffc050405726:	8082                	ret

ffffffc050405728 <k_free_all_page>:
ffffffc050405728:	7139                	addi	sp,sp,-64
ffffffc05040572a:	fc06                	sd	ra,56(sp)
ffffffc05040572c:	f822                	sd	s0,48(sp)
ffffffc05040572e:	0080                	addi	s0,sp,64
ffffffc050405730:	87aa                	mv	a5,a0
ffffffc050405732:	fcf42623          	sw	a5,-52(s0)
ffffffc050405736:	fcc42783          	lw	a5,-52(s0)
ffffffc05040573a:	37fd                	addiw	a5,a5,-1
ffffffc05040573c:	0007871b          	sext.w	a4,a5
ffffffc050405740:	1d000793          	li	a5,464
ffffffc050405744:	02f707b3          	mul	a5,a4,a5
ffffffc050405748:	1b078713          	addi	a4,a5,432
ffffffc05040574c:	0004d797          	auipc	a5,0x4d
ffffffc050405750:	8d478793          	addi	a5,a5,-1836 # ffffffc050452020 <pcb>
ffffffc050405754:	97ba                	add	a5,a5,a4
ffffffc050405756:	fef43423          	sd	a5,-24(s0)
ffffffc05040575a:	fe043023          	sd	zero,-32(s0)
ffffffc05040575e:	a03d                	j	ffffffc05040578c <k_free_all_page+0x64>
ffffffc050405760:	fe843783          	ld	a5,-24(s0)
ffffffc050405764:	639c                	ld	a5,0(a5)
ffffffc050405766:	fcf43823          	sd	a5,-48(s0)
ffffffc05040576a:	fd043783          	ld	a5,-48(s0)
ffffffc05040576e:	1781                	addi	a5,a5,-32
ffffffc050405770:	fef43023          	sd	a5,-32(s0)
ffffffc050405774:	fe043783          	ld	a5,-32(s0)
ffffffc050405778:	639c                	ld	a5,0(a5)
ffffffc05040577a:	853e                	mv	a0,a5
ffffffc05040577c:	712000ef          	jal	ra,ffffffc050405e8e <freePage>
ffffffc050405780:	fe843783          	ld	a5,-24(s0)
ffffffc050405784:	639c                	ld	a5,0(a5)
ffffffc050405786:	853e                	mv	a0,a5
ffffffc050405788:	e96fe0ef          	jal	ra,ffffffc050403e1e <list_del>
ffffffc05040578c:	fe843503          	ld	a0,-24(s0)
ffffffc050405790:	ebcfe0ef          	jal	ra,ffffffc050403e4c <list_is_empty>
ffffffc050405794:	87aa                	mv	a5,a0
ffffffc050405796:	d7e9                	beqz	a5,ffffffc050405760 <k_free_all_page+0x38>
ffffffc050405798:	fcc42783          	lw	a5,-52(s0)
ffffffc05040579c:	37fd                	addiw	a5,a5,-1
ffffffc05040579e:	0007871b          	sext.w	a4,a5
ffffffc0504057a2:	1d000793          	li	a5,464
ffffffc0504057a6:	02f707b3          	mul	a5,a4,a5
ffffffc0504057aa:	1c078713          	addi	a4,a5,448
ffffffc0504057ae:	0004d797          	auipc	a5,0x4d
ffffffc0504057b2:	87278793          	addi	a5,a5,-1934 # ffffffc050452020 <pcb>
ffffffc0504057b6:	97ba                	add	a5,a5,a4
ffffffc0504057b8:	fef43423          	sd	a5,-24(s0)
ffffffc0504057bc:	a03d                	j	ffffffc0504057ea <k_free_all_page+0xc2>
ffffffc0504057be:	fe843783          	ld	a5,-24(s0)
ffffffc0504057c2:	639c                	ld	a5,0(a5)
ffffffc0504057c4:	fcf43c23          	sd	a5,-40(s0)
ffffffc0504057c8:	fd843783          	ld	a5,-40(s0)
ffffffc0504057cc:	1781                	addi	a5,a5,-32
ffffffc0504057ce:	fef43023          	sd	a5,-32(s0)
ffffffc0504057d2:	fe043783          	ld	a5,-32(s0)
ffffffc0504057d6:	639c                	ld	a5,0(a5)
ffffffc0504057d8:	853e                	mv	a0,a5
ffffffc0504057da:	6b4000ef          	jal	ra,ffffffc050405e8e <freePage>
ffffffc0504057de:	fe843783          	ld	a5,-24(s0)
ffffffc0504057e2:	639c                	ld	a5,0(a5)
ffffffc0504057e4:	853e                	mv	a0,a5
ffffffc0504057e6:	e38fe0ef          	jal	ra,ffffffc050403e1e <list_del>
ffffffc0504057ea:	fe843503          	ld	a0,-24(s0)
ffffffc0504057ee:	e5efe0ef          	jal	ra,ffffffc050403e4c <list_is_empty>
ffffffc0504057f2:	87aa                	mv	a5,a0
ffffffc0504057f4:	d7e9                	beqz	a5,ffffffc0504057be <k_free_all_page+0x96>
ffffffc0504057f6:	0001                	nop
ffffffc0504057f8:	0001                	nop
ffffffc0504057fa:	70e2                	ld	ra,56(sp)
ffffffc0504057fc:	7442                	ld	s0,48(sp)
ffffffc0504057fe:	6121                	addi	sp,sp,64
ffffffc050405800:	8082                	ret

ffffffc050405802 <list_init_with_null>:
ffffffc050405802:	1101                	addi	sp,sp,-32
ffffffc050405804:	ec22                	sd	s0,24(sp)
ffffffc050405806:	1000                	addi	s0,sp,32
ffffffc050405808:	fea43423          	sd	a0,-24(s0)
ffffffc05040580c:	fe843783          	ld	a5,-24(s0)
ffffffc050405810:	0007b023          	sd	zero,0(a5)
ffffffc050405814:	fe843783          	ld	a5,-24(s0)
ffffffc050405818:	0007b423          	sd	zero,8(a5)
ffffffc05040581c:	0001                	nop
ffffffc05040581e:	6462                	ld	s0,24(sp)
ffffffc050405820:	6105                	addi	sp,sp,32
ffffffc050405822:	8082                	ret

ffffffc050405824 <__list_add>:
ffffffc050405824:	7179                	addi	sp,sp,-48
ffffffc050405826:	f422                	sd	s0,40(sp)
ffffffc050405828:	1800                	addi	s0,sp,48
ffffffc05040582a:	fea43423          	sd	a0,-24(s0)
ffffffc05040582e:	feb43023          	sd	a1,-32(s0)
ffffffc050405832:	fcc43c23          	sd	a2,-40(s0)
ffffffc050405836:	fd843783          	ld	a5,-40(s0)
ffffffc05040583a:	fe843703          	ld	a4,-24(s0)
ffffffc05040583e:	e798                	sd	a4,8(a5)
ffffffc050405840:	fe843783          	ld	a5,-24(s0)
ffffffc050405844:	fd843703          	ld	a4,-40(s0)
ffffffc050405848:	e398                	sd	a4,0(a5)
ffffffc05040584a:	fe843783          	ld	a5,-24(s0)
ffffffc05040584e:	fe043703          	ld	a4,-32(s0)
ffffffc050405852:	e798                	sd	a4,8(a5)
ffffffc050405854:	fe043783          	ld	a5,-32(s0)
ffffffc050405858:	fe843703          	ld	a4,-24(s0)
ffffffc05040585c:	e398                	sd	a4,0(a5)
ffffffc05040585e:	0001                	nop
ffffffc050405860:	7422                	ld	s0,40(sp)
ffffffc050405862:	6145                	addi	sp,sp,48
ffffffc050405864:	8082                	ret

ffffffc050405866 <list_add>:
ffffffc050405866:	1101                	addi	sp,sp,-32
ffffffc050405868:	ec06                	sd	ra,24(sp)
ffffffc05040586a:	e822                	sd	s0,16(sp)
ffffffc05040586c:	1000                	addi	s0,sp,32
ffffffc05040586e:	fea43423          	sd	a0,-24(s0)
ffffffc050405872:	feb43023          	sd	a1,-32(s0)
ffffffc050405876:	fe043783          	ld	a5,-32(s0)
ffffffc05040587a:	639c                	ld	a5,0(a5)
ffffffc05040587c:	863e                	mv	a2,a5
ffffffc05040587e:	fe043583          	ld	a1,-32(s0)
ffffffc050405882:	fe843503          	ld	a0,-24(s0)
ffffffc050405886:	f9fff0ef          	jal	ra,ffffffc050405824 <__list_add>
ffffffc05040588a:	0001                	nop
ffffffc05040588c:	60e2                	ld	ra,24(sp)
ffffffc05040588e:	6442                	ld	s0,16(sp)
ffffffc050405890:	6105                	addi	sp,sp,32
ffffffc050405892:	8082                	ret

ffffffc050405894 <__list_del>:
ffffffc050405894:	1101                	addi	sp,sp,-32
ffffffc050405896:	ec22                	sd	s0,24(sp)
ffffffc050405898:	1000                	addi	s0,sp,32
ffffffc05040589a:	fea43423          	sd	a0,-24(s0)
ffffffc05040589e:	feb43023          	sd	a1,-32(s0)
ffffffc0504058a2:	fe043783          	ld	a5,-32(s0)
ffffffc0504058a6:	fe843703          	ld	a4,-24(s0)
ffffffc0504058aa:	e798                	sd	a4,8(a5)
ffffffc0504058ac:	fe843783          	ld	a5,-24(s0)
ffffffc0504058b0:	fe043703          	ld	a4,-32(s0)
ffffffc0504058b4:	e398                	sd	a4,0(a5)
ffffffc0504058b6:	0001                	nop
ffffffc0504058b8:	6462                	ld	s0,24(sp)
ffffffc0504058ba:	6105                	addi	sp,sp,32
ffffffc0504058bc:	8082                	ret

ffffffc0504058be <__list_del_entry>:
ffffffc0504058be:	1101                	addi	sp,sp,-32
ffffffc0504058c0:	ec06                	sd	ra,24(sp)
ffffffc0504058c2:	e822                	sd	s0,16(sp)
ffffffc0504058c4:	1000                	addi	s0,sp,32
ffffffc0504058c6:	fea43423          	sd	a0,-24(s0)
ffffffc0504058ca:	fe843783          	ld	a5,-24(s0)
ffffffc0504058ce:	6798                	ld	a4,8(a5)
ffffffc0504058d0:	fe843783          	ld	a5,-24(s0)
ffffffc0504058d4:	639c                	ld	a5,0(a5)
ffffffc0504058d6:	85be                	mv	a1,a5
ffffffc0504058d8:	853a                	mv	a0,a4
ffffffc0504058da:	fbbff0ef          	jal	ra,ffffffc050405894 <__list_del>
ffffffc0504058de:	0001                	nop
ffffffc0504058e0:	60e2                	ld	ra,24(sp)
ffffffc0504058e2:	6442                	ld	s0,16(sp)
ffffffc0504058e4:	6105                	addi	sp,sp,32
ffffffc0504058e6:	8082                	ret

ffffffc0504058e8 <list_del>:
ffffffc0504058e8:	1101                	addi	sp,sp,-32
ffffffc0504058ea:	ec06                	sd	ra,24(sp)
ffffffc0504058ec:	e822                	sd	s0,16(sp)
ffffffc0504058ee:	1000                	addi	s0,sp,32
ffffffc0504058f0:	fea43423          	sd	a0,-24(s0)
ffffffc0504058f4:	fe843503          	ld	a0,-24(s0)
ffffffc0504058f8:	fc7ff0ef          	jal	ra,ffffffc0504058be <__list_del_entry>
ffffffc0504058fc:	fe843783          	ld	a5,-24(s0)
ffffffc050405900:	0007b023          	sd	zero,0(a5)
ffffffc050405904:	fe843783          	ld	a5,-24(s0)
ffffffc050405908:	0007b423          	sd	zero,8(a5)
ffffffc05040590c:	0001                	nop
ffffffc05040590e:	60e2                	ld	ra,24(sp)
ffffffc050405910:	6442                	ld	s0,16(sp)
ffffffc050405912:	6105                	addi	sp,sp,32
ffffffc050405914:	8082                	ret

ffffffc050405916 <list_is_empty>:
ffffffc050405916:	1101                	addi	sp,sp,-32
ffffffc050405918:	ec22                	sd	s0,24(sp)
ffffffc05040591a:	1000                	addi	s0,sp,32
ffffffc05040591c:	fea43423          	sd	a0,-24(s0)
ffffffc050405920:	fe843783          	ld	a5,-24(s0)
ffffffc050405924:	639c                	ld	a5,0(a5)
ffffffc050405926:	fe843703          	ld	a4,-24(s0)
ffffffc05040592a:	40f707b3          	sub	a5,a4,a5
ffffffc05040592e:	0017b793          	seqz	a5,a5
ffffffc050405932:	0ff7f793          	andi	a5,a5,255
ffffffc050405936:	2781                	sext.w	a5,a5
ffffffc050405938:	853e                	mv	a0,a5
ffffffc05040593a:	6462                	ld	s0,24(sp)
ffffffc05040593c:	6105                	addi	sp,sp,32
ffffffc05040593e:	8082                	ret

ffffffc050405940 <get_ticks>:
ffffffc050405940:	1141                	addi	sp,sp,-16
ffffffc050405942:	e422                	sd	s0,8(sp)
ffffffc050405944:	0800                	addi	s0,sp,16
ffffffc050405946:	c0102773          	rdtime	a4
ffffffc05040594a:	86018793          	addi	a5,gp,-1952 # ffffffc05044ca08 <time_elapsed>
ffffffc05040594e:	e398                	sd	a4,0(a5)
ffffffc050405950:	86018793          	addi	a5,gp,-1952 # ffffffc05044ca08 <time_elapsed>
ffffffc050405954:	639c                	ld	a5,0(a5)
ffffffc050405956:	853e                	mv	a0,a5
ffffffc050405958:	6422                	ld	s0,8(sp)
ffffffc05040595a:	0141                	addi	sp,sp,16
ffffffc05040595c:	8082                	ret

ffffffc05040595e <get_timer>:
ffffffc05040595e:	1141                	addi	sp,sp,-16
ffffffc050405960:	e406                	sd	ra,8(sp)
ffffffc050405962:	e022                	sd	s0,0(sp)
ffffffc050405964:	0800                	addi	s0,sp,16
ffffffc050405966:	fdbff0ef          	jal	ra,ffffffc050405940 <get_ticks>
ffffffc05040596a:	872a                	mv	a4,a0
ffffffc05040596c:	86818793          	addi	a5,gp,-1944 # ffffffc05044ca10 <time_base>
ffffffc050405970:	439c                	lw	a5,0(a5)
ffffffc050405972:	1782                	slli	a5,a5,0x20
ffffffc050405974:	9381                	srli	a5,a5,0x20
ffffffc050405976:	02f757b3          	divu	a5,a4,a5
ffffffc05040597a:	853e                	mv	a0,a5
ffffffc05040597c:	60a2                	ld	ra,8(sp)
ffffffc05040597e:	6402                	ld	s0,0(sp)
ffffffc050405980:	0141                	addi	sp,sp,16
ffffffc050405982:	8082                	ret

ffffffc050405984 <get_time_base>:
ffffffc050405984:	1141                	addi	sp,sp,-16
ffffffc050405986:	e422                	sd	s0,8(sp)
ffffffc050405988:	0800                	addi	s0,sp,16
ffffffc05040598a:	86818793          	addi	a5,gp,-1944 # ffffffc05044ca10 <time_base>
ffffffc05040598e:	439c                	lw	a5,0(a5)
ffffffc050405990:	1782                	slli	a5,a5,0x20
ffffffc050405992:	9381                	srli	a5,a5,0x20
ffffffc050405994:	853e                	mv	a0,a5
ffffffc050405996:	6422                	ld	s0,8(sp)
ffffffc050405998:	0141                	addi	sp,sp,16
ffffffc05040599a:	8082                	ret

ffffffc05040599c <get_wall_time>:
ffffffc05040599c:	1101                	addi	sp,sp,-32
ffffffc05040599e:	ec06                	sd	ra,24(sp)
ffffffc0504059a0:	e822                	sd	s0,16(sp)
ffffffc0504059a2:	1000                	addi	s0,sp,32
ffffffc0504059a4:	fea43423          	sd	a0,-24(s0)
ffffffc0504059a8:	f99ff0ef          	jal	ra,ffffffc050405940 <get_ticks>
ffffffc0504059ac:	872a                	mv	a4,a0
ffffffc0504059ae:	fe843783          	ld	a5,-24(s0)
ffffffc0504059b2:	e398                	sd	a4,0(a5)
ffffffc0504059b4:	fd1ff0ef          	jal	ra,ffffffc050405984 <get_time_base>
ffffffc0504059b8:	87aa                	mv	a5,a0
ffffffc0504059ba:	2781                	sext.w	a5,a5
ffffffc0504059bc:	853e                	mv	a0,a5
ffffffc0504059be:	60e2                	ld	ra,24(sp)
ffffffc0504059c0:	6442                	ld	s0,16(sp)
ffffffc0504059c2:	6105                	addi	sp,sp,32
ffffffc0504059c4:	8082                	ret

ffffffc0504059c6 <latency>:
ffffffc0504059c6:	7179                	addi	sp,sp,-48
ffffffc0504059c8:	f406                	sd	ra,40(sp)
ffffffc0504059ca:	f022                	sd	s0,32(sp)
ffffffc0504059cc:	1800                	addi	s0,sp,48
ffffffc0504059ce:	fca43c23          	sd	a0,-40(s0)
ffffffc0504059d2:	f8dff0ef          	jal	ra,ffffffc05040595e <get_timer>
ffffffc0504059d6:	fea43423          	sd	a0,-24(s0)
ffffffc0504059da:	0001                	nop
ffffffc0504059dc:	f83ff0ef          	jal	ra,ffffffc05040595e <get_timer>
ffffffc0504059e0:	872a                	mv	a4,a0
ffffffc0504059e2:	fe843783          	ld	a5,-24(s0)
ffffffc0504059e6:	40f707b3          	sub	a5,a4,a5
ffffffc0504059ea:	fd843703          	ld	a4,-40(s0)
ffffffc0504059ee:	fee7e7e3          	bltu	a5,a4,ffffffc0504059dc <latency+0x16>
ffffffc0504059f2:	0001                	nop
ffffffc0504059f4:	70a2                	ld	ra,40(sp)
ffffffc0504059f6:	7402                	ld	s0,32(sp)
ffffffc0504059f8:	6145                	addi	sp,sp,48
ffffffc0504059fa:	8082                	ret

ffffffc0504059fc <create_timer>:
ffffffc0504059fc:	711d                	addi	sp,sp,-96
ffffffc0504059fe:	ec86                	sd	ra,88(sp)
ffffffc050405a00:	e8a2                	sd	s0,80(sp)
ffffffc050405a02:	e4a6                	sd	s1,72(sp)
ffffffc050405a04:	1080                	addi	s0,sp,96
ffffffc050405a06:	faa43c23          	sd	a0,-72(s0)
ffffffc050405a0a:	fab43823          	sd	a1,-80(s0)
ffffffc050405a0e:	fac43423          	sd	a2,-88(s0)
ffffffc050405a12:	0004c797          	auipc	a5,0x4c
ffffffc050405a16:	5fe78793          	addi	a5,a5,1534 # ffffffc050452010 <current_running>
ffffffc050405a1a:	639c                	ld	a5,0(a5)
ffffffc050405a1c:	639c                	ld	a5,0(a5)
ffffffc050405a1e:	4705                	li	a4,1
ffffffc050405a20:	08e7a023          	sw	a4,128(a5)
ffffffc050405a24:	0004c797          	auipc	a5,0x4c
ffffffc050405a28:	5ec78793          	addi	a5,a5,1516 # ffffffc050452010 <current_running>
ffffffc050405a2c:	639c                	ld	a5,0(a5)
ffffffc050405a2e:	6384                	ld	s1,0(a5)
ffffffc050405a30:	f11ff0ef          	jal	ra,ffffffc050405940 <get_ticks>
ffffffc050405a34:	87aa                	mv	a5,a0
ffffffc050405a36:	e4dc                	sd	a5,136(s1)
ffffffc050405a38:	0004c797          	auipc	a5,0x4c
ffffffc050405a3c:	5d878793          	addi	a5,a5,1496 # ffffffc050452010 <current_running>
ffffffc050405a40:	639c                	ld	a5,0(a5)
ffffffc050405a42:	639c                	ld	a5,0(a5)
ffffffc050405a44:	67d4                	ld	a3,136(a5)
ffffffc050405a46:	0004c797          	auipc	a5,0x4c
ffffffc050405a4a:	5ca78793          	addi	a5,a5,1482 # ffffffc050452010 <current_running>
ffffffc050405a4e:	639c                	ld	a5,0(a5)
ffffffc050405a50:	639c                	ld	a5,0(a5)
ffffffc050405a52:	fb843703          	ld	a4,-72(s0)
ffffffc050405a56:	9736                	add	a4,a4,a3
ffffffc050405a58:	ebd8                	sd	a4,144(a5)
ffffffc050405a5a:	0004c797          	auipc	a5,0x4c
ffffffc050405a5e:	5b678793          	addi	a5,a5,1462 # ffffffc050452010 <current_running>
ffffffc050405a62:	639c                	ld	a5,0(a5)
ffffffc050405a64:	639c                	ld	a5,0(a5)
ffffffc050405a66:	fb043703          	ld	a4,-80(s0)
ffffffc050405a6a:	efd8                	sd	a4,152(a5)
ffffffc050405a6c:	0004c797          	auipc	a5,0x4c
ffffffc050405a70:	5a478793          	addi	a5,a5,1444 # ffffffc050452010 <current_running>
ffffffc050405a74:	639c                	ld	a5,0(a5)
ffffffc050405a76:	639c                	ld	a5,0(a5)
ffffffc050405a78:	fa843703          	ld	a4,-88(s0)
ffffffc050405a7c:	f3d8                	sd	a4,160(a5)
ffffffc050405a7e:	00002797          	auipc	a5,0x2
ffffffc050405a82:	5da78793          	addi	a5,a5,1498 # ffffffc050408058 <timers>
ffffffc050405a86:	639c                	ld	a5,0(a5)
ffffffc050405a88:	fcf43c23          	sd	a5,-40(s0)
ffffffc050405a8c:	fc043823          	sd	zero,-48(s0)
ffffffc050405a90:	a825                	j	ffffffc050405ac8 <create_timer+0xcc>
ffffffc050405a92:	fd843783          	ld	a5,-40(s0)
ffffffc050405a96:	fcf43423          	sd	a5,-56(s0)
ffffffc050405a9a:	fc843783          	ld	a5,-56(s0)
ffffffc050405a9e:	f9078793          	addi	a5,a5,-112
ffffffc050405aa2:	fcf43823          	sd	a5,-48(s0)
ffffffc050405aa6:	fd043783          	ld	a5,-48(s0)
ffffffc050405aaa:	6bd8                	ld	a4,144(a5)
ffffffc050405aac:	0004c797          	auipc	a5,0x4c
ffffffc050405ab0:	56478793          	addi	a5,a5,1380 # ffffffc050452010 <current_running>
ffffffc050405ab4:	639c                	ld	a5,0(a5)
ffffffc050405ab6:	639c                	ld	a5,0(a5)
ffffffc050405ab8:	6bdc                	ld	a5,144(a5)
ffffffc050405aba:	02e7e063          	bltu	a5,a4,ffffffc050405ada <create_timer+0xde>
ffffffc050405abe:	fd843783          	ld	a5,-40(s0)
ffffffc050405ac2:	639c                	ld	a5,0(a5)
ffffffc050405ac4:	fcf43c23          	sd	a5,-40(s0)
ffffffc050405ac8:	fd843703          	ld	a4,-40(s0)
ffffffc050405acc:	00002797          	auipc	a5,0x2
ffffffc050405ad0:	58c78793          	addi	a5,a5,1420 # ffffffc050408058 <timers>
ffffffc050405ad4:	faf71fe3          	bne	a4,a5,ffffffc050405a92 <create_timer+0x96>
ffffffc050405ad8:	a011                	j	ffffffc050405adc <create_timer+0xe0>
ffffffc050405ada:	0001                	nop
ffffffc050405adc:	0004c797          	auipc	a5,0x4c
ffffffc050405ae0:	53478793          	addi	a5,a5,1332 # ffffffc050452010 <current_running>
ffffffc050405ae4:	639c                	ld	a5,0(a5)
ffffffc050405ae6:	639c                	ld	a5,0(a5)
ffffffc050405ae8:	07078713          	addi	a4,a5,112
ffffffc050405aec:	fd843783          	ld	a5,-40(s0)
ffffffc050405af0:	679c                	ld	a5,8(a5)
ffffffc050405af2:	85be                	mv	a1,a5
ffffffc050405af4:	853a                	mv	a0,a4
ffffffc050405af6:	d71ff0ef          	jal	ra,ffffffc050405866 <list_add>
ffffffc050405afa:	0001                	nop
ffffffc050405afc:	60e6                	ld	ra,88(sp)
ffffffc050405afe:	6446                	ld	s0,80(sp)
ffffffc050405b00:	64a6                	ld	s1,72(sp)
ffffffc050405b02:	6125                	addi	sp,sp,96
ffffffc050405b04:	8082                	ret

ffffffc050405b06 <check_timer>:
ffffffc050405b06:	7179                	addi	sp,sp,-48
ffffffc050405b08:	f406                	sd	ra,40(sp)
ffffffc050405b0a:	f022                	sd	s0,32(sp)
ffffffc050405b0c:	1800                	addi	s0,sp,48
ffffffc050405b0e:	fe043023          	sd	zero,-32(s0)
ffffffc050405b12:	00002797          	auipc	a5,0x2
ffffffc050405b16:	54678793          	addi	a5,a5,1350 # ffffffc050408058 <timers>
ffffffc050405b1a:	639c                	ld	a5,0(a5)
ffffffc050405b1c:	fef43423          	sd	a5,-24(s0)
ffffffc050405b20:	a885                	j	ffffffc050405b90 <check_timer+0x8a>
ffffffc050405b22:	fe843783          	ld	a5,-24(s0)
ffffffc050405b26:	fcf43c23          	sd	a5,-40(s0)
ffffffc050405b2a:	fd843783          	ld	a5,-40(s0)
ffffffc050405b2e:	f9078793          	addi	a5,a5,-112
ffffffc050405b32:	fef43023          	sd	a5,-32(s0)
ffffffc050405b36:	e0bff0ef          	jal	ra,ffffffc050405940 <get_ticks>
ffffffc050405b3a:	872a                	mv	a4,a0
ffffffc050405b3c:	fe043783          	ld	a5,-32(s0)
ffffffc050405b40:	6bdc                	ld	a5,144(a5)
ffffffc050405b42:	06f76863          	bltu	a4,a5,ffffffc050405bb2 <check_timer+0xac>
ffffffc050405b46:	fe843783          	ld	a5,-24(s0)
ffffffc050405b4a:	639c                	ld	a5,0(a5)
ffffffc050405b4c:	fef43423          	sd	a5,-24(s0)
ffffffc050405b50:	fe843783          	ld	a5,-24(s0)
ffffffc050405b54:	679c                	ld	a5,8(a5)
ffffffc050405b56:	853e                	mv	a0,a5
ffffffc050405b58:	d91ff0ef          	jal	ra,ffffffc0504058e8 <list_del>
ffffffc050405b5c:	fe043783          	ld	a5,-32(s0)
ffffffc050405b60:	6fd8                	ld	a4,152(a5)
ffffffc050405b62:	fe043783          	ld	a5,-32(s0)
ffffffc050405b66:	73dc                	ld	a5,160(a5)
ffffffc050405b68:	4585                	li	a1,1
ffffffc050405b6a:	853e                	mv	a0,a5
ffffffc050405b6c:	9702                	jalr	a4
ffffffc050405b6e:	fe043783          	ld	a5,-32(s0)
ffffffc050405b72:	08078793          	addi	a5,a5,128
ffffffc050405b76:	02800613          	li	a2,40
ffffffc050405b7a:	4581                	li	a1,0
ffffffc050405b7c:	853e                	mv	a0,a5
ffffffc050405b7e:	5e7000ef          	jal	ra,ffffffc050406964 <memset>
ffffffc050405b82:	fe043783          	ld	a5,-32(s0)
ffffffc050405b86:	07078793          	addi	a5,a5,112
ffffffc050405b8a:	853e                	mv	a0,a5
ffffffc050405b8c:	c77ff0ef          	jal	ra,ffffffc050405802 <list_init_with_null>
ffffffc050405b90:	00002517          	auipc	a0,0x2
ffffffc050405b94:	4c850513          	addi	a0,a0,1224 # ffffffc050408058 <timers>
ffffffc050405b98:	d7fff0ef          	jal	ra,ffffffc050405916 <list_is_empty>
ffffffc050405b9c:	87aa                	mv	a5,a0
ffffffc050405b9e:	eb99                	bnez	a5,ffffffc050405bb4 <check_timer+0xae>
ffffffc050405ba0:	fe843703          	ld	a4,-24(s0)
ffffffc050405ba4:	00002797          	auipc	a5,0x2
ffffffc050405ba8:	4b478793          	addi	a5,a5,1204 # ffffffc050408058 <timers>
ffffffc050405bac:	f6f71be3          	bne	a4,a5,ffffffc050405b22 <check_timer+0x1c>
ffffffc050405bb0:	a011                	j	ffffffc050405bb4 <check_timer+0xae>
ffffffc050405bb2:	0001                	nop
ffffffc050405bb4:	0001                	nop
ffffffc050405bb6:	70a2                	ld	ra,40(sp)
ffffffc050405bb8:	7402                	ld	s0,32(sp)
ffffffc050405bba:	6145                	addi	sp,sp,48
ffffffc050405bbc:	8082                	ret

ffffffc050405bbe <sbi_send_ipi>:
ffffffc050405bbe:	1101                	addi	sp,sp,-32
ffffffc050405bc0:	ec22                	sd	s0,24(sp)
ffffffc050405bc2:	1000                	addi	s0,sp,32
ffffffc050405bc4:	fea43423          	sd	a0,-24(s0)
ffffffc050405bc8:	fe843783          	ld	a5,-24(s0)
ffffffc050405bcc:	853e                	mv	a0,a5
ffffffc050405bce:	4581                	li	a1,0
ffffffc050405bd0:	4601                	li	a2,0
ffffffc050405bd2:	4891                	li	a7,4
ffffffc050405bd4:	00000073          	ecall
ffffffc050405bd8:	0001                	nop
ffffffc050405bda:	6462                	ld	s0,24(sp)
ffffffc050405bdc:	6105                	addi	sp,sp,32
ffffffc050405bde:	8082                	ret

ffffffc050405be0 <smp_init>:
ffffffc050405be0:	1141                	addi	sp,sp,-16
ffffffc050405be2:	e406                	sd	ra,8(sp)
ffffffc050405be4:	e022                	sd	s0,0(sp)
ffffffc050405be6:	0800                	addi	s0,sp,16
ffffffc050405be8:	0004e517          	auipc	a0,0x4e
ffffffc050405bec:	14850513          	addi	a0,a0,328 # ffffffc050453d30 <kernel_lock>
ffffffc050405bf0:	eeffb0ef          	jal	ra,ffffffc050401ade <spin_lock_init>
ffffffc050405bf4:	0001                	nop
ffffffc050405bf6:	60a2                	ld	ra,8(sp)
ffffffc050405bf8:	6402                	ld	s0,0(sp)
ffffffc050405bfa:	0141                	addi	sp,sp,16
ffffffc050405bfc:	8082                	ret

ffffffc050405bfe <wakeup_other_hart>:
ffffffc050405bfe:	1141                	addi	sp,sp,-16
ffffffc050405c00:	e406                	sd	ra,8(sp)
ffffffc050405c02:	e022                	sd	s0,0(sp)
ffffffc050405c04:	0800                	addi	s0,sp,16
ffffffc050405c06:	4501                	li	a0,0
ffffffc050405c08:	fb7ff0ef          	jal	ra,ffffffc050405bbe <sbi_send_ipi>
ffffffc050405c0c:	14401073          	csrw	sip,zero
ffffffc050405c10:	0001                	nop
ffffffc050405c12:	60a2                	ld	ra,8(sp)
ffffffc050405c14:	6402                	ld	s0,0(sp)
ffffffc050405c16:	0141                	addi	sp,sp,16
ffffffc050405c18:	8082                	ret

ffffffc050405c1a <lock_kernel>:
ffffffc050405c1a:	1141                	addi	sp,sp,-16
ffffffc050405c1c:	e406                	sd	ra,8(sp)
ffffffc050405c1e:	e022                	sd	s0,0(sp)
ffffffc050405c20:	0800                	addi	s0,sp,16
ffffffc050405c22:	0004e517          	auipc	a0,0x4e
ffffffc050405c26:	10e50513          	addi	a0,a0,270 # ffffffc050453d30 <kernel_lock>
ffffffc050405c2a:	ef5fb0ef          	jal	ra,ffffffc050401b1e <spin_lock_acquire>
ffffffc050405c2e:	0001                	nop
ffffffc050405c30:	60a2                	ld	ra,8(sp)
ffffffc050405c32:	6402                	ld	s0,0(sp)
ffffffc050405c34:	0141                	addi	sp,sp,16
ffffffc050405c36:	8082                	ret

ffffffc050405c38 <unlock_kernel>:
ffffffc050405c38:	1141                	addi	sp,sp,-16
ffffffc050405c3a:	e406                	sd	ra,8(sp)
ffffffc050405c3c:	e022                	sd	s0,0(sp)
ffffffc050405c3e:	0800                	addi	s0,sp,16
ffffffc050405c40:	0004e517          	auipc	a0,0x4e
ffffffc050405c44:	0f050513          	addi	a0,a0,240 # ffffffc050453d30 <kernel_lock>
ffffffc050405c48:	f03fb0ef          	jal	ra,ffffffc050401b4a <spin_lock_release>
ffffffc050405c4c:	0001                	nop
ffffffc050405c4e:	60a2                	ld	ra,8(sp)
ffffffc050405c50:	6402                	ld	s0,0(sp)
ffffffc050405c52:	0141                	addi	sp,sp,16
ffffffc050405c54:	8082                	ret

ffffffc050405c56 <__list_add>:
ffffffc050405c56:	7179                	addi	sp,sp,-48
ffffffc050405c58:	f422                	sd	s0,40(sp)
ffffffc050405c5a:	1800                	addi	s0,sp,48
ffffffc050405c5c:	fea43423          	sd	a0,-24(s0)
ffffffc050405c60:	feb43023          	sd	a1,-32(s0)
ffffffc050405c64:	fcc43c23          	sd	a2,-40(s0)
ffffffc050405c68:	fd843783          	ld	a5,-40(s0)
ffffffc050405c6c:	fe843703          	ld	a4,-24(s0)
ffffffc050405c70:	e798                	sd	a4,8(a5)
ffffffc050405c72:	fe843783          	ld	a5,-24(s0)
ffffffc050405c76:	fd843703          	ld	a4,-40(s0)
ffffffc050405c7a:	e398                	sd	a4,0(a5)
ffffffc050405c7c:	fe843783          	ld	a5,-24(s0)
ffffffc050405c80:	fe043703          	ld	a4,-32(s0)
ffffffc050405c84:	e798                	sd	a4,8(a5)
ffffffc050405c86:	fe043783          	ld	a5,-32(s0)
ffffffc050405c8a:	fe843703          	ld	a4,-24(s0)
ffffffc050405c8e:	e398                	sd	a4,0(a5)
ffffffc050405c90:	0001                	nop
ffffffc050405c92:	7422                	ld	s0,40(sp)
ffffffc050405c94:	6145                	addi	sp,sp,48
ffffffc050405c96:	8082                	ret

ffffffc050405c98 <list_add_tail>:
ffffffc050405c98:	1101                	addi	sp,sp,-32
ffffffc050405c9a:	ec06                	sd	ra,24(sp)
ffffffc050405c9c:	e822                	sd	s0,16(sp)
ffffffc050405c9e:	1000                	addi	s0,sp,32
ffffffc050405ca0:	fea43423          	sd	a0,-24(s0)
ffffffc050405ca4:	feb43023          	sd	a1,-32(s0)
ffffffc050405ca8:	fe043783          	ld	a5,-32(s0)
ffffffc050405cac:	679c                	ld	a5,8(a5)
ffffffc050405cae:	fe043603          	ld	a2,-32(s0)
ffffffc050405cb2:	85be                	mv	a1,a5
ffffffc050405cb4:	fe843503          	ld	a0,-24(s0)
ffffffc050405cb8:	f9fff0ef          	jal	ra,ffffffc050405c56 <__list_add>
ffffffc050405cbc:	0001                	nop
ffffffc050405cbe:	60e2                	ld	ra,24(sp)
ffffffc050405cc0:	6442                	ld	s0,16(sp)
ffffffc050405cc2:	6105                	addi	sp,sp,32
ffffffc050405cc4:	8082                	ret

ffffffc050405cc6 <__list_del>:
ffffffc050405cc6:	1101                	addi	sp,sp,-32
ffffffc050405cc8:	ec22                	sd	s0,24(sp)
ffffffc050405cca:	1000                	addi	s0,sp,32
ffffffc050405ccc:	fea43423          	sd	a0,-24(s0)
ffffffc050405cd0:	feb43023          	sd	a1,-32(s0)
ffffffc050405cd4:	fe043783          	ld	a5,-32(s0)
ffffffc050405cd8:	fe843703          	ld	a4,-24(s0)
ffffffc050405cdc:	e798                	sd	a4,8(a5)
ffffffc050405cde:	fe843783          	ld	a5,-24(s0)
ffffffc050405ce2:	fe043703          	ld	a4,-32(s0)
ffffffc050405ce6:	e398                	sd	a4,0(a5)
ffffffc050405ce8:	0001                	nop
ffffffc050405cea:	6462                	ld	s0,24(sp)
ffffffc050405cec:	6105                	addi	sp,sp,32
ffffffc050405cee:	8082                	ret

ffffffc050405cf0 <__list_del_entry>:
ffffffc050405cf0:	1101                	addi	sp,sp,-32
ffffffc050405cf2:	ec06                	sd	ra,24(sp)
ffffffc050405cf4:	e822                	sd	s0,16(sp)
ffffffc050405cf6:	1000                	addi	s0,sp,32
ffffffc050405cf8:	fea43423          	sd	a0,-24(s0)
ffffffc050405cfc:	fe843783          	ld	a5,-24(s0)
ffffffc050405d00:	6798                	ld	a4,8(a5)
ffffffc050405d02:	fe843783          	ld	a5,-24(s0)
ffffffc050405d06:	639c                	ld	a5,0(a5)
ffffffc050405d08:	85be                	mv	a1,a5
ffffffc050405d0a:	853a                	mv	a0,a4
ffffffc050405d0c:	fbbff0ef          	jal	ra,ffffffc050405cc6 <__list_del>
ffffffc050405d10:	0001                	nop
ffffffc050405d12:	60e2                	ld	ra,24(sp)
ffffffc050405d14:	6442                	ld	s0,16(sp)
ffffffc050405d16:	6105                	addi	sp,sp,32
ffffffc050405d18:	8082                	ret

ffffffc050405d1a <list_del>:
ffffffc050405d1a:	1101                	addi	sp,sp,-32
ffffffc050405d1c:	ec06                	sd	ra,24(sp)
ffffffc050405d1e:	e822                	sd	s0,16(sp)
ffffffc050405d20:	1000                	addi	s0,sp,32
ffffffc050405d22:	fea43423          	sd	a0,-24(s0)
ffffffc050405d26:	fe843503          	ld	a0,-24(s0)
ffffffc050405d2a:	fc7ff0ef          	jal	ra,ffffffc050405cf0 <__list_del_entry>
ffffffc050405d2e:	fe843783          	ld	a5,-24(s0)
ffffffc050405d32:	0007b023          	sd	zero,0(a5)
ffffffc050405d36:	fe843783          	ld	a5,-24(s0)
ffffffc050405d3a:	0007b423          	sd	zero,8(a5)
ffffffc050405d3e:	0001                	nop
ffffffc050405d40:	60e2                	ld	ra,24(sp)
ffffffc050405d42:	6442                	ld	s0,16(sp)
ffffffc050405d44:	6105                	addi	sp,sp,32
ffffffc050405d46:	8082                	ret

ffffffc050405d48 <list_is_empty>:
ffffffc050405d48:	1101                	addi	sp,sp,-32
ffffffc050405d4a:	ec22                	sd	s0,24(sp)
ffffffc050405d4c:	1000                	addi	s0,sp,32
ffffffc050405d4e:	fea43423          	sd	a0,-24(s0)
ffffffc050405d52:	fe843783          	ld	a5,-24(s0)
ffffffc050405d56:	639c                	ld	a5,0(a5)
ffffffc050405d58:	fe843703          	ld	a4,-24(s0)
ffffffc050405d5c:	40f707b3          	sub	a5,a4,a5
ffffffc050405d60:	0017b793          	seqz	a5,a5
ffffffc050405d64:	0ff7f793          	andi	a5,a5,255
ffffffc050405d68:	2781                	sext.w	a5,a5
ffffffc050405d6a:	853e                	mv	a0,a5
ffffffc050405d6c:	6462                	ld	s0,24(sp)
ffffffc050405d6e:	6105                	addi	sp,sp,32
ffffffc050405d70:	8082                	ret

ffffffc050405d72 <kva2pa>:
ffffffc050405d72:	1101                	addi	sp,sp,-32
ffffffc050405d74:	ec22                	sd	s0,24(sp)
ffffffc050405d76:	1000                	addi	s0,sp,32
ffffffc050405d78:	fea43423          	sd	a0,-24(s0)
ffffffc050405d7c:	fe843703          	ld	a4,-24(s0)
ffffffc050405d80:	4785                	li	a5,1
ffffffc050405d82:	179a                	slli	a5,a5,0x26
ffffffc050405d84:	97ba                	add	a5,a5,a4
ffffffc050405d86:	853e                	mv	a0,a5
ffffffc050405d88:	6462                	ld	s0,24(sp)
ffffffc050405d8a:	6105                	addi	sp,sp,32
ffffffc050405d8c:	8082                	ret

ffffffc050405d8e <pa2kva>:
ffffffc050405d8e:	1101                	addi	sp,sp,-32
ffffffc050405d90:	ec22                	sd	s0,24(sp)
ffffffc050405d92:	1000                	addi	s0,sp,32
ffffffc050405d94:	fea43423          	sd	a0,-24(s0)
ffffffc050405d98:	fe843703          	ld	a4,-24(s0)
ffffffc050405d9c:	57fd                	li	a5,-1
ffffffc050405d9e:	179a                	slli	a5,a5,0x26
ffffffc050405da0:	97ba                	add	a5,a5,a4
ffffffc050405da2:	853e                	mv	a0,a5
ffffffc050405da4:	6462                	ld	s0,24(sp)
ffffffc050405da6:	6105                	addi	sp,sp,32
ffffffc050405da8:	8082                	ret

ffffffc050405daa <set_pfn>:
ffffffc050405daa:	7179                	addi	sp,sp,-48
ffffffc050405dac:	f422                	sd	s0,40(sp)
ffffffc050405dae:	1800                	addi	s0,sp,48
ffffffc050405db0:	fca43c23          	sd	a0,-40(s0)
ffffffc050405db4:	fcb43823          	sd	a1,-48(s0)
ffffffc050405db8:	fff007b7          	lui	a5,0xfff00
ffffffc050405dbc:	83a9                	srli	a5,a5,0xa
ffffffc050405dbe:	fef43423          	sd	a5,-24(s0)
ffffffc050405dc2:	fd043783          	ld	a5,-48(s0)
ffffffc050405dc6:	07aa                	slli	a5,a5,0xa
ffffffc050405dc8:	fcf43823          	sd	a5,-48(s0)
ffffffc050405dcc:	fd843783          	ld	a5,-40(s0)
ffffffc050405dd0:	6398                	ld	a4,0(a5)
ffffffc050405dd2:	fe843783          	ld	a5,-24(s0)
ffffffc050405dd6:	fff7c793          	not	a5,a5
ffffffc050405dda:	8f7d                	and	a4,a4,a5
ffffffc050405ddc:	fd043783          	ld	a5,-48(s0)
ffffffc050405de0:	8f5d                	or	a4,a4,a5
ffffffc050405de2:	fd843783          	ld	a5,-40(s0)
ffffffc050405de6:	e398                	sd	a4,0(a5)
ffffffc050405de8:	0001                	nop
ffffffc050405dea:	7422                	ld	s0,40(sp)
ffffffc050405dec:	6145                	addi	sp,sp,48
ffffffc050405dee:	8082                	ret

ffffffc050405df0 <set_attribute>:
ffffffc050405df0:	1101                	addi	sp,sp,-32
ffffffc050405df2:	ec22                	sd	s0,24(sp)
ffffffc050405df4:	1000                	addi	s0,sp,32
ffffffc050405df6:	fea43423          	sd	a0,-24(s0)
ffffffc050405dfa:	feb43023          	sd	a1,-32(s0)
ffffffc050405dfe:	fe843783          	ld	a5,-24(s0)
ffffffc050405e02:	6398                	ld	a4,0(a5)
ffffffc050405e04:	fe043783          	ld	a5,-32(s0)
ffffffc050405e08:	8f5d                	or	a4,a4,a5
ffffffc050405e0a:	fe843783          	ld	a5,-24(s0)
ffffffc050405e0e:	e398                	sd	a4,0(a5)
ffffffc050405e10:	0001                	nop
ffffffc050405e12:	6462                	ld	s0,24(sp)
ffffffc050405e14:	6105                	addi	sp,sp,32
ffffffc050405e16:	8082                	ret

ffffffc050405e18 <allocPage>:
ffffffc050405e18:	7179                	addi	sp,sp,-48
ffffffc050405e1a:	f406                	sd	ra,40(sp)
ffffffc050405e1c:	f022                	sd	s0,32(sp)
ffffffc050405e1e:	1800                	addi	s0,sp,48
ffffffc050405e20:	00002517          	auipc	a0,0x2
ffffffc050405e24:	24850513          	addi	a0,a0,584 # ffffffc050408068 <freePageList>
ffffffc050405e28:	f21ff0ef          	jal	ra,ffffffc050405d48 <list_is_empty>
ffffffc050405e2c:	87aa                	mv	a5,a0
ffffffc050405e2e:	e3a1                	bnez	a5,ffffffc050405e6e <allocPage+0x56>
ffffffc050405e30:	00002797          	auipc	a5,0x2
ffffffc050405e34:	23878793          	addi	a5,a5,568 # ffffffc050408068 <freePageList>
ffffffc050405e38:	639c                	ld	a5,0(a5)
ffffffc050405e3a:	fef43423          	sd	a5,-24(s0)
ffffffc050405e3e:	fe843783          	ld	a5,-24(s0)
ffffffc050405e42:	1781                	addi	a5,a5,-32
ffffffc050405e44:	fef43023          	sd	a5,-32(s0)
ffffffc050405e48:	fe043783          	ld	a5,-32(s0)
ffffffc050405e4c:	639c                	ld	a5,0(a5)
ffffffc050405e4e:	853e                	mv	a0,a5
ffffffc050405e50:	f3fff0ef          	jal	ra,ffffffc050405d8e <pa2kva>
ffffffc050405e54:	fca43c23          	sd	a0,-40(s0)
ffffffc050405e58:	00002797          	auipc	a5,0x2
ffffffc050405e5c:	21078793          	addi	a5,a5,528 # ffffffc050408068 <freePageList>
ffffffc050405e60:	639c                	ld	a5,0(a5)
ffffffc050405e62:	853e                	mv	a0,a5
ffffffc050405e64:	eb7ff0ef          	jal	ra,ffffffc050405d1a <list_del>
ffffffc050405e68:	fd843783          	ld	a5,-40(s0)
ffffffc050405e6c:	a821                	j	ffffffc050405e84 <allocPage+0x6c>
ffffffc050405e6e:	83018793          	addi	a5,gp,-2000 # ffffffc05044c9d8 <memCurr>
ffffffc050405e72:	6398                	ld	a4,0(a5)
ffffffc050405e74:	6785                	lui	a5,0x1
ffffffc050405e76:	973e                	add	a4,a4,a5
ffffffc050405e78:	83018793          	addi	a5,gp,-2000 # ffffffc05044c9d8 <memCurr>
ffffffc050405e7c:	e398                	sd	a4,0(a5)
ffffffc050405e7e:	83018793          	addi	a5,gp,-2000 # ffffffc05044c9d8 <memCurr>
ffffffc050405e82:	639c                	ld	a5,0(a5)
ffffffc050405e84:	853e                	mv	a0,a5
ffffffc050405e86:	70a2                	ld	ra,40(sp)
ffffffc050405e88:	7402                	ld	s0,32(sp)
ffffffc050405e8a:	6145                	addi	sp,sp,48
ffffffc050405e8c:	8082                	ret

ffffffc050405e8e <freePage>:
ffffffc050405e8e:	7179                	addi	sp,sp,-48
ffffffc050405e90:	f406                	sd	ra,40(sp)
ffffffc050405e92:	f022                	sd	s0,32(sp)
ffffffc050405e94:	1800                	addi	s0,sp,48
ffffffc050405e96:	fca43c23          	sd	a0,-40(s0)
ffffffc050405e9a:	03000513          	li	a0,48
ffffffc050405e9e:	032000ef          	jal	ra,ffffffc050405ed0 <kmalloc>
ffffffc050405ea2:	fea43423          	sd	a0,-24(s0)
ffffffc050405ea6:	fe843783          	ld	a5,-24(s0)
ffffffc050405eaa:	fd843703          	ld	a4,-40(s0)
ffffffc050405eae:	e398                	sd	a4,0(a5)
ffffffc050405eb0:	fe843783          	ld	a5,-24(s0)
ffffffc050405eb4:	02078793          	addi	a5,a5,32 # 1020 <_start-0xffffffc0503fefe0>
ffffffc050405eb8:	00002597          	auipc	a1,0x2
ffffffc050405ebc:	1b058593          	addi	a1,a1,432 # ffffffc050408068 <freePageList>
ffffffc050405ec0:	853e                	mv	a0,a5
ffffffc050405ec2:	dd7ff0ef          	jal	ra,ffffffc050405c98 <list_add_tail>
ffffffc050405ec6:	0001                	nop
ffffffc050405ec8:	70a2                	ld	ra,40(sp)
ffffffc050405eca:	7402                	ld	s0,32(sp)
ffffffc050405ecc:	6145                	addi	sp,sp,48
ffffffc050405ece:	8082                	ret

ffffffc050405ed0 <kmalloc>:
ffffffc050405ed0:	7179                	addi	sp,sp,-48
ffffffc050405ed2:	f422                	sd	s0,40(sp)
ffffffc050405ed4:	1800                	addi	s0,sp,48
ffffffc050405ed6:	fca43c23          	sd	a0,-40(s0)
ffffffc050405eda:	83818793          	addi	a5,gp,-1992 # ffffffc05044c9e0 <heapCurr>
ffffffc050405ede:	639c                	ld	a5,0(a5)
ffffffc050405ee0:	078d                	addi	a5,a5,3
ffffffc050405ee2:	9bf1                	andi	a5,a5,-4
ffffffc050405ee4:	fef43423          	sd	a5,-24(s0)
ffffffc050405ee8:	fe843703          	ld	a4,-24(s0)
ffffffc050405eec:	fd843783          	ld	a5,-40(s0)
ffffffc050405ef0:	973e                	add	a4,a4,a5
ffffffc050405ef2:	83818793          	addi	a5,gp,-1992 # ffffffc05044c9e0 <heapCurr>
ffffffc050405ef6:	e398                	sd	a4,0(a5)
ffffffc050405ef8:	fe843783          	ld	a5,-24(s0)
ffffffc050405efc:	853e                	mv	a0,a5
ffffffc050405efe:	7422                	ld	s0,40(sp)
ffffffc050405f00:	6145                	addi	sp,sp,48
ffffffc050405f02:	8082                	ret

ffffffc050405f04 <shm_page_get>:
ffffffc050405f04:	715d                	addi	sp,sp,-80
ffffffc050405f06:	e486                	sd	ra,72(sp)
ffffffc050405f08:	e0a2                	sd	s0,64(sp)
ffffffc050405f0a:	fc26                	sd	s1,56(sp)
ffffffc050405f0c:	0880                	addi	s0,sp,80
ffffffc050405f0e:	87aa                	mv	a5,a0
ffffffc050405f10:	faf42e23          	sw	a5,-68(s0)
ffffffc050405f14:	c10fa0ef          	jal	ra,ffffffc050400324 <get_current_cpu_id>
ffffffc050405f18:	87aa                	mv	a5,a0
ffffffc050405f1a:	e791                	bnez	a5,ffffffc050405f26 <shm_page_get+0x22>
ffffffc050405f1c:	0004c797          	auipc	a5,0x4c
ffffffc050405f20:	0fc78793          	addi	a5,a5,252 # ffffffc050452018 <current_running_core_m>
ffffffc050405f24:	a029                	j	ffffffc050405f2e <shm_page_get+0x2a>
ffffffc050405f26:	0004e797          	auipc	a5,0x4e
ffffffc050405f2a:	e0278793          	addi	a5,a5,-510 # ffffffc050453d28 <current_running_core_s>
ffffffc050405f2e:	0004c717          	auipc	a4,0x4c
ffffffc050405f32:	0e270713          	addi	a4,a4,226 # ffffffc050452010 <current_running>
ffffffc050405f36:	e31c                	sd	a5,0(a4)
ffffffc050405f38:	00c007b7          	lui	a5,0xc00
ffffffc050405f3c:	fcf43c23          	sd	a5,-40(s0)
ffffffc050405f40:	fc042a23          	sw	zero,-44(s0)
ffffffc050405f44:	a20d                	j	ffffffc050406066 <shm_page_get+0x162>
ffffffc050405f46:	0004e697          	auipc	a3,0x4e
ffffffc050405f4a:	df268693          	addi	a3,a3,-526 # ffffffc050453d38 <spage>
ffffffc050405f4e:	fd442703          	lw	a4,-44(s0)
ffffffc050405f52:	87ba                	mv	a5,a4
ffffffc050405f54:	078e                	slli	a5,a5,0x3
ffffffc050405f56:	97ba                	add	a5,a5,a4
ffffffc050405f58:	0792                	slli	a5,a5,0x4
ffffffc050405f5a:	97b6                	add	a5,a5,a3
ffffffc050405f5c:	0007c783          	lbu	a5,0(a5) # c00000 <_start-0xffffffc04f800000>
ffffffc050405f60:	0e078e63          	beqz	a5,ffffffc05040605c <shm_page_get+0x158>
ffffffc050405f64:	0004e697          	auipc	a3,0x4e
ffffffc050405f68:	dd468693          	addi	a3,a3,-556 # ffffffc050453d38 <spage>
ffffffc050405f6c:	fd442703          	lw	a4,-44(s0)
ffffffc050405f70:	87ba                	mv	a5,a4
ffffffc050405f72:	078e                	slli	a5,a5,0x3
ffffffc050405f74:	97ba                	add	a5,a5,a4
ffffffc050405f76:	0792                	slli	a5,a5,0x4
ffffffc050405f78:	97b6                	add	a5,a5,a3
ffffffc050405f7a:	0017c783          	lbu	a5,1(a5)
ffffffc050405f7e:	0007871b          	sext.w	a4,a5
ffffffc050405f82:	fbc42783          	lw	a5,-68(s0)
ffffffc050405f86:	2781                	sext.w	a5,a5
ffffffc050405f88:	0ce79a63          	bne	a5,a4,ffffffc05040605c <shm_page_get+0x158>
ffffffc050405f8c:	0004c797          	auipc	a5,0x4c
ffffffc050405f90:	08478793          	addi	a5,a5,132 # ffffffc050452010 <current_running>
ffffffc050405f94:	639c                	ld	a5,0(a5)
ffffffc050405f96:	639c                	ld	a5,0(a5)
ffffffc050405f98:	1a87b783          	ld	a5,424(a5)
ffffffc050405f9c:	853e                	mv	a0,a5
ffffffc050405f9e:	df1ff0ef          	jal	ra,ffffffc050405d8e <pa2kva>
ffffffc050405fa2:	87aa                	mv	a5,a0
ffffffc050405fa4:	85be                	mv	a1,a5
ffffffc050405fa6:	fd843503          	ld	a0,-40(s0)
ffffffc050405faa:	7f2000ef          	jal	ra,ffffffc05040679c <check_page_helper>
ffffffc050405fae:	87aa                	mv	a5,a0
ffffffc050405fb0:	cb81                	beqz	a5,ffffffc050405fc0 <shm_page_get+0xbc>
ffffffc050405fb2:	fd843703          	ld	a4,-40(s0)
ffffffc050405fb6:	6785                	lui	a5,0x1
ffffffc050405fb8:	97ba                	add	a5,a5,a4
ffffffc050405fba:	fcf43c23          	sd	a5,-40(s0)
ffffffc050405fbe:	b7f9                	j	ffffffc050405f8c <shm_page_get+0x88>
ffffffc050405fc0:	0001                	nop
ffffffc050405fc2:	0004e697          	auipc	a3,0x4e
ffffffc050405fc6:	d7668693          	addi	a3,a3,-650 # ffffffc050453d38 <spage>
ffffffc050405fca:	fd442703          	lw	a4,-44(s0)
ffffffc050405fce:	87ba                	mv	a5,a4
ffffffc050405fd0:	078e                	slli	a5,a5,0x3
ffffffc050405fd2:	97ba                	add	a5,a5,a4
ffffffc050405fd4:	0792                	slli	a5,a5,0x4
ffffffc050405fd6:	97b6                	add	a5,a5,a3
ffffffc050405fd8:	6784                	ld	s1,8(a5)
ffffffc050405fda:	0004c797          	auipc	a5,0x4c
ffffffc050405fde:	03678793          	addi	a5,a5,54 # ffffffc050452010 <current_running>
ffffffc050405fe2:	639c                	ld	a5,0(a5)
ffffffc050405fe4:	639c                	ld	a5,0(a5)
ffffffc050405fe6:	1a87b783          	ld	a5,424(a5)
ffffffc050405fea:	853e                	mv	a0,a5
ffffffc050405fec:	da3ff0ef          	jal	ra,ffffffc050405d8e <pa2kva>
ffffffc050405ff0:	87aa                	mv	a5,a0
ffffffc050405ff2:	863e                	mv	a2,a5
ffffffc050405ff4:	85a6                	mv	a1,s1
ffffffc050405ff6:	fd843503          	ld	a0,-40(s0)
ffffffc050405ffa:	36a000ef          	jal	ra,ffffffc050406364 <setup_shm_page>
ffffffc050405ffe:	0004c797          	auipc	a5,0x4c
ffffffc050406002:	01278793          	addi	a5,a5,18 # ffffffc050452010 <current_running>
ffffffc050406006:	639c                	ld	a5,0(a5)
ffffffc050406008:	639c                	ld	a5,0(a5)
ffffffc05040600a:	5790                	lw	a2,40(a5)
ffffffc05040600c:	0004e697          	auipc	a3,0x4e
ffffffc050406010:	d2c68693          	addi	a3,a3,-724 # ffffffc050453d38 <spage>
ffffffc050406014:	fd442703          	lw	a4,-44(s0)
ffffffc050406018:	87ba                	mv	a5,a4
ffffffc05040601a:	078e                	slli	a5,a5,0x3
ffffffc05040601c:	97ba                	add	a5,a5,a4
ffffffc05040601e:	0786                	slli	a5,a5,0x1
ffffffc050406020:	97b2                	add	a5,a5,a2
ffffffc050406022:	0789                	addi	a5,a5,2
ffffffc050406024:	078e                	slli	a5,a5,0x3
ffffffc050406026:	97b6                	add	a5,a5,a3
ffffffc050406028:	fd843703          	ld	a4,-40(s0)
ffffffc05040602c:	e398                	sd	a4,0(a5)
ffffffc05040602e:	0004c797          	auipc	a5,0x4c
ffffffc050406032:	fe278793          	addi	a5,a5,-30 # ffffffc050452010 <current_running>
ffffffc050406036:	639c                	ld	a5,0(a5)
ffffffc050406038:	639c                	ld	a5,0(a5)
ffffffc05040603a:	5790                	lw	a2,40(a5)
ffffffc05040603c:	0004e697          	auipc	a3,0x4e
ffffffc050406040:	cfc68693          	addi	a3,a3,-772 # ffffffc050453d38 <spage>
ffffffc050406044:	fd442703          	lw	a4,-44(s0)
ffffffc050406048:	87ba                	mv	a5,a4
ffffffc05040604a:	078e                	slli	a5,a5,0x3
ffffffc05040604c:	97ba                	add	a5,a5,a4
ffffffc05040604e:	0786                	slli	a5,a5,0x1
ffffffc050406050:	97b2                	add	a5,a5,a2
ffffffc050406052:	0789                	addi	a5,a5,2
ffffffc050406054:	078e                	slli	a5,a5,0x3
ffffffc050406056:	97b6                	add	a5,a5,a3
ffffffc050406058:	639c                	ld	a5,0(a5)
ffffffc05040605a:	aa91                	j	ffffffc0504061ae <shm_page_get+0x2aa>
ffffffc05040605c:	fd442783          	lw	a5,-44(s0)
ffffffc050406060:	2785                	addiw	a5,a5,1
ffffffc050406062:	fcf42a23          	sw	a5,-44(s0)
ffffffc050406066:	fd442783          	lw	a5,-44(s0)
ffffffc05040606a:	0007871b          	sext.w	a4,a5
ffffffc05040606e:	47bd                	li	a5,15
ffffffc050406070:	ece7dbe3          	bge	a5,a4,ffffffc050405f46 <shm_page_get+0x42>
ffffffc050406074:	0004c797          	auipc	a5,0x4c
ffffffc050406078:	f9c78793          	addi	a5,a5,-100 # ffffffc050452010 <current_running>
ffffffc05040607c:	639c                	ld	a5,0(a5)
ffffffc05040607e:	639c                	ld	a5,0(a5)
ffffffc050406080:	1a87b783          	ld	a5,424(a5)
ffffffc050406084:	853e                	mv	a0,a5
ffffffc050406086:	d09ff0ef          	jal	ra,ffffffc050405d8e <pa2kva>
ffffffc05040608a:	87aa                	mv	a5,a0
ffffffc05040608c:	4681                	li	a3,0
ffffffc05040608e:	4605                	li	a2,1
ffffffc050406090:	85be                	mv	a1,a5
ffffffc050406092:	fd843503          	ld	a0,-40(s0)
ffffffc050406096:	438000ef          	jal	ra,ffffffc0504064ce <alloc_page_helper>
ffffffc05040609a:	fca43423          	sd	a0,-56(s0)
ffffffc05040609e:	fc843783          	ld	a5,-56(s0)
ffffffc0504060a2:	eb81                	bnez	a5,ffffffc0504060b2 <shm_page_get+0x1ae>
ffffffc0504060a4:	fd843703          	ld	a4,-40(s0)
ffffffc0504060a8:	6785                	lui	a5,0x1
ffffffc0504060aa:	97ba                	add	a5,a5,a4
ffffffc0504060ac:	fcf43c23          	sd	a5,-40(s0)
ffffffc0504060b0:	b7d1                	j	ffffffc050406074 <shm_page_get+0x170>
ffffffc0504060b2:	0001                	nop
ffffffc0504060b4:	fc042a23          	sw	zero,-44(s0)
ffffffc0504060b8:	a025                	j	ffffffc0504060e0 <shm_page_get+0x1dc>
ffffffc0504060ba:	0004e697          	auipc	a3,0x4e
ffffffc0504060be:	c7e68693          	addi	a3,a3,-898 # ffffffc050453d38 <spage>
ffffffc0504060c2:	fd442703          	lw	a4,-44(s0)
ffffffc0504060c6:	87ba                	mv	a5,a4
ffffffc0504060c8:	078e                	slli	a5,a5,0x3
ffffffc0504060ca:	97ba                	add	a5,a5,a4
ffffffc0504060cc:	0792                	slli	a5,a5,0x4
ffffffc0504060ce:	97b6                	add	a5,a5,a3
ffffffc0504060d0:	0007c783          	lbu	a5,0(a5) # 1000 <_start-0xffffffc0503ff000>
ffffffc0504060d4:	cf91                	beqz	a5,ffffffc0504060f0 <shm_page_get+0x1ec>
ffffffc0504060d6:	fd442783          	lw	a5,-44(s0)
ffffffc0504060da:	2785                	addiw	a5,a5,1
ffffffc0504060dc:	fcf42a23          	sw	a5,-44(s0)
ffffffc0504060e0:	fd442783          	lw	a5,-44(s0)
ffffffc0504060e4:	0007871b          	sext.w	a4,a5
ffffffc0504060e8:	47bd                	li	a5,15
ffffffc0504060ea:	fce7d8e3          	bge	a5,a4,ffffffc0504060ba <shm_page_get+0x1b6>
ffffffc0504060ee:	a011                	j	ffffffc0504060f2 <shm_page_get+0x1ee>
ffffffc0504060f0:	0001                	nop
ffffffc0504060f2:	0004e697          	auipc	a3,0x4e
ffffffc0504060f6:	c4668693          	addi	a3,a3,-954 # ffffffc050453d38 <spage>
ffffffc0504060fa:	fd442703          	lw	a4,-44(s0)
ffffffc0504060fe:	87ba                	mv	a5,a4
ffffffc050406100:	078e                	slli	a5,a5,0x3
ffffffc050406102:	97ba                	add	a5,a5,a4
ffffffc050406104:	0792                	slli	a5,a5,0x4
ffffffc050406106:	97b6                	add	a5,a5,a3
ffffffc050406108:	4705                	li	a4,1
ffffffc05040610a:	00e78023          	sb	a4,0(a5)
ffffffc05040610e:	fbc42783          	lw	a5,-68(s0)
ffffffc050406112:	0ff7f693          	andi	a3,a5,255
ffffffc050406116:	0004e617          	auipc	a2,0x4e
ffffffc05040611a:	c2260613          	addi	a2,a2,-990 # ffffffc050453d38 <spage>
ffffffc05040611e:	fd442703          	lw	a4,-44(s0)
ffffffc050406122:	87ba                	mv	a5,a4
ffffffc050406124:	078e                	slli	a5,a5,0x3
ffffffc050406126:	97ba                	add	a5,a5,a4
ffffffc050406128:	0792                	slli	a5,a5,0x4
ffffffc05040612a:	97b2                	add	a5,a5,a2
ffffffc05040612c:	00d780a3          	sb	a3,1(a5)
ffffffc050406130:	fc843503          	ld	a0,-56(s0)
ffffffc050406134:	c3fff0ef          	jal	ra,ffffffc050405d72 <kva2pa>
ffffffc050406138:	862a                	mv	a2,a0
ffffffc05040613a:	0004e697          	auipc	a3,0x4e
ffffffc05040613e:	bfe68693          	addi	a3,a3,-1026 # ffffffc050453d38 <spage>
ffffffc050406142:	fd442703          	lw	a4,-44(s0)
ffffffc050406146:	87ba                	mv	a5,a4
ffffffc050406148:	078e                	slli	a5,a5,0x3
ffffffc05040614a:	97ba                	add	a5,a5,a4
ffffffc05040614c:	0792                	slli	a5,a5,0x4
ffffffc05040614e:	97b6                	add	a5,a5,a3
ffffffc050406150:	e790                	sd	a2,8(a5)
ffffffc050406152:	0004c797          	auipc	a5,0x4c
ffffffc050406156:	ebe78793          	addi	a5,a5,-322 # ffffffc050452010 <current_running>
ffffffc05040615a:	639c                	ld	a5,0(a5)
ffffffc05040615c:	639c                	ld	a5,0(a5)
ffffffc05040615e:	5790                	lw	a2,40(a5)
ffffffc050406160:	0004e697          	auipc	a3,0x4e
ffffffc050406164:	bd868693          	addi	a3,a3,-1064 # ffffffc050453d38 <spage>
ffffffc050406168:	fd442703          	lw	a4,-44(s0)
ffffffc05040616c:	87ba                	mv	a5,a4
ffffffc05040616e:	078e                	slli	a5,a5,0x3
ffffffc050406170:	97ba                	add	a5,a5,a4
ffffffc050406172:	0786                	slli	a5,a5,0x1
ffffffc050406174:	97b2                	add	a5,a5,a2
ffffffc050406176:	0789                	addi	a5,a5,2
ffffffc050406178:	078e                	slli	a5,a5,0x3
ffffffc05040617a:	97b6                	add	a5,a5,a3
ffffffc05040617c:	fd843703          	ld	a4,-40(s0)
ffffffc050406180:	e398                	sd	a4,0(a5)
ffffffc050406182:	0004c797          	auipc	a5,0x4c
ffffffc050406186:	e8e78793          	addi	a5,a5,-370 # ffffffc050452010 <current_running>
ffffffc05040618a:	639c                	ld	a5,0(a5)
ffffffc05040618c:	639c                	ld	a5,0(a5)
ffffffc05040618e:	5790                	lw	a2,40(a5)
ffffffc050406190:	0004e697          	auipc	a3,0x4e
ffffffc050406194:	ba868693          	addi	a3,a3,-1112 # ffffffc050453d38 <spage>
ffffffc050406198:	fd442703          	lw	a4,-44(s0)
ffffffc05040619c:	87ba                	mv	a5,a4
ffffffc05040619e:	078e                	slli	a5,a5,0x3
ffffffc0504061a0:	97ba                	add	a5,a5,a4
ffffffc0504061a2:	0786                	slli	a5,a5,0x1
ffffffc0504061a4:	97b2                	add	a5,a5,a2
ffffffc0504061a6:	0789                	addi	a5,a5,2
ffffffc0504061a8:	078e                	slli	a5,a5,0x3
ffffffc0504061aa:	97b6                	add	a5,a5,a3
ffffffc0504061ac:	639c                	ld	a5,0(a5)
ffffffc0504061ae:	853e                	mv	a0,a5
ffffffc0504061b0:	60a6                	ld	ra,72(sp)
ffffffc0504061b2:	6406                	ld	s0,64(sp)
ffffffc0504061b4:	74e2                	ld	s1,56(sp)
ffffffc0504061b6:	6161                	addi	sp,sp,80
ffffffc0504061b8:	8082                	ret

ffffffc0504061ba <shm_page_dt>:
ffffffc0504061ba:	7139                	addi	sp,sp,-64
ffffffc0504061bc:	fc06                	sd	ra,56(sp)
ffffffc0504061be:	f822                	sd	s0,48(sp)
ffffffc0504061c0:	0080                	addi	s0,sp,64
ffffffc0504061c2:	fca43423          	sd	a0,-56(s0)
ffffffc0504061c6:	95efa0ef          	jal	ra,ffffffc050400324 <get_current_cpu_id>
ffffffc0504061ca:	87aa                	mv	a5,a0
ffffffc0504061cc:	e791                	bnez	a5,ffffffc0504061d8 <shm_page_dt+0x1e>
ffffffc0504061ce:	0004c797          	auipc	a5,0x4c
ffffffc0504061d2:	e4a78793          	addi	a5,a5,-438 # ffffffc050452018 <current_running_core_m>
ffffffc0504061d6:	a029                	j	ffffffc0504061e0 <shm_page_dt+0x26>
ffffffc0504061d8:	0004e797          	auipc	a5,0x4e
ffffffc0504061dc:	b5078793          	addi	a5,a5,-1200 # ffffffc050453d28 <current_running_core_s>
ffffffc0504061e0:	0004c717          	auipc	a4,0x4c
ffffffc0504061e4:	e3070713          	addi	a4,a4,-464 # ffffffc050452010 <current_running>
ffffffc0504061e8:	e31c                	sd	a5,0(a4)
ffffffc0504061ea:	fc843703          	ld	a4,-56(s0)
ffffffc0504061ee:	77fd                	lui	a5,0xfffff
ffffffc0504061f0:	8ff9                	and	a5,a5,a4
ffffffc0504061f2:	fcf43c23          	sd	a5,-40(s0)
ffffffc0504061f6:	fe042623          	sw	zero,-20(s0)
ffffffc0504061fa:	a8b1                	j	ffffffc050406256 <shm_page_dt+0x9c>
ffffffc0504061fc:	0004e697          	auipc	a3,0x4e
ffffffc050406200:	b3c68693          	addi	a3,a3,-1220 # ffffffc050453d38 <spage>
ffffffc050406204:	fec42703          	lw	a4,-20(s0)
ffffffc050406208:	87ba                	mv	a5,a4
ffffffc05040620a:	078e                	slli	a5,a5,0x3
ffffffc05040620c:	97ba                	add	a5,a5,a4
ffffffc05040620e:	0792                	slli	a5,a5,0x4
ffffffc050406210:	97b6                	add	a5,a5,a3
ffffffc050406212:	0007c783          	lbu	a5,0(a5) # fffffffffffff000 <__BSS_END__+0x3fafbaa7c8>
ffffffc050406216:	cb9d                	beqz	a5,ffffffc05040624c <shm_page_dt+0x92>
ffffffc050406218:	0004c797          	auipc	a5,0x4c
ffffffc05040621c:	df878793          	addi	a5,a5,-520 # ffffffc050452010 <current_running>
ffffffc050406220:	639c                	ld	a5,0(a5)
ffffffc050406222:	639c                	ld	a5,0(a5)
ffffffc050406224:	5790                	lw	a2,40(a5)
ffffffc050406226:	0004e697          	auipc	a3,0x4e
ffffffc05040622a:	b1268693          	addi	a3,a3,-1262 # ffffffc050453d38 <spage>
ffffffc05040622e:	fec42703          	lw	a4,-20(s0)
ffffffc050406232:	87ba                	mv	a5,a4
ffffffc050406234:	078e                	slli	a5,a5,0x3
ffffffc050406236:	97ba                	add	a5,a5,a4
ffffffc050406238:	0786                	slli	a5,a5,0x1
ffffffc05040623a:	97b2                	add	a5,a5,a2
ffffffc05040623c:	0789                	addi	a5,a5,2
ffffffc05040623e:	078e                	slli	a5,a5,0x3
ffffffc050406240:	97b6                	add	a5,a5,a3
ffffffc050406242:	639c                	ld	a5,0(a5)
ffffffc050406244:	fd843703          	ld	a4,-40(s0)
ffffffc050406248:	00f70f63          	beq	a4,a5,ffffffc050406266 <shm_page_dt+0xac>
ffffffc05040624c:	fec42783          	lw	a5,-20(s0)
ffffffc050406250:	2785                	addiw	a5,a5,1
ffffffc050406252:	fef42623          	sw	a5,-20(s0)
ffffffc050406256:	fec42783          	lw	a5,-20(s0)
ffffffc05040625a:	0007871b          	sext.w	a4,a5
ffffffc05040625e:	47bd                	li	a5,15
ffffffc050406260:	f8e7dee3          	bge	a5,a4,ffffffc0504061fc <shm_page_dt+0x42>
ffffffc050406264:	a011                	j	ffffffc050406268 <shm_page_dt+0xae>
ffffffc050406266:	0001                	nop
ffffffc050406268:	0004c797          	auipc	a5,0x4c
ffffffc05040626c:	da878793          	addi	a5,a5,-600 # ffffffc050452010 <current_running>
ffffffc050406270:	639c                	ld	a5,0(a5)
ffffffc050406272:	639c                	ld	a5,0(a5)
ffffffc050406274:	5790                	lw	a2,40(a5)
ffffffc050406276:	0004e697          	auipc	a3,0x4e
ffffffc05040627a:	ac268693          	addi	a3,a3,-1342 # ffffffc050453d38 <spage>
ffffffc05040627e:	fec42703          	lw	a4,-20(s0)
ffffffc050406282:	87ba                	mv	a5,a4
ffffffc050406284:	078e                	slli	a5,a5,0x3
ffffffc050406286:	97ba                	add	a5,a5,a4
ffffffc050406288:	0786                	slli	a5,a5,0x1
ffffffc05040628a:	97b2                	add	a5,a5,a2
ffffffc05040628c:	0789                	addi	a5,a5,2
ffffffc05040628e:	078e                	slli	a5,a5,0x3
ffffffc050406290:	97b6                	add	a5,a5,a3
ffffffc050406292:	0007b023          	sd	zero,0(a5)
ffffffc050406296:	0004c797          	auipc	a5,0x4c
ffffffc05040629a:	d7a78793          	addi	a5,a5,-646 # ffffffc050452010 <current_running>
ffffffc05040629e:	639c                	ld	a5,0(a5)
ffffffc0504062a0:	639c                	ld	a5,0(a5)
ffffffc0504062a2:	1a87b783          	ld	a5,424(a5)
ffffffc0504062a6:	853e                	mv	a0,a5
ffffffc0504062a8:	ae7ff0ef          	jal	ra,ffffffc050405d8e <pa2kva>
ffffffc0504062ac:	87aa                	mv	a5,a0
ffffffc0504062ae:	85be                	mv	a1,a5
ffffffc0504062b0:	fd843503          	ld	a0,-40(s0)
ffffffc0504062b4:	444000ef          	jal	ra,ffffffc0504066f8 <free_page_helper>
ffffffc0504062b8:	fe042423          	sw	zero,-24(s0)
ffffffc0504062bc:	fe042223          	sw	zero,-28(s0)
ffffffc0504062c0:	a81d                	j	ffffffc0504062f6 <shm_page_dt+0x13c>
ffffffc0504062c2:	0004e697          	auipc	a3,0x4e
ffffffc0504062c6:	a7668693          	addi	a3,a3,-1418 # ffffffc050453d38 <spage>
ffffffc0504062ca:	fe442603          	lw	a2,-28(s0)
ffffffc0504062ce:	fec42703          	lw	a4,-20(s0)
ffffffc0504062d2:	87ba                	mv	a5,a4
ffffffc0504062d4:	078e                	slli	a5,a5,0x3
ffffffc0504062d6:	97ba                	add	a5,a5,a4
ffffffc0504062d8:	0786                	slli	a5,a5,0x1
ffffffc0504062da:	97b2                	add	a5,a5,a2
ffffffc0504062dc:	0789                	addi	a5,a5,2
ffffffc0504062de:	078e                	slli	a5,a5,0x3
ffffffc0504062e0:	97b6                	add	a5,a5,a3
ffffffc0504062e2:	639c                	ld	a5,0(a5)
ffffffc0504062e4:	c781                	beqz	a5,ffffffc0504062ec <shm_page_dt+0x132>
ffffffc0504062e6:	4785                	li	a5,1
ffffffc0504062e8:	fef42423          	sw	a5,-24(s0)
ffffffc0504062ec:	fe442783          	lw	a5,-28(s0)
ffffffc0504062f0:	2785                	addiw	a5,a5,1
ffffffc0504062f2:	fef42223          	sw	a5,-28(s0)
ffffffc0504062f6:	fe442783          	lw	a5,-28(s0)
ffffffc0504062fa:	0007871b          	sext.w	a4,a5
ffffffc0504062fe:	47bd                	li	a5,15
ffffffc050406300:	fce7d1e3          	bge	a5,a4,ffffffc0504062c2 <shm_page_dt+0x108>
ffffffc050406304:	fe842783          	lw	a5,-24(s0)
ffffffc050406308:	2781                	sext.w	a5,a5
ffffffc05040630a:	ef8d                	bnez	a5,ffffffc050406344 <shm_page_dt+0x18a>
ffffffc05040630c:	0004e697          	auipc	a3,0x4e
ffffffc050406310:	a2c68693          	addi	a3,a3,-1492 # ffffffc050453d38 <spage>
ffffffc050406314:	fec42703          	lw	a4,-20(s0)
ffffffc050406318:	87ba                	mv	a5,a4
ffffffc05040631a:	078e                	slli	a5,a5,0x3
ffffffc05040631c:	97ba                	add	a5,a5,a4
ffffffc05040631e:	0792                	slli	a5,a5,0x4
ffffffc050406320:	97b6                	add	a5,a5,a3
ffffffc050406322:	00078023          	sb	zero,0(a5)
ffffffc050406326:	0004e697          	auipc	a3,0x4e
ffffffc05040632a:	a1268693          	addi	a3,a3,-1518 # ffffffc050453d38 <spage>
ffffffc05040632e:	fec42703          	lw	a4,-20(s0)
ffffffc050406332:	87ba                	mv	a5,a4
ffffffc050406334:	078e                	slli	a5,a5,0x3
ffffffc050406336:	97ba                	add	a5,a5,a4
ffffffc050406338:	0792                	slli	a5,a5,0x4
ffffffc05040633a:	97b6                	add	a5,a5,a3
ffffffc05040633c:	679c                	ld	a5,8(a5)
ffffffc05040633e:	853e                	mv	a0,a5
ffffffc050406340:	b4fff0ef          	jal	ra,ffffffc050405e8e <freePage>
ffffffc050406344:	0001                	nop
ffffffc050406346:	70e2                	ld	ra,56(sp)
ffffffc050406348:	7442                	ld	s0,48(sp)
ffffffc05040634a:	6121                	addi	sp,sp,64
ffffffc05040634c:	8082                	ret

ffffffc05040634e <share_pgtable>:
ffffffc05040634e:	1101                	addi	sp,sp,-32
ffffffc050406350:	ec22                	sd	s0,24(sp)
ffffffc050406352:	1000                	addi	s0,sp,32
ffffffc050406354:	fea43423          	sd	a0,-24(s0)
ffffffc050406358:	feb43023          	sd	a1,-32(s0)
ffffffc05040635c:	0001                	nop
ffffffc05040635e:	6462                	ld	s0,24(sp)
ffffffc050406360:	6105                	addi	sp,sp,32
ffffffc050406362:	8082                	ret

ffffffc050406364 <setup_shm_page>:
ffffffc050406364:	7175                	addi	sp,sp,-144
ffffffc050406366:	e506                	sd	ra,136(sp)
ffffffc050406368:	e122                	sd	s0,128(sp)
ffffffc05040636a:	fca6                	sd	s1,120(sp)
ffffffc05040636c:	0900                	addi	s0,sp,144
ffffffc05040636e:	f8a43423          	sd	a0,-120(s0)
ffffffc050406372:	f8b43023          	sd	a1,-128(s0)
ffffffc050406376:	f6c43c23          	sd	a2,-136(s0)
ffffffc05040637a:	f8843783          	ld	a5,-120(s0)
ffffffc05040637e:	83b1                	srli	a5,a5,0xc
ffffffc050406380:	1ff7f793          	andi	a5,a5,511
ffffffc050406384:	faf43823          	sd	a5,-80(s0)
ffffffc050406388:	f8843783          	ld	a5,-120(s0)
ffffffc05040638c:	83d5                	srli	a5,a5,0x15
ffffffc05040638e:	1ff7f793          	andi	a5,a5,511
ffffffc050406392:	faf43c23          	sd	a5,-72(s0)
ffffffc050406396:	f8843783          	ld	a5,-120(s0)
ffffffc05040639a:	83f9                	srli	a5,a5,0x1e
ffffffc05040639c:	1ff7f793          	andi	a5,a5,511
ffffffc0504063a0:	fcf43023          	sd	a5,-64(s0)
ffffffc0504063a4:	fc043783          	ld	a5,-64(s0)
ffffffc0504063a8:	00379713          	slli	a4,a5,0x3
ffffffc0504063ac:	f7843783          	ld	a5,-136(s0)
ffffffc0504063b0:	97ba                	add	a5,a5,a4
ffffffc0504063b2:	f8f43c23          	sd	a5,-104(s0)
ffffffc0504063b6:	fa043023          	sd	zero,-96(s0)
ffffffc0504063ba:	fa043423          	sd	zero,-88(s0)
ffffffc0504063be:	fa843783          	ld	a5,-88(s0)
ffffffc0504063c2:	639c                	ld	a5,0(a5)
ffffffc0504063c4:	8b85                	andi	a5,a5,1
ffffffc0504063c6:	e3b9                	bnez	a5,ffffffc05040640c <setup_shm_page+0xa8>
ffffffc0504063c8:	a51ff0ef          	jal	ra,ffffffc050405e18 <allocPage>
ffffffc0504063cc:	872a                	mv	a4,a0
ffffffc0504063ce:	77fd                	lui	a5,0xfffff
ffffffc0504063d0:	97ba                	add	a5,a5,a4
ffffffc0504063d2:	fcf43c23          	sd	a5,-40(s0)
ffffffc0504063d6:	fd843503          	ld	a0,-40(s0)
ffffffc0504063da:	999ff0ef          	jal	ra,ffffffc050405d72 <kva2pa>
ffffffc0504063de:	87aa                	mv	a5,a0
ffffffc0504063e0:	00c7d713          	srli	a4,a5,0xc
ffffffc0504063e4:	fa843783          	ld	a5,-88(s0)
ffffffc0504063e8:	072a                	slli	a4,a4,0xa
ffffffc0504063ea:	e398                	sd	a4,0(a5)
ffffffc0504063ec:	fa843783          	ld	a5,-88(s0)
ffffffc0504063f0:	4585                	li	a1,1
ffffffc0504063f2:	853e                	mv	a0,a5
ffffffc0504063f4:	9fdff0ef          	jal	ra,ffffffc050405df0 <set_attribute>
ffffffc0504063f8:	fb843783          	ld	a5,-72(s0)
ffffffc0504063fc:	00379713          	slli	a4,a5,0x3
ffffffc050406400:	fd843783          	ld	a5,-40(s0)
ffffffc050406404:	97ba                	add	a5,a5,a4
ffffffc050406406:	faf43023          	sd	a5,-96(s0)
ffffffc05040640a:	a00d                	j	ffffffc05040642c <setup_shm_page+0xc8>
ffffffc05040640c:	fb843783          	ld	a5,-72(s0)
ffffffc050406410:	00379493          	slli	s1,a5,0x3
ffffffc050406414:	fa843783          	ld	a5,-88(s0)
ffffffc050406418:	639c                	ld	a5,0(a5)
ffffffc05040641a:	83a9                	srli	a5,a5,0xa
ffffffc05040641c:	07b2                	slli	a5,a5,0xc
ffffffc05040641e:	853e                	mv	a0,a5
ffffffc050406420:	96fff0ef          	jal	ra,ffffffc050405d8e <pa2kva>
ffffffc050406424:	87aa                	mv	a5,a0
ffffffc050406426:	97a6                	add	a5,a5,s1
ffffffc050406428:	faf43023          	sd	a5,-96(s0)
ffffffc05040642c:	fa043783          	ld	a5,-96(s0)
ffffffc050406430:	639c                	ld	a5,0(a5)
ffffffc050406432:	8b85                	andi	a5,a5,1
ffffffc050406434:	e3b9                	bnez	a5,ffffffc05040647a <setup_shm_page+0x116>
ffffffc050406436:	9e3ff0ef          	jal	ra,ffffffc050405e18 <allocPage>
ffffffc05040643a:	872a                	mv	a4,a0
ffffffc05040643c:	77fd                	lui	a5,0xfffff
ffffffc05040643e:	97ba                	add	a5,a5,a4
ffffffc050406440:	fcf43823          	sd	a5,-48(s0)
ffffffc050406444:	fd043503          	ld	a0,-48(s0)
ffffffc050406448:	92bff0ef          	jal	ra,ffffffc050405d72 <kva2pa>
ffffffc05040644c:	87aa                	mv	a5,a0
ffffffc05040644e:	00c7d713          	srli	a4,a5,0xc
ffffffc050406452:	fa043783          	ld	a5,-96(s0)
ffffffc050406456:	072a                	slli	a4,a4,0xa
ffffffc050406458:	e398                	sd	a4,0(a5)
ffffffc05040645a:	fa043783          	ld	a5,-96(s0)
ffffffc05040645e:	4585                	li	a1,1
ffffffc050406460:	853e                	mv	a0,a5
ffffffc050406462:	98fff0ef          	jal	ra,ffffffc050405df0 <set_attribute>
ffffffc050406466:	fb043783          	ld	a5,-80(s0)
ffffffc05040646a:	00379713          	slli	a4,a5,0x3
ffffffc05040646e:	fd043783          	ld	a5,-48(s0)
ffffffc050406472:	97ba                	add	a5,a5,a4
ffffffc050406474:	f8f43c23          	sd	a5,-104(s0)
ffffffc050406478:	a00d                	j	ffffffc05040649a <setup_shm_page+0x136>
ffffffc05040647a:	fb043783          	ld	a5,-80(s0)
ffffffc05040647e:	00379493          	slli	s1,a5,0x3
ffffffc050406482:	fa043783          	ld	a5,-96(s0)
ffffffc050406486:	639c                	ld	a5,0(a5)
ffffffc050406488:	83a9                	srli	a5,a5,0xa
ffffffc05040648a:	07b2                	slli	a5,a5,0xc
ffffffc05040648c:	853e                	mv	a0,a5
ffffffc05040648e:	901ff0ef          	jal	ra,ffffffc050405d8e <pa2kva>
ffffffc050406492:	87aa                	mv	a5,a0
ffffffc050406494:	97a6                	add	a5,a5,s1
ffffffc050406496:	f8f43c23          	sd	a5,-104(s0)
ffffffc05040649a:	f9843703          	ld	a4,-104(s0)
ffffffc05040649e:	f8043783          	ld	a5,-128(s0)
ffffffc0504064a2:	83b1                	srli	a5,a5,0xc
ffffffc0504064a4:	85be                	mv	a1,a5
ffffffc0504064a6:	853a                	mv	a0,a4
ffffffc0504064a8:	903ff0ef          	jal	ra,ffffffc050405daa <set_pfn>
ffffffc0504064ac:	0df00793          	li	a5,223
ffffffc0504064b0:	fcf43423          	sd	a5,-56(s0)
ffffffc0504064b4:	f9843783          	ld	a5,-104(s0)
ffffffc0504064b8:	fc843583          	ld	a1,-56(s0)
ffffffc0504064bc:	853e                	mv	a0,a5
ffffffc0504064be:	933ff0ef          	jal	ra,ffffffc050405df0 <set_attribute>
ffffffc0504064c2:	0001                	nop
ffffffc0504064c4:	60aa                	ld	ra,136(sp)
ffffffc0504064c6:	640a                	ld	s0,128(sp)
ffffffc0504064c8:	74e6                	ld	s1,120(sp)
ffffffc0504064ca:	6149                	addi	sp,sp,144
ffffffc0504064cc:	8082                	ret

ffffffc0504064ce <alloc_page_helper>:
ffffffc0504064ce:	7135                	addi	sp,sp,-160
ffffffc0504064d0:	ed06                	sd	ra,152(sp)
ffffffc0504064d2:	e922                	sd	s0,144(sp)
ffffffc0504064d4:	e526                	sd	s1,136(sp)
ffffffc0504064d6:	1100                	addi	s0,sp,160
ffffffc0504064d8:	f6a43c23          	sd	a0,-136(s0)
ffffffc0504064dc:	f6b43823          	sd	a1,-144(s0)
ffffffc0504064e0:	87b2                	mv	a5,a2
ffffffc0504064e2:	8736                	mv	a4,a3
ffffffc0504064e4:	f6f42623          	sw	a5,-148(s0)
ffffffc0504064e8:	87ba                	mv	a5,a4
ffffffc0504064ea:	f6f42423          	sw	a5,-152(s0)
ffffffc0504064ee:	3ff00793          	li	a5,1023
ffffffc0504064f2:	fcf43823          	sd	a5,-48(s0)
ffffffc0504064f6:	f7843783          	ld	a5,-136(s0)
ffffffc0504064fa:	00c7d713          	srli	a4,a5,0xc
ffffffc0504064fe:	fd043783          	ld	a5,-48(s0)
ffffffc050406502:	8ff9                	and	a5,a5,a4
ffffffc050406504:	faf43023          	sd	a5,-96(s0)
ffffffc050406508:	f7843783          	ld	a5,-136(s0)
ffffffc05040650c:	0157d713          	srli	a4,a5,0x15
ffffffc050406510:	fd043783          	ld	a5,-48(s0)
ffffffc050406514:	8ff9                	and	a5,a5,a4
ffffffc050406516:	faf43423          	sd	a5,-88(s0)
ffffffc05040651a:	f7843783          	ld	a5,-136(s0)
ffffffc05040651e:	01e7d713          	srli	a4,a5,0x1e
ffffffc050406522:	fd043783          	ld	a5,-48(s0)
ffffffc050406526:	8ff9                	and	a5,a5,a4
ffffffc050406528:	faf43823          	sd	a5,-80(s0)
ffffffc05040652c:	f8043423          	sd	zero,-120(s0)
ffffffc050406530:	f8043823          	sd	zero,-112(s0)
ffffffc050406534:	fb043783          	ld	a5,-80(s0)
ffffffc050406538:	00379713          	slli	a4,a5,0x3
ffffffc05040653c:	f7043783          	ld	a5,-144(s0)
ffffffc050406540:	97ba                	add	a5,a5,a4
ffffffc050406542:	f8f43c23          	sd	a5,-104(s0)
ffffffc050406546:	4789                	li	a5,2
ffffffc050406548:	fcf42e23          	sw	a5,-36(s0)
ffffffc05040654c:	a8ed                	j	ffffffc050406646 <alloc_page_helper+0x178>
ffffffc05040654e:	fdc42783          	lw	a5,-36(s0)
ffffffc050406552:	078e                	slli	a5,a5,0x3
ffffffc050406554:	fe040713          	addi	a4,s0,-32
ffffffc050406558:	97ba                	add	a5,a5,a4
ffffffc05040655a:	fa87b783          	ld	a5,-88(a5) # ffffffffffffefa8 <__BSS_END__+0x3fafbaa770>
ffffffc05040655e:	639c                	ld	a5,0(a5)
ffffffc050406560:	8b85                	andi	a5,a5,1
ffffffc050406562:	e7d1                	bnez	a5,ffffffc0504065ee <alloc_page_helper+0x120>
ffffffc050406564:	8b5ff0ef          	jal	ra,ffffffc050405e18 <allocPage>
ffffffc050406568:	872a                	mv	a4,a0
ffffffc05040656a:	77fd                	lui	a5,0xfffff
ffffffc05040656c:	97ba                	add	a5,a5,a4
ffffffc05040656e:	faf43c23          	sd	a5,-72(s0)
ffffffc050406572:	fb843503          	ld	a0,-72(s0)
ffffffc050406576:	ffcff0ef          	jal	ra,ffffffc050405d72 <kva2pa>
ffffffc05040657a:	87aa                	mv	a5,a0
ffffffc05040657c:	00c7d713          	srli	a4,a5,0xc
ffffffc050406580:	fdc42783          	lw	a5,-36(s0)
ffffffc050406584:	078e                	slli	a5,a5,0x3
ffffffc050406586:	fe040693          	addi	a3,s0,-32
ffffffc05040658a:	97b6                	add	a5,a5,a3
ffffffc05040658c:	fa87b783          	ld	a5,-88(a5) # ffffffffffffefa8 <__BSS_END__+0x3fafbaa770>
ffffffc050406590:	072a                	slli	a4,a4,0xa
ffffffc050406592:	e398                	sd	a4,0(a5)
ffffffc050406594:	fdc42783          	lw	a5,-36(s0)
ffffffc050406598:	078e                	slli	a5,a5,0x3
ffffffc05040659a:	fe040713          	addi	a4,s0,-32
ffffffc05040659e:	97ba                	add	a5,a5,a4
ffffffc0504065a0:	fa87b703          	ld	a4,-88(a5)
ffffffc0504065a4:	f6c42783          	lw	a5,-148(s0)
ffffffc0504065a8:	2781                	sext.w	a5,a5
ffffffc0504065aa:	c399                	beqz	a5,ffffffc0504065b0 <alloc_page_helper+0xe2>
ffffffc0504065ac:	47c5                	li	a5,17
ffffffc0504065ae:	a011                	j	ffffffc0504065b2 <alloc_page_helper+0xe4>
ffffffc0504065b0:	4785                	li	a5,1
ffffffc0504065b2:	85be                	mv	a1,a5
ffffffc0504065b4:	853a                	mv	a0,a4
ffffffc0504065b6:	83bff0ef          	jal	ra,ffffffc050405df0 <set_attribute>
ffffffc0504065ba:	fdc42783          	lw	a5,-36(s0)
ffffffc0504065be:	37fd                	addiw	a5,a5,-1
ffffffc0504065c0:	2781                	sext.w	a5,a5
ffffffc0504065c2:	078e                	slli	a5,a5,0x3
ffffffc0504065c4:	fe040713          	addi	a4,s0,-32
ffffffc0504065c8:	97ba                	add	a5,a5,a4
ffffffc0504065ca:	fc07b783          	ld	a5,-64(a5)
ffffffc0504065ce:	00379713          	slli	a4,a5,0x3
ffffffc0504065d2:	fb843783          	ld	a5,-72(s0)
ffffffc0504065d6:	973e                	add	a4,a4,a5
ffffffc0504065d8:	fdc42783          	lw	a5,-36(s0)
ffffffc0504065dc:	37fd                	addiw	a5,a5,-1
ffffffc0504065de:	2781                	sext.w	a5,a5
ffffffc0504065e0:	078e                	slli	a5,a5,0x3
ffffffc0504065e2:	fe040693          	addi	a3,s0,-32
ffffffc0504065e6:	97b6                	add	a5,a5,a3
ffffffc0504065e8:	fae7b423          	sd	a4,-88(a5)
ffffffc0504065ec:	a881                	j	ffffffc05040663c <alloc_page_helper+0x16e>
ffffffc0504065ee:	fdc42783          	lw	a5,-36(s0)
ffffffc0504065f2:	37fd                	addiw	a5,a5,-1
ffffffc0504065f4:	2781                	sext.w	a5,a5
ffffffc0504065f6:	078e                	slli	a5,a5,0x3
ffffffc0504065f8:	fe040713          	addi	a4,s0,-32
ffffffc0504065fc:	97ba                	add	a5,a5,a4
ffffffc0504065fe:	fc07b783          	ld	a5,-64(a5)
ffffffc050406602:	00379493          	slli	s1,a5,0x3
ffffffc050406606:	fdc42783          	lw	a5,-36(s0)
ffffffc05040660a:	078e                	slli	a5,a5,0x3
ffffffc05040660c:	fe040713          	addi	a4,s0,-32
ffffffc050406610:	97ba                	add	a5,a5,a4
ffffffc050406612:	fa87b783          	ld	a5,-88(a5)
ffffffc050406616:	639c                	ld	a5,0(a5)
ffffffc050406618:	83a9                	srli	a5,a5,0xa
ffffffc05040661a:	07b2                	slli	a5,a5,0xc
ffffffc05040661c:	853e                	mv	a0,a5
ffffffc05040661e:	f70ff0ef          	jal	ra,ffffffc050405d8e <pa2kva>
ffffffc050406622:	87aa                	mv	a5,a0
ffffffc050406624:	00f48733          	add	a4,s1,a5
ffffffc050406628:	fdc42783          	lw	a5,-36(s0)
ffffffc05040662c:	37fd                	addiw	a5,a5,-1
ffffffc05040662e:	2781                	sext.w	a5,a5
ffffffc050406630:	078e                	slli	a5,a5,0x3
ffffffc050406632:	fe040693          	addi	a3,s0,-32
ffffffc050406636:	97b6                	add	a5,a5,a3
ffffffc050406638:	fae7b423          	sd	a4,-88(a5)
ffffffc05040663c:	fdc42783          	lw	a5,-36(s0)
ffffffc050406640:	37fd                	addiw	a5,a5,-1
ffffffc050406642:	fcf42e23          	sw	a5,-36(s0)
ffffffc050406646:	fdc42783          	lw	a5,-36(s0)
ffffffc05040664a:	2781                	sext.w	a5,a5
ffffffc05040664c:	f0f041e3          	bgtz	a5,ffffffc05040654e <alloc_page_helper+0x80>
ffffffc050406650:	f8843783          	ld	a5,-120(s0)
ffffffc050406654:	639c                	ld	a5,0(a5)
ffffffc050406656:	8b85                	andi	a5,a5,1
ffffffc050406658:	c399                	beqz	a5,ffffffc05040665e <alloc_page_helper+0x190>
ffffffc05040665a:	4781                	li	a5,0
ffffffc05040665c:	a095                	j	ffffffc0504066c0 <alloc_page_helper+0x1f2>
ffffffc05040665e:	fbaff0ef          	jal	ra,ffffffc050405e18 <allocPage>
ffffffc050406662:	872a                	mv	a4,a0
ffffffc050406664:	77fd                	lui	a5,0xfffff
ffffffc050406666:	97ba                	add	a5,a5,a4
ffffffc050406668:	fcf43423          	sd	a5,-56(s0)
ffffffc05040666c:	f8843483          	ld	s1,-120(s0)
ffffffc050406670:	fc843503          	ld	a0,-56(s0)
ffffffc050406674:	efeff0ef          	jal	ra,ffffffc050405d72 <kva2pa>
ffffffc050406678:	87aa                	mv	a5,a0
ffffffc05040667a:	83b1                	srli	a5,a5,0xc
ffffffc05040667c:	85be                	mv	a1,a5
ffffffc05040667e:	8526                	mv	a0,s1
ffffffc050406680:	f2aff0ef          	jal	ra,ffffffc050405daa <set_pfn>
ffffffc050406684:	f6c42783          	lw	a5,-148(s0)
ffffffc050406688:	0007871b          	sext.w	a4,a5
ffffffc05040668c:	4785                	li	a5,1
ffffffc05040668e:	00f71463          	bne	a4,a5,ffffffc050406696 <alloc_page_helper+0x1c8>
ffffffc050406692:	47fd                	li	a5,31
ffffffc050406694:	a011                	j	ffffffc050406698 <alloc_page_helper+0x1ca>
ffffffc050406696:	47bd                	li	a5,15
ffffffc050406698:	fcf43023          	sd	a5,-64(s0)
ffffffc05040669c:	f8843783          	ld	a5,-120(s0)
ffffffc0504066a0:	fc043583          	ld	a1,-64(s0)
ffffffc0504066a4:	853e                	mv	a0,a5
ffffffc0504066a6:	f4aff0ef          	jal	ra,ffffffc050405df0 <set_attribute>
ffffffc0504066aa:	f6842783          	lw	a5,-152(s0)
ffffffc0504066ae:	2781                	sext.w	a5,a5
ffffffc0504066b0:	c781                	beqz	a5,ffffffc0504066b8 <alloc_page_helper+0x1ea>
ffffffc0504066b2:	fc843783          	ld	a5,-56(s0)
ffffffc0504066b6:	a029                	j	ffffffc0504066c0 <alloc_page_helper+0x1f2>
ffffffc0504066b8:	fc843703          	ld	a4,-56(s0)
ffffffc0504066bc:	6785                	lui	a5,0x1
ffffffc0504066be:	97ba                	add	a5,a5,a4
ffffffc0504066c0:	853e                	mv	a0,a5
ffffffc0504066c2:	60ea                	ld	ra,152(sp)
ffffffc0504066c4:	644a                	ld	s0,144(sp)
ffffffc0504066c6:	64aa                	ld	s1,136(sp)
ffffffc0504066c8:	610d                	addi	sp,sp,160
ffffffc0504066ca:	8082                	ret

ffffffc0504066cc <alloc_page_helper_user>:
ffffffc0504066cc:	1101                	addi	sp,sp,-32
ffffffc0504066ce:	ec06                	sd	ra,24(sp)
ffffffc0504066d0:	e822                	sd	s0,16(sp)
ffffffc0504066d2:	1000                	addi	s0,sp,32
ffffffc0504066d4:	fea43423          	sd	a0,-24(s0)
ffffffc0504066d8:	feb43023          	sd	a1,-32(s0)
ffffffc0504066dc:	4685                	li	a3,1
ffffffc0504066de:	4605                	li	a2,1
ffffffc0504066e0:	fe043583          	ld	a1,-32(s0)
ffffffc0504066e4:	fe843503          	ld	a0,-24(s0)
ffffffc0504066e8:	de7ff0ef          	jal	ra,ffffffc0504064ce <alloc_page_helper>
ffffffc0504066ec:	87aa                	mv	a5,a0
ffffffc0504066ee:	853e                	mv	a0,a5
ffffffc0504066f0:	60e2                	ld	ra,24(sp)
ffffffc0504066f2:	6442                	ld	s0,16(sp)
ffffffc0504066f4:	6105                	addi	sp,sp,32
ffffffc0504066f6:	8082                	ret

ffffffc0504066f8 <free_page_helper>:
ffffffc0504066f8:	711d                	addi	sp,sp,-96
ffffffc0504066fa:	ec86                	sd	ra,88(sp)
ffffffc0504066fc:	e8a2                	sd	s0,80(sp)
ffffffc0504066fe:	e4a6                	sd	s1,72(sp)
ffffffc050406700:	1080                	addi	s0,sp,96
ffffffc050406702:	faa43423          	sd	a0,-88(s0)
ffffffc050406706:	fab43023          	sd	a1,-96(s0)
ffffffc05040670a:	fa843783          	ld	a5,-88(s0)
ffffffc05040670e:	83b1                	srli	a5,a5,0xc
ffffffc050406710:	3ff7f793          	andi	a5,a5,1023
ffffffc050406714:	fcf43423          	sd	a5,-56(s0)
ffffffc050406718:	fa843783          	ld	a5,-88(s0)
ffffffc05040671c:	83d5                	srli	a5,a5,0x15
ffffffc05040671e:	3ff7f793          	andi	a5,a5,1023
ffffffc050406722:	fcf43823          	sd	a5,-48(s0)
ffffffc050406726:	fa843783          	ld	a5,-88(s0)
ffffffc05040672a:	83f9                	srli	a5,a5,0x1e
ffffffc05040672c:	3ff7f793          	andi	a5,a5,1023
ffffffc050406730:	fcf43c23          	sd	a5,-40(s0)
ffffffc050406734:	fd843783          	ld	a5,-40(s0)
ffffffc050406738:	00379713          	slli	a4,a5,0x3
ffffffc05040673c:	fa043783          	ld	a5,-96(s0)
ffffffc050406740:	97ba                	add	a5,a5,a4
ffffffc050406742:	faf43823          	sd	a5,-80(s0)
ffffffc050406746:	fd043783          	ld	a5,-48(s0)
ffffffc05040674a:	00379493          	slli	s1,a5,0x3
ffffffc05040674e:	fc043783          	ld	a5,-64(s0)
ffffffc050406752:	639c                	ld	a5,0(a5)
ffffffc050406754:	83a9                	srli	a5,a5,0xa
ffffffc050406756:	07b2                	slli	a5,a5,0xc
ffffffc050406758:	853e                	mv	a0,a5
ffffffc05040675a:	e34ff0ef          	jal	ra,ffffffc050405d8e <pa2kva>
ffffffc05040675e:	87aa                	mv	a5,a0
ffffffc050406760:	97a6                	add	a5,a5,s1
ffffffc050406762:	faf43c23          	sd	a5,-72(s0)
ffffffc050406766:	fc843783          	ld	a5,-56(s0)
ffffffc05040676a:	00379493          	slli	s1,a5,0x3
ffffffc05040676e:	fb843783          	ld	a5,-72(s0)
ffffffc050406772:	639c                	ld	a5,0(a5)
ffffffc050406774:	83a9                	srli	a5,a5,0xa
ffffffc050406776:	07b2                	slli	a5,a5,0xc
ffffffc050406778:	853e                	mv	a0,a5
ffffffc05040677a:	e14ff0ef          	jal	ra,ffffffc050405d8e <pa2kva>
ffffffc05040677e:	87aa                	mv	a5,a0
ffffffc050406780:	97a6                	add	a5,a5,s1
ffffffc050406782:	fcf43023          	sd	a5,-64(s0)
ffffffc050406786:	fb043783          	ld	a5,-80(s0)
ffffffc05040678a:	0007b023          	sd	zero,0(a5) # 1000 <_start-0xffffffc0503ff000>
ffffffc05040678e:	0001                	nop
ffffffc050406790:	853e                	mv	a0,a5
ffffffc050406792:	60e6                	ld	ra,88(sp)
ffffffc050406794:	6446                	ld	s0,80(sp)
ffffffc050406796:	64a6                	ld	s1,72(sp)
ffffffc050406798:	6125                	addi	sp,sp,96
ffffffc05040679a:	8082                	ret

ffffffc05040679c <check_page_helper>:
ffffffc05040679c:	711d                	addi	sp,sp,-96
ffffffc05040679e:	ec86                	sd	ra,88(sp)
ffffffc0504067a0:	e8a2                	sd	s0,80(sp)
ffffffc0504067a2:	e4a6                	sd	s1,72(sp)
ffffffc0504067a4:	1080                	addi	s0,sp,96
ffffffc0504067a6:	faa43423          	sd	a0,-88(s0)
ffffffc0504067aa:	fab43023          	sd	a1,-96(s0)
ffffffc0504067ae:	fa843783          	ld	a5,-88(s0)
ffffffc0504067b2:	83b1                	srli	a5,a5,0xc
ffffffc0504067b4:	3ff7f793          	andi	a5,a5,1023
ffffffc0504067b8:	fcf43423          	sd	a5,-56(s0)
ffffffc0504067bc:	fa843783          	ld	a5,-88(s0)
ffffffc0504067c0:	83d5                	srli	a5,a5,0x15
ffffffc0504067c2:	3ff7f793          	andi	a5,a5,1023
ffffffc0504067c6:	fcf43823          	sd	a5,-48(s0)
ffffffc0504067ca:	fa843783          	ld	a5,-88(s0)
ffffffc0504067ce:	83f9                	srli	a5,a5,0x1e
ffffffc0504067d0:	3ff7f793          	andi	a5,a5,1023
ffffffc0504067d4:	fcf43c23          	sd	a5,-40(s0)
ffffffc0504067d8:	fd843783          	ld	a5,-40(s0)
ffffffc0504067dc:	00379713          	slli	a4,a5,0x3
ffffffc0504067e0:	fa043783          	ld	a5,-96(s0)
ffffffc0504067e4:	97ba                	add	a5,a5,a4
ffffffc0504067e6:	faf43823          	sd	a5,-80(s0)
ffffffc0504067ea:	fa043c23          	sd	zero,-72(s0)
ffffffc0504067ee:	fc043023          	sd	zero,-64(s0)
ffffffc0504067f2:	fc043783          	ld	a5,-64(s0)
ffffffc0504067f6:	639c                	ld	a5,0(a5)
ffffffc0504067f8:	8b85                	andi	a5,a5,1
ffffffc0504067fa:	e399                	bnez	a5,ffffffc050406800 <check_page_helper+0x64>
ffffffc0504067fc:	4781                	li	a5,0
ffffffc0504067fe:	a08d                	j	ffffffc050406860 <check_page_helper+0xc4>
ffffffc050406800:	fd043783          	ld	a5,-48(s0)
ffffffc050406804:	00379493          	slli	s1,a5,0x3
ffffffc050406808:	fc043783          	ld	a5,-64(s0)
ffffffc05040680c:	639c                	ld	a5,0(a5)
ffffffc05040680e:	83a9                	srli	a5,a5,0xa
ffffffc050406810:	07b2                	slli	a5,a5,0xc
ffffffc050406812:	853e                	mv	a0,a5
ffffffc050406814:	d7aff0ef          	jal	ra,ffffffc050405d8e <pa2kva>
ffffffc050406818:	87aa                	mv	a5,a0
ffffffc05040681a:	97a6                	add	a5,a5,s1
ffffffc05040681c:	faf43c23          	sd	a5,-72(s0)
ffffffc050406820:	fb843783          	ld	a5,-72(s0)
ffffffc050406824:	639c                	ld	a5,0(a5)
ffffffc050406826:	8b85                	andi	a5,a5,1
ffffffc050406828:	e399                	bnez	a5,ffffffc05040682e <check_page_helper+0x92>
ffffffc05040682a:	4781                	li	a5,0
ffffffc05040682c:	a815                	j	ffffffc050406860 <check_page_helper+0xc4>
ffffffc05040682e:	fc843783          	ld	a5,-56(s0)
ffffffc050406832:	00379493          	slli	s1,a5,0x3
ffffffc050406836:	fb843783          	ld	a5,-72(s0)
ffffffc05040683a:	639c                	ld	a5,0(a5)
ffffffc05040683c:	83a9                	srli	a5,a5,0xa
ffffffc05040683e:	07b2                	slli	a5,a5,0xc
ffffffc050406840:	853e                	mv	a0,a5
ffffffc050406842:	d4cff0ef          	jal	ra,ffffffc050405d8e <pa2kva>
ffffffc050406846:	87aa                	mv	a5,a0
ffffffc050406848:	97a6                	add	a5,a5,s1
ffffffc05040684a:	faf43823          	sd	a5,-80(s0)
ffffffc05040684e:	fb043783          	ld	a5,-80(s0)
ffffffc050406852:	639c                	ld	a5,0(a5)
ffffffc050406854:	8b85                	andi	a5,a5,1
ffffffc050406856:	e399                	bnez	a5,ffffffc05040685c <check_page_helper+0xc0>
ffffffc050406858:	4781                	li	a5,0
ffffffc05040685a:	a019                	j	ffffffc050406860 <check_page_helper+0xc4>
ffffffc05040685c:	fb043783          	ld	a5,-80(s0)
ffffffc050406860:	853e                	mv	a0,a5
ffffffc050406862:	60e6                	ld	ra,88(sp)
ffffffc050406864:	6446                	ld	s0,80(sp)
ffffffc050406866:	64a6                	ld	s1,72(sp)
ffffffc050406868:	6125                	addi	sp,sp,96
ffffffc05040686a:	8082                	ret

ffffffc05040686c <handle_syscall>:
ffffffc05040686c:	7179                	addi	sp,sp,-48
ffffffc05040686e:	f406                	sd	ra,40(sp)
ffffffc050406870:	f022                	sd	s0,32(sp)
ffffffc050406872:	1800                	addi	s0,sp,48
ffffffc050406874:	fea43423          	sd	a0,-24(s0)
ffffffc050406878:	feb43023          	sd	a1,-32(s0)
ffffffc05040687c:	fcc43c23          	sd	a2,-40(s0)
ffffffc050406880:	fe843783          	ld	a5,-24(s0)
ffffffc050406884:	1087b783          	ld	a5,264(a5)
ffffffc050406888:	00478713          	addi	a4,a5,4
ffffffc05040688c:	fe843783          	ld	a5,-24(s0)
ffffffc050406890:	10e7b423          	sd	a4,264(a5)
ffffffc050406894:	fe843783          	ld	a5,-24(s0)
ffffffc050406898:	67dc                	ld	a5,136(a5)
ffffffc05040689a:	0004e717          	auipc	a4,0x4e
ffffffc05040689e:	d9e70713          	addi	a4,a4,-610 # ffffffc050454638 <syscall>
ffffffc0504068a2:	078e                	slli	a5,a5,0x3
ffffffc0504068a4:	97ba                	add	a5,a5,a4
ffffffc0504068a6:	0007b803          	ld	a6,0(a5)
ffffffc0504068aa:	fe843783          	ld	a5,-24(s0)
ffffffc0504068ae:	6bb8                	ld	a4,80(a5)
ffffffc0504068b0:	fe843783          	ld	a5,-24(s0)
ffffffc0504068b4:	6fac                	ld	a1,88(a5)
ffffffc0504068b6:	fe843783          	ld	a5,-24(s0)
ffffffc0504068ba:	73b0                	ld	a2,96(a5)
ffffffc0504068bc:	fe843783          	ld	a5,-24(s0)
ffffffc0504068c0:	77bc                	ld	a5,104(a5)
ffffffc0504068c2:	86be                	mv	a3,a5
ffffffc0504068c4:	853a                	mv	a0,a4
ffffffc0504068c6:	9802                	jalr	a6
ffffffc0504068c8:	87aa                	mv	a5,a0
ffffffc0504068ca:	873e                	mv	a4,a5
ffffffc0504068cc:	fe843783          	ld	a5,-24(s0)
ffffffc0504068d0:	ebb8                	sd	a4,80(a5)
ffffffc0504068d2:	0001                	nop
ffffffc0504068d4:	70a2                	ld	ra,40(sp)
ffffffc0504068d6:	7402                	ld	s0,32(sp)
ffffffc0504068d8:	6145                	addi	sp,sp,48
ffffffc0504068da:	8082                	ret

ffffffc0504068dc <strlen>:
ffffffc0504068dc:	7179                	addi	sp,sp,-48
ffffffc0504068de:	f422                	sd	s0,40(sp)
ffffffc0504068e0:	1800                	addi	s0,sp,48
ffffffc0504068e2:	fca43c23          	sd	a0,-40(s0)
ffffffc0504068e6:	fe042623          	sw	zero,-20(s0)
ffffffc0504068ea:	a031                	j	ffffffc0504068f6 <strlen+0x1a>
ffffffc0504068ec:	fec42783          	lw	a5,-20(s0)
ffffffc0504068f0:	2785                	addiw	a5,a5,1
ffffffc0504068f2:	fef42623          	sw	a5,-20(s0)
ffffffc0504068f6:	fec42783          	lw	a5,-20(s0)
ffffffc0504068fa:	fd843703          	ld	a4,-40(s0)
ffffffc0504068fe:	97ba                	add	a5,a5,a4
ffffffc050406900:	0007c783          	lbu	a5,0(a5)
ffffffc050406904:	f7e5                	bnez	a5,ffffffc0504068ec <strlen+0x10>
ffffffc050406906:	fec42783          	lw	a5,-20(s0)
ffffffc05040690a:	853e                	mv	a0,a5
ffffffc05040690c:	7422                	ld	s0,40(sp)
ffffffc05040690e:	6145                	addi	sp,sp,48
ffffffc050406910:	8082                	ret

ffffffc050406912 <memcpy>:
ffffffc050406912:	7179                	addi	sp,sp,-48
ffffffc050406914:	f422                	sd	s0,40(sp)
ffffffc050406916:	1800                	addi	s0,sp,48
ffffffc050406918:	fea43423          	sd	a0,-24(s0)
ffffffc05040691c:	feb43023          	sd	a1,-32(s0)
ffffffc050406920:	87b2                	mv	a5,a2
ffffffc050406922:	fcf42e23          	sw	a5,-36(s0)
ffffffc050406926:	a035                	j	ffffffc050406952 <memcpy+0x40>
ffffffc050406928:	fe043703          	ld	a4,-32(s0)
ffffffc05040692c:	00170793          	addi	a5,a4,1
ffffffc050406930:	fef43023          	sd	a5,-32(s0)
ffffffc050406934:	fe843783          	ld	a5,-24(s0)
ffffffc050406938:	00178693          	addi	a3,a5,1
ffffffc05040693c:	fed43423          	sd	a3,-24(s0)
ffffffc050406940:	00074703          	lbu	a4,0(a4)
ffffffc050406944:	00e78023          	sb	a4,0(a5)
ffffffc050406948:	fdc42783          	lw	a5,-36(s0)
ffffffc05040694c:	37fd                	addiw	a5,a5,-1
ffffffc05040694e:	fcf42e23          	sw	a5,-36(s0)
ffffffc050406952:	fdc42783          	lw	a5,-36(s0)
ffffffc050406956:	2781                	sext.w	a5,a5
ffffffc050406958:	fbe1                	bnez	a5,ffffffc050406928 <memcpy+0x16>
ffffffc05040695a:	0001                	nop
ffffffc05040695c:	0001                	nop
ffffffc05040695e:	7422                	ld	s0,40(sp)
ffffffc050406960:	6145                	addi	sp,sp,48
ffffffc050406962:	8082                	ret

ffffffc050406964 <memset>:
ffffffc050406964:	7179                	addi	sp,sp,-48
ffffffc050406966:	f422                	sd	s0,40(sp)
ffffffc050406968:	1800                	addi	s0,sp,48
ffffffc05040696a:	fca43c23          	sd	a0,-40(s0)
ffffffc05040696e:	87ae                	mv	a5,a1
ffffffc050406970:	8732                	mv	a4,a2
ffffffc050406972:	fcf40ba3          	sb	a5,-41(s0)
ffffffc050406976:	87ba                	mv	a5,a4
ffffffc050406978:	fcf42823          	sw	a5,-48(s0)
ffffffc05040697c:	fd843783          	ld	a5,-40(s0)
ffffffc050406980:	fef43423          	sd	a5,-24(s0)
ffffffc050406984:	a005                	j	ffffffc0504069a4 <memset+0x40>
ffffffc050406986:	fe843783          	ld	a5,-24(s0)
ffffffc05040698a:	00178713          	addi	a4,a5,1
ffffffc05040698e:	fee43423          	sd	a4,-24(s0)
ffffffc050406992:	fd744703          	lbu	a4,-41(s0)
ffffffc050406996:	00e78023          	sb	a4,0(a5)
ffffffc05040699a:	fd042783          	lw	a5,-48(s0)
ffffffc05040699e:	37fd                	addiw	a5,a5,-1
ffffffc0504069a0:	fcf42823          	sw	a5,-48(s0)
ffffffc0504069a4:	fd042783          	lw	a5,-48(s0)
ffffffc0504069a8:	2781                	sext.w	a5,a5
ffffffc0504069aa:	fff1                	bnez	a5,ffffffc050406986 <memset+0x22>
ffffffc0504069ac:	0001                	nop
ffffffc0504069ae:	0001                	nop
ffffffc0504069b0:	7422                	ld	s0,40(sp)
ffffffc0504069b2:	6145                	addi	sp,sp,48
ffffffc0504069b4:	8082                	ret

ffffffc0504069b6 <bzero>:
ffffffc0504069b6:	1101                	addi	sp,sp,-32
ffffffc0504069b8:	ec06                	sd	ra,24(sp)
ffffffc0504069ba:	e822                	sd	s0,16(sp)
ffffffc0504069bc:	1000                	addi	s0,sp,32
ffffffc0504069be:	fea43423          	sd	a0,-24(s0)
ffffffc0504069c2:	87ae                	mv	a5,a1
ffffffc0504069c4:	fef42223          	sw	a5,-28(s0)
ffffffc0504069c8:	fe442783          	lw	a5,-28(s0)
ffffffc0504069cc:	863e                	mv	a2,a5
ffffffc0504069ce:	4581                	li	a1,0
ffffffc0504069d0:	fe843503          	ld	a0,-24(s0)
ffffffc0504069d4:	f91ff0ef          	jal	ra,ffffffc050406964 <memset>
ffffffc0504069d8:	0001                	nop
ffffffc0504069da:	60e2                	ld	ra,24(sp)
ffffffc0504069dc:	6442                	ld	s0,16(sp)
ffffffc0504069de:	6105                	addi	sp,sp,32
ffffffc0504069e0:	8082                	ret

ffffffc0504069e2 <strcmp>:
ffffffc0504069e2:	1101                	addi	sp,sp,-32
ffffffc0504069e4:	ec22                	sd	s0,24(sp)
ffffffc0504069e6:	1000                	addi	s0,sp,32
ffffffc0504069e8:	fea43423          	sd	a0,-24(s0)
ffffffc0504069ec:	feb43023          	sd	a1,-32(s0)
ffffffc0504069f0:	a0a1                	j	ffffffc050406a38 <strcmp+0x56>
ffffffc0504069f2:	fe843783          	ld	a5,-24(s0)
ffffffc0504069f6:	0007c703          	lbu	a4,0(a5)
ffffffc0504069fa:	fe043783          	ld	a5,-32(s0)
ffffffc0504069fe:	0007c783          	lbu	a5,0(a5)
ffffffc050406a02:	02f70163          	beq	a4,a5,ffffffc050406a24 <strcmp+0x42>
ffffffc050406a06:	fe843783          	ld	a5,-24(s0)
ffffffc050406a0a:	0007c783          	lbu	a5,0(a5)
ffffffc050406a0e:	0007871b          	sext.w	a4,a5
ffffffc050406a12:	fe043783          	ld	a5,-32(s0)
ffffffc050406a16:	0007c783          	lbu	a5,0(a5)
ffffffc050406a1a:	2781                	sext.w	a5,a5
ffffffc050406a1c:	40f707bb          	subw	a5,a4,a5
ffffffc050406a20:	2781                	sext.w	a5,a5
ffffffc050406a22:	a099                	j	ffffffc050406a68 <strcmp+0x86>
ffffffc050406a24:	fe843783          	ld	a5,-24(s0)
ffffffc050406a28:	0785                	addi	a5,a5,1
ffffffc050406a2a:	fef43423          	sd	a5,-24(s0)
ffffffc050406a2e:	fe043783          	ld	a5,-32(s0)
ffffffc050406a32:	0785                	addi	a5,a5,1
ffffffc050406a34:	fef43023          	sd	a5,-32(s0)
ffffffc050406a38:	fe843783          	ld	a5,-24(s0)
ffffffc050406a3c:	0007c783          	lbu	a5,0(a5)
ffffffc050406a40:	c791                	beqz	a5,ffffffc050406a4c <strcmp+0x6a>
ffffffc050406a42:	fe043783          	ld	a5,-32(s0)
ffffffc050406a46:	0007c783          	lbu	a5,0(a5)
ffffffc050406a4a:	f7c5                	bnez	a5,ffffffc0504069f2 <strcmp+0x10>
ffffffc050406a4c:	fe843783          	ld	a5,-24(s0)
ffffffc050406a50:	0007c783          	lbu	a5,0(a5)
ffffffc050406a54:	0007871b          	sext.w	a4,a5
ffffffc050406a58:	fe043783          	ld	a5,-32(s0)
ffffffc050406a5c:	0007c783          	lbu	a5,0(a5)
ffffffc050406a60:	2781                	sext.w	a5,a5
ffffffc050406a62:	40f707bb          	subw	a5,a4,a5
ffffffc050406a66:	2781                	sext.w	a5,a5
ffffffc050406a68:	853e                	mv	a0,a5
ffffffc050406a6a:	6462                	ld	s0,24(sp)
ffffffc050406a6c:	6105                	addi	sp,sp,32
ffffffc050406a6e:	8082                	ret

ffffffc050406a70 <strcpy>:
ffffffc050406a70:	7179                	addi	sp,sp,-48
ffffffc050406a72:	f422                	sd	s0,40(sp)
ffffffc050406a74:	1800                	addi	s0,sp,48
ffffffc050406a76:	fca43c23          	sd	a0,-40(s0)
ffffffc050406a7a:	fcb43823          	sd	a1,-48(s0)
ffffffc050406a7e:	fd843783          	ld	a5,-40(s0)
ffffffc050406a82:	fef43423          	sd	a5,-24(s0)
ffffffc050406a86:	a00d                	j	ffffffc050406aa8 <strcpy+0x38>
ffffffc050406a88:	fd043703          	ld	a4,-48(s0)
ffffffc050406a8c:	00170793          	addi	a5,a4,1
ffffffc050406a90:	fcf43823          	sd	a5,-48(s0)
ffffffc050406a94:	fd843783          	ld	a5,-40(s0)
ffffffc050406a98:	00178693          	addi	a3,a5,1
ffffffc050406a9c:	fcd43c23          	sd	a3,-40(s0)
ffffffc050406aa0:	00074703          	lbu	a4,0(a4)
ffffffc050406aa4:	00e78023          	sb	a4,0(a5)
ffffffc050406aa8:	fd043783          	ld	a5,-48(s0)
ffffffc050406aac:	0007c783          	lbu	a5,0(a5)
ffffffc050406ab0:	ffe1                	bnez	a5,ffffffc050406a88 <strcpy+0x18>
ffffffc050406ab2:	fd843783          	ld	a5,-40(s0)
ffffffc050406ab6:	00078023          	sb	zero,0(a5)
ffffffc050406aba:	fe843783          	ld	a5,-24(s0)
ffffffc050406abe:	853e                	mv	a0,a5
ffffffc050406ac0:	7422                	ld	s0,40(sp)
ffffffc050406ac2:	6145                	addi	sp,sp,48
ffffffc050406ac4:	8082                	ret

ffffffc050406ac6 <strcat>:
ffffffc050406ac6:	7179                	addi	sp,sp,-48
ffffffc050406ac8:	f422                	sd	s0,40(sp)
ffffffc050406aca:	1800                	addi	s0,sp,48
ffffffc050406acc:	fca43c23          	sd	a0,-40(s0)
ffffffc050406ad0:	fcb43823          	sd	a1,-48(s0)
ffffffc050406ad4:	fd843783          	ld	a5,-40(s0)
ffffffc050406ad8:	fef43423          	sd	a5,-24(s0)
ffffffc050406adc:	a031                	j	ffffffc050406ae8 <strcat+0x22>
ffffffc050406ade:	fd843783          	ld	a5,-40(s0)
ffffffc050406ae2:	0785                	addi	a5,a5,1
ffffffc050406ae4:	fcf43c23          	sd	a5,-40(s0)
ffffffc050406ae8:	fd843783          	ld	a5,-40(s0)
ffffffc050406aec:	0007c783          	lbu	a5,0(a5)
ffffffc050406af0:	f7fd                	bnez	a5,ffffffc050406ade <strcat+0x18>
ffffffc050406af2:	a00d                	j	ffffffc050406b14 <strcat+0x4e>
ffffffc050406af4:	fd043703          	ld	a4,-48(s0)
ffffffc050406af8:	00170793          	addi	a5,a4,1
ffffffc050406afc:	fcf43823          	sd	a5,-48(s0)
ffffffc050406b00:	fd843783          	ld	a5,-40(s0)
ffffffc050406b04:	00178693          	addi	a3,a5,1
ffffffc050406b08:	fcd43c23          	sd	a3,-40(s0)
ffffffc050406b0c:	00074703          	lbu	a4,0(a4)
ffffffc050406b10:	00e78023          	sb	a4,0(a5)
ffffffc050406b14:	fd043783          	ld	a5,-48(s0)
ffffffc050406b18:	0007c783          	lbu	a5,0(a5)
ffffffc050406b1c:	ffe1                	bnez	a5,ffffffc050406af4 <strcat+0x2e>
ffffffc050406b1e:	fd843783          	ld	a5,-40(s0)
ffffffc050406b22:	00078023          	sb	zero,0(a5)
ffffffc050406b26:	fe843783          	ld	a5,-24(s0)
ffffffc050406b2a:	853e                	mv	a0,a5
ffffffc050406b2c:	7422                	ld	s0,40(sp)
ffffffc050406b2e:	6145                	addi	sp,sp,48
ffffffc050406b30:	8082                	ret

ffffffc050406b32 <mini_strlen>:
ffffffc050406b32:	7179                	addi	sp,sp,-48
ffffffc050406b34:	f422                	sd	s0,40(sp)
ffffffc050406b36:	1800                	addi	s0,sp,48
ffffffc050406b38:	fca43c23          	sd	a0,-40(s0)
ffffffc050406b3c:	fe042623          	sw	zero,-20(s0)
ffffffc050406b40:	a031                	j	ffffffc050406b4c <mini_strlen+0x1a>
ffffffc050406b42:	fec42783          	lw	a5,-20(s0)
ffffffc050406b46:	2785                	addiw	a5,a5,1
ffffffc050406b48:	fef42623          	sw	a5,-20(s0)
ffffffc050406b4c:	fec46783          	lwu	a5,-20(s0)
ffffffc050406b50:	fd843703          	ld	a4,-40(s0)
ffffffc050406b54:	97ba                	add	a5,a5,a4
ffffffc050406b56:	0007c783          	lbu	a5,0(a5)
ffffffc050406b5a:	f7e5                	bnez	a5,ffffffc050406b42 <mini_strlen+0x10>
ffffffc050406b5c:	fec42783          	lw	a5,-20(s0)
ffffffc050406b60:	853e                	mv	a0,a5
ffffffc050406b62:	7422                	ld	s0,40(sp)
ffffffc050406b64:	6145                	addi	sp,sp,48
ffffffc050406b66:	8082                	ret

ffffffc050406b68 <mini_itoa>:
ffffffc050406b68:	715d                	addi	sp,sp,-80
ffffffc050406b6a:	e4a2                	sd	s0,72(sp)
ffffffc050406b6c:	0880                	addi	s0,sp,80
ffffffc050406b6e:	fca43423          	sd	a0,-56(s0)
ffffffc050406b72:	fae43823          	sd	a4,-80(s0)
ffffffc050406b76:	873e                	mv	a4,a5
ffffffc050406b78:	87ae                	mv	a5,a1
ffffffc050406b7a:	fcf42223          	sw	a5,-60(s0)
ffffffc050406b7e:	87b2                	mv	a5,a2
ffffffc050406b80:	fcf42023          	sw	a5,-64(s0)
ffffffc050406b84:	87b6                	mv	a5,a3
ffffffc050406b86:	faf42e23          	sw	a5,-68(s0)
ffffffc050406b8a:	87ba                	mv	a5,a4
ffffffc050406b8c:	faf42c23          	sw	a5,-72(s0)
ffffffc050406b90:	fb043783          	ld	a5,-80(s0)
ffffffc050406b94:	fef43423          	sd	a5,-24(s0)
ffffffc050406b98:	fe042223          	sw	zero,-28(s0)
ffffffc050406b9c:	fc442783          	lw	a5,-60(s0)
ffffffc050406ba0:	0007871b          	sext.w	a4,a5
ffffffc050406ba4:	47c1                	li	a5,16
ffffffc050406ba6:	00e7f463          	bgeu	a5,a4,ffffffc050406bae <mini_itoa+0x46>
ffffffc050406baa:	4781                	li	a5,0
ffffffc050406bac:	aae9                	j	ffffffc050406d86 <mini_itoa+0x21e>
ffffffc050406bae:	fc843783          	ld	a5,-56(s0)
ffffffc050406bb2:	0007df63          	bgez	a5,ffffffc050406bd0 <mini_itoa+0x68>
ffffffc050406bb6:	fbc42783          	lw	a5,-68(s0)
ffffffc050406bba:	2781                	sext.w	a5,a5
ffffffc050406bbc:	eb91                	bnez	a5,ffffffc050406bd0 <mini_itoa+0x68>
ffffffc050406bbe:	4785                	li	a5,1
ffffffc050406bc0:	fef42223          	sw	a5,-28(s0)
ffffffc050406bc4:	fc843783          	ld	a5,-56(s0)
ffffffc050406bc8:	40f007b3          	neg	a5,a5
ffffffc050406bcc:	fcf43423          	sd	a5,-56(s0)
ffffffc050406bd0:	fc042e23          	sw	zero,-36(s0)
ffffffc050406bd4:	fbc42783          	lw	a5,-68(s0)
ffffffc050406bd8:	2781                	sext.w	a5,a5
ffffffc050406bda:	cb91                	beqz	a5,ffffffc050406bee <mini_itoa+0x86>
ffffffc050406bdc:	fc843703          	ld	a4,-56(s0)
ffffffc050406be0:	fc446783          	lwu	a5,-60(s0)
ffffffc050406be4:	02f777b3          	remu	a5,a4,a5
ffffffc050406be8:	fcf42e23          	sw	a5,-36(s0)
ffffffc050406bec:	a809                	j	ffffffc050406bfe <mini_itoa+0x96>
ffffffc050406bee:	fc446783          	lwu	a5,-60(s0)
ffffffc050406bf2:	fc843703          	ld	a4,-56(s0)
ffffffc050406bf6:	02f767b3          	rem	a5,a4,a5
ffffffc050406bfa:	fcf42e23          	sw	a5,-36(s0)
ffffffc050406bfe:	fdc42783          	lw	a5,-36(s0)
ffffffc050406c02:	0007871b          	sext.w	a4,a5
ffffffc050406c06:	47a5                	li	a5,9
ffffffc050406c08:	00e7cb63          	blt	a5,a4,ffffffc050406c1e <mini_itoa+0xb6>
ffffffc050406c0c:	fdc42783          	lw	a5,-36(s0)
ffffffc050406c10:	0ff7f793          	andi	a5,a5,255
ffffffc050406c14:	0307879b          	addiw	a5,a5,48
ffffffc050406c18:	0ff7f713          	andi	a4,a5,255
ffffffc050406c1c:	a025                	j	ffffffc050406c44 <mini_itoa+0xdc>
ffffffc050406c1e:	fc042783          	lw	a5,-64(s0)
ffffffc050406c22:	2781                	sext.w	a5,a5
ffffffc050406c24:	c781                	beqz	a5,ffffffc050406c2c <mini_itoa+0xc4>
ffffffc050406c26:	04100793          	li	a5,65
ffffffc050406c2a:	a019                	j	ffffffc050406c30 <mini_itoa+0xc8>
ffffffc050406c2c:	06100793          	li	a5,97
ffffffc050406c30:	fdc42703          	lw	a4,-36(s0)
ffffffc050406c34:	0ff77713          	andi	a4,a4,255
ffffffc050406c38:	9fb9                	addw	a5,a5,a4
ffffffc050406c3a:	0ff7f793          	andi	a5,a5,255
ffffffc050406c3e:	37d9                	addiw	a5,a5,-10
ffffffc050406c40:	0ff7f713          	andi	a4,a5,255
ffffffc050406c44:	fe843783          	ld	a5,-24(s0)
ffffffc050406c48:	00178693          	addi	a3,a5,1
ffffffc050406c4c:	fed43423          	sd	a3,-24(s0)
ffffffc050406c50:	00e78023          	sb	a4,0(a5)
ffffffc050406c54:	fbc42783          	lw	a5,-68(s0)
ffffffc050406c58:	2781                	sext.w	a5,a5
ffffffc050406c5a:	cb91                	beqz	a5,ffffffc050406c6e <mini_itoa+0x106>
ffffffc050406c5c:	fc843703          	ld	a4,-56(s0)
ffffffc050406c60:	fc446783          	lwu	a5,-60(s0)
ffffffc050406c64:	02f757b3          	divu	a5,a4,a5
ffffffc050406c68:	fcf43423          	sd	a5,-56(s0)
ffffffc050406c6c:	a809                	j	ffffffc050406c7e <mini_itoa+0x116>
ffffffc050406c6e:	fc446783          	lwu	a5,-60(s0)
ffffffc050406c72:	fc843703          	ld	a4,-56(s0)
ffffffc050406c76:	02f747b3          	div	a5,a4,a5
ffffffc050406c7a:	fcf43423          	sd	a5,-56(s0)
ffffffc050406c7e:	fc843783          	ld	a5,-56(s0)
ffffffc050406c82:	f7b9                	bnez	a5,ffffffc050406bd0 <mini_itoa+0x68>
ffffffc050406c84:	fe843703          	ld	a4,-24(s0)
ffffffc050406c88:	fb043783          	ld	a5,-80(s0)
ffffffc050406c8c:	40f707b3          	sub	a5,a4,a5
ffffffc050406c90:	fef42023          	sw	a5,-32(s0)
ffffffc050406c94:	a005                	j	ffffffc050406cb4 <mini_itoa+0x14c>
ffffffc050406c96:	fe843783          	ld	a5,-24(s0)
ffffffc050406c9a:	00178713          	addi	a4,a5,1
ffffffc050406c9e:	fee43423          	sd	a4,-24(s0)
ffffffc050406ca2:	03000713          	li	a4,48
ffffffc050406ca6:	00e78023          	sb	a4,0(a5)
ffffffc050406caa:	fe042783          	lw	a5,-32(s0)
ffffffc050406cae:	2785                	addiw	a5,a5,1
ffffffc050406cb0:	fef42023          	sw	a5,-32(s0)
ffffffc050406cb4:	fe042703          	lw	a4,-32(s0)
ffffffc050406cb8:	fb842783          	lw	a5,-72(s0)
ffffffc050406cbc:	2701                	sext.w	a4,a4
ffffffc050406cbe:	2781                	sext.w	a5,a5
ffffffc050406cc0:	fcf76be3          	bltu	a4,a5,ffffffc050406c96 <mini_itoa+0x12e>
ffffffc050406cc4:	fe442783          	lw	a5,-28(s0)
ffffffc050406cc8:	2781                	sext.w	a5,a5
ffffffc050406cca:	cb99                	beqz	a5,ffffffc050406ce0 <mini_itoa+0x178>
ffffffc050406ccc:	fe843783          	ld	a5,-24(s0)
ffffffc050406cd0:	00178713          	addi	a4,a5,1
ffffffc050406cd4:	fee43423          	sd	a4,-24(s0)
ffffffc050406cd8:	02d00713          	li	a4,45
ffffffc050406cdc:	00e78023          	sb	a4,0(a5)
ffffffc050406ce0:	fe843783          	ld	a5,-24(s0)
ffffffc050406ce4:	00078023          	sb	zero,0(a5)
ffffffc050406ce8:	fe843703          	ld	a4,-24(s0)
ffffffc050406cec:	fb043783          	ld	a5,-80(s0)
ffffffc050406cf0:	40f707b3          	sub	a5,a4,a5
ffffffc050406cf4:	fcf42c23          	sw	a5,-40(s0)
ffffffc050406cf8:	fe042023          	sw	zero,-32(s0)
ffffffc050406cfc:	a885                	j	ffffffc050406d6c <mini_itoa+0x204>
ffffffc050406cfe:	fe046783          	lwu	a5,-32(s0)
ffffffc050406d02:	fb043703          	ld	a4,-80(s0)
ffffffc050406d06:	97ba                	add	a5,a5,a4
ffffffc050406d08:	0007c783          	lbu	a5,0(a5)
ffffffc050406d0c:	fcf40ba3          	sb	a5,-41(s0)
ffffffc050406d10:	fd842703          	lw	a4,-40(s0)
ffffffc050406d14:	fe042783          	lw	a5,-32(s0)
ffffffc050406d18:	40f707bb          	subw	a5,a4,a5
ffffffc050406d1c:	2781                	sext.w	a5,a5
ffffffc050406d1e:	37fd                	addiw	a5,a5,-1
ffffffc050406d20:	2781                	sext.w	a5,a5
ffffffc050406d22:	1782                	slli	a5,a5,0x20
ffffffc050406d24:	9381                	srli	a5,a5,0x20
ffffffc050406d26:	fb043703          	ld	a4,-80(s0)
ffffffc050406d2a:	973e                	add	a4,a4,a5
ffffffc050406d2c:	fe046783          	lwu	a5,-32(s0)
ffffffc050406d30:	fb043683          	ld	a3,-80(s0)
ffffffc050406d34:	97b6                	add	a5,a5,a3
ffffffc050406d36:	00074703          	lbu	a4,0(a4)
ffffffc050406d3a:	00e78023          	sb	a4,0(a5)
ffffffc050406d3e:	fd842703          	lw	a4,-40(s0)
ffffffc050406d42:	fe042783          	lw	a5,-32(s0)
ffffffc050406d46:	40f707bb          	subw	a5,a4,a5
ffffffc050406d4a:	2781                	sext.w	a5,a5
ffffffc050406d4c:	37fd                	addiw	a5,a5,-1
ffffffc050406d4e:	2781                	sext.w	a5,a5
ffffffc050406d50:	1782                	slli	a5,a5,0x20
ffffffc050406d52:	9381                	srli	a5,a5,0x20
ffffffc050406d54:	fb043703          	ld	a4,-80(s0)
ffffffc050406d58:	97ba                	add	a5,a5,a4
ffffffc050406d5a:	fd744703          	lbu	a4,-41(s0)
ffffffc050406d5e:	00e78023          	sb	a4,0(a5)
ffffffc050406d62:	fe042783          	lw	a5,-32(s0)
ffffffc050406d66:	2785                	addiw	a5,a5,1
ffffffc050406d68:	fef42023          	sw	a5,-32(s0)
ffffffc050406d6c:	fd842783          	lw	a5,-40(s0)
ffffffc050406d70:	0017d79b          	srliw	a5,a5,0x1
ffffffc050406d74:	0007871b          	sext.w	a4,a5
ffffffc050406d78:	fe042783          	lw	a5,-32(s0)
ffffffc050406d7c:	2781                	sext.w	a5,a5
ffffffc050406d7e:	f8e7e0e3          	bltu	a5,a4,ffffffc050406cfe <mini_itoa+0x196>
ffffffc050406d82:	fd842783          	lw	a5,-40(s0)
ffffffc050406d86:	853e                	mv	a0,a5
ffffffc050406d88:	6426                	ld	s0,72(sp)
ffffffc050406d8a:	6161                	addi	sp,sp,80
ffffffc050406d8c:	8082                	ret

ffffffc050406d8e <_putc>:
ffffffc050406d8e:	1101                	addi	sp,sp,-32
ffffffc050406d90:	ec22                	sd	s0,24(sp)
ffffffc050406d92:	1000                	addi	s0,sp,32
ffffffc050406d94:	87aa                	mv	a5,a0
ffffffc050406d96:	feb43023          	sd	a1,-32(s0)
ffffffc050406d9a:	fef42623          	sw	a5,-20(s0)
ffffffc050406d9e:	fe043783          	ld	a5,-32(s0)
ffffffc050406da2:	6798                	ld	a4,8(a5)
ffffffc050406da4:	fe043783          	ld	a5,-32(s0)
ffffffc050406da8:	639c                	ld	a5,0(a5)
ffffffc050406daa:	40f707b3          	sub	a5,a4,a5
ffffffc050406dae:	2781                	sext.w	a5,a5
ffffffc050406db0:	2785                	addiw	a5,a5,1
ffffffc050406db2:	0007871b          	sext.w	a4,a5
ffffffc050406db6:	fe043783          	ld	a5,-32(s0)
ffffffc050406dba:	4b9c                	lw	a5,16(a5)
ffffffc050406dbc:	00f76463          	bltu	a4,a5,ffffffc050406dc4 <_putc+0x36>
ffffffc050406dc0:	4781                	li	a5,0
ffffffc050406dc2:	a02d                	j	ffffffc050406dec <_putc+0x5e>
ffffffc050406dc4:	fe043783          	ld	a5,-32(s0)
ffffffc050406dc8:	679c                	ld	a5,8(a5)
ffffffc050406dca:	00178693          	addi	a3,a5,1
ffffffc050406dce:	fe043703          	ld	a4,-32(s0)
ffffffc050406dd2:	e714                	sd	a3,8(a4)
ffffffc050406dd4:	fec42703          	lw	a4,-20(s0)
ffffffc050406dd8:	0ff77713          	andi	a4,a4,255
ffffffc050406ddc:	00e78023          	sb	a4,0(a5)
ffffffc050406de0:	fe043783          	ld	a5,-32(s0)
ffffffc050406de4:	679c                	ld	a5,8(a5)
ffffffc050406de6:	00078023          	sb	zero,0(a5)
ffffffc050406dea:	4785                	li	a5,1
ffffffc050406dec:	853e                	mv	a0,a5
ffffffc050406dee:	6462                	ld	s0,24(sp)
ffffffc050406df0:	6105                	addi	sp,sp,32
ffffffc050406df2:	8082                	ret

ffffffc050406df4 <_puts>:
ffffffc050406df4:	7139                	addi	sp,sp,-64
ffffffc050406df6:	fc22                	sd	s0,56(sp)
ffffffc050406df8:	0080                	addi	s0,sp,64
ffffffc050406dfa:	fca43c23          	sd	a0,-40(s0)
ffffffc050406dfe:	87ae                	mv	a5,a1
ffffffc050406e00:	fcc43423          	sd	a2,-56(s0)
ffffffc050406e04:	fcf42a23          	sw	a5,-44(s0)
ffffffc050406e08:	fc843783          	ld	a5,-56(s0)
ffffffc050406e0c:	4b9c                	lw	a5,16(a5)
ffffffc050406e0e:	02079713          	slli	a4,a5,0x20
ffffffc050406e12:	9301                	srli	a4,a4,0x20
ffffffc050406e14:	fc843783          	ld	a5,-56(s0)
ffffffc050406e18:	6794                	ld	a3,8(a5)
ffffffc050406e1a:	fc843783          	ld	a5,-56(s0)
ffffffc050406e1e:	639c                	ld	a5,0(a5)
ffffffc050406e20:	40f687b3          	sub	a5,a3,a5
ffffffc050406e24:	8f1d                	sub	a4,a4,a5
ffffffc050406e26:	fd446783          	lwu	a5,-44(s0)
ffffffc050406e2a:	02e7c463          	blt	a5,a4,ffffffc050406e52 <_puts+0x5e>
ffffffc050406e2e:	fc843783          	ld	a5,-56(s0)
ffffffc050406e32:	4b98                	lw	a4,16(a5)
ffffffc050406e34:	fc843783          	ld	a5,-56(s0)
ffffffc050406e38:	6794                	ld	a3,8(a5)
ffffffc050406e3a:	fc843783          	ld	a5,-56(s0)
ffffffc050406e3e:	639c                	ld	a5,0(a5)
ffffffc050406e40:	40f687b3          	sub	a5,a3,a5
ffffffc050406e44:	2781                	sext.w	a5,a5
ffffffc050406e46:	40f707bb          	subw	a5,a4,a5
ffffffc050406e4a:	2781                	sext.w	a5,a5
ffffffc050406e4c:	37fd                	addiw	a5,a5,-1
ffffffc050406e4e:	fcf42a23          	sw	a5,-44(s0)
ffffffc050406e52:	fe042623          	sw	zero,-20(s0)
ffffffc050406e56:	a03d                	j	ffffffc050406e84 <_puts+0x90>
ffffffc050406e58:	fec46783          	lwu	a5,-20(s0)
ffffffc050406e5c:	fd843703          	ld	a4,-40(s0)
ffffffc050406e60:	973e                	add	a4,a4,a5
ffffffc050406e62:	fc843783          	ld	a5,-56(s0)
ffffffc050406e66:	679c                	ld	a5,8(a5)
ffffffc050406e68:	00178613          	addi	a2,a5,1
ffffffc050406e6c:	fc843683          	ld	a3,-56(s0)
ffffffc050406e70:	e690                	sd	a2,8(a3)
ffffffc050406e72:	00074703          	lbu	a4,0(a4)
ffffffc050406e76:	00e78023          	sb	a4,0(a5)
ffffffc050406e7a:	fec42783          	lw	a5,-20(s0)
ffffffc050406e7e:	2785                	addiw	a5,a5,1
ffffffc050406e80:	fef42623          	sw	a5,-20(s0)
ffffffc050406e84:	fec42703          	lw	a4,-20(s0)
ffffffc050406e88:	fd442783          	lw	a5,-44(s0)
ffffffc050406e8c:	2701                	sext.w	a4,a4
ffffffc050406e8e:	2781                	sext.w	a5,a5
ffffffc050406e90:	fcf764e3          	bltu	a4,a5,ffffffc050406e58 <_puts+0x64>
ffffffc050406e94:	fc843783          	ld	a5,-56(s0)
ffffffc050406e98:	679c                	ld	a5,8(a5)
ffffffc050406e9a:	00078023          	sb	zero,0(a5)
ffffffc050406e9e:	fd442783          	lw	a5,-44(s0)
ffffffc050406ea2:	853e                	mv	a0,a5
ffffffc050406ea4:	7462                	ld	s0,56(sp)
ffffffc050406ea6:	6121                	addi	sp,sp,64
ffffffc050406ea8:	8082                	ret

ffffffc050406eaa <mini_vsnprintf>:
ffffffc050406eaa:	7119                	addi	sp,sp,-128
ffffffc050406eac:	fc86                	sd	ra,120(sp)
ffffffc050406eae:	f8a2                	sd	s0,112(sp)
ffffffc050406eb0:	0100                	addi	s0,sp,128
ffffffc050406eb2:	f8a43c23          	sd	a0,-104(s0)
ffffffc050406eb6:	87ae                	mv	a5,a1
ffffffc050406eb8:	f8c43423          	sd	a2,-120(s0)
ffffffc050406ebc:	f8d43023          	sd	a3,-128(s0)
ffffffc050406ec0:	f8f42a23          	sw	a5,-108(s0)
ffffffc050406ec4:	f9843783          	ld	a5,-104(s0)
ffffffc050406ec8:	fcf43023          	sd	a5,-64(s0)
ffffffc050406ecc:	f9843783          	ld	a5,-104(s0)
ffffffc050406ed0:	fcf43423          	sd	a5,-56(s0)
ffffffc050406ed4:	f9442783          	lw	a5,-108(s0)
ffffffc050406ed8:	fcf42823          	sw	a5,-48(s0)
ffffffc050406edc:	a4f9                	j	ffffffc0504071aa <mini_vsnprintf+0x300>
ffffffc050406ede:	fc843703          	ld	a4,-56(s0)
ffffffc050406ee2:	fc043783          	ld	a5,-64(s0)
ffffffc050406ee6:	40f707b3          	sub	a5,a4,a5
ffffffc050406eea:	2781                	sext.w	a5,a5
ffffffc050406eec:	2785                	addiw	a5,a5,1
ffffffc050406eee:	0007871b          	sext.w	a4,a5
ffffffc050406ef2:	fd042783          	lw	a5,-48(s0)
ffffffc050406ef6:	2cf77b63          	bgeu	a4,a5,ffffffc0504071cc <mini_vsnprintf+0x322>
ffffffc050406efa:	fef44783          	lbu	a5,-17(s0)
ffffffc050406efe:	0ff7f713          	andi	a4,a5,255
ffffffc050406f02:	02500793          	li	a5,37
ffffffc050406f06:	00f70c63          	beq	a4,a5,ffffffc050406f1e <mini_vsnprintf+0x74>
ffffffc050406f0a:	fef44783          	lbu	a5,-17(s0)
ffffffc050406f0e:	2781                	sext.w	a5,a5
ffffffc050406f10:	fc040713          	addi	a4,s0,-64
ffffffc050406f14:	85ba                	mv	a1,a4
ffffffc050406f16:	853e                	mv	a0,a5
ffffffc050406f18:	e77ff0ef          	jal	ra,ffffffc050406d8e <_putc>
ffffffc050406f1c:	a479                	j	ffffffc0504071aa <mini_vsnprintf+0x300>
ffffffc050406f1e:	fe040723          	sb	zero,-18(s0)
ffffffc050406f22:	fe042423          	sw	zero,-24(s0)
ffffffc050406f26:	f8843783          	ld	a5,-120(s0)
ffffffc050406f2a:	00178713          	addi	a4,a5,1
ffffffc050406f2e:	f8e43423          	sd	a4,-120(s0)
ffffffc050406f32:	0007c783          	lbu	a5,0(a5)
ffffffc050406f36:	fef407a3          	sb	a5,-17(s0)
ffffffc050406f3a:	fef44783          	lbu	a5,-17(s0)
ffffffc050406f3e:	0ff7f713          	andi	a4,a5,255
ffffffc050406f42:	03000793          	li	a5,48
ffffffc050406f46:	06f71b63          	bne	a4,a5,ffffffc050406fbc <mini_vsnprintf+0x112>
ffffffc050406f4a:	a891                	j	ffffffc050406f9e <mini_vsnprintf+0xf4>
ffffffc050406f4c:	fef44783          	lbu	a5,-17(s0)
ffffffc050406f50:	0ff7f793          	andi	a5,a5,255
ffffffc050406f54:	26078e63          	beqz	a5,ffffffc0504071d0 <mini_vsnprintf+0x326>
ffffffc050406f58:	fef44783          	lbu	a5,-17(s0)
ffffffc050406f5c:	0ff7f713          	andi	a4,a5,255
ffffffc050406f60:	02f00793          	li	a5,47
ffffffc050406f64:	04e7fc63          	bgeu	a5,a4,ffffffc050406fbc <mini_vsnprintf+0x112>
ffffffc050406f68:	fef44783          	lbu	a5,-17(s0)
ffffffc050406f6c:	0ff7f713          	andi	a4,a5,255
ffffffc050406f70:	03900793          	li	a5,57
ffffffc050406f74:	04e7e463          	bltu	a5,a4,ffffffc050406fbc <mini_vsnprintf+0x112>
ffffffc050406f78:	fee44703          	lbu	a4,-18(s0)
ffffffc050406f7c:	87ba                	mv	a5,a4
ffffffc050406f7e:	0027979b          	slliw	a5,a5,0x2
ffffffc050406f82:	9fb9                	addw	a5,a5,a4
ffffffc050406f84:	0017979b          	slliw	a5,a5,0x1
ffffffc050406f88:	0ff7f793          	andi	a5,a5,255
ffffffc050406f8c:	fef44703          	lbu	a4,-17(s0)
ffffffc050406f90:	9fb9                	addw	a5,a5,a4
ffffffc050406f92:	0ff7f793          	andi	a5,a5,255
ffffffc050406f96:	fd07879b          	addiw	a5,a5,-48
ffffffc050406f9a:	fef40723          	sb	a5,-18(s0)
ffffffc050406f9e:	f8843783          	ld	a5,-120(s0)
ffffffc050406fa2:	00178713          	addi	a4,a5,1
ffffffc050406fa6:	f8e43423          	sd	a4,-120(s0)
ffffffc050406faa:	0007c783          	lbu	a5,0(a5)
ffffffc050406fae:	fef407a3          	sb	a5,-17(s0)
ffffffc050406fb2:	fef44783          	lbu	a5,-17(s0)
ffffffc050406fb6:	0ff7f793          	andi	a5,a5,255
ffffffc050406fba:	fbc9                	bnez	a5,ffffffc050406f4c <mini_vsnprintf+0xa2>
ffffffc050406fbc:	fef44783          	lbu	a5,-17(s0)
ffffffc050406fc0:	0ff7f713          	andi	a4,a5,255
ffffffc050406fc4:	06c00793          	li	a5,108
ffffffc050406fc8:	00f71f63          	bne	a4,a5,ffffffc050406fe6 <mini_vsnprintf+0x13c>
ffffffc050406fcc:	4785                	li	a5,1
ffffffc050406fce:	fef42423          	sw	a5,-24(s0)
ffffffc050406fd2:	f8843783          	ld	a5,-120(s0)
ffffffc050406fd6:	00178713          	addi	a4,a5,1
ffffffc050406fda:	f8e43423          	sd	a4,-120(s0)
ffffffc050406fde:	0007c783          	lbu	a5,0(a5)
ffffffc050406fe2:	fef407a3          	sb	a5,-17(s0)
ffffffc050406fe6:	fef44783          	lbu	a5,-17(s0)
ffffffc050406fea:	2781                	sext.w	a5,a5
ffffffc050406fec:	1e078463          	beqz	a5,ffffffc0504071d4 <mini_vsnprintf+0x32a>
ffffffc050406ff0:	873e                	mv	a4,a5
ffffffc050406ff2:	1a074263          	bltz	a4,ffffffc050407196 <mini_vsnprintf+0x2ec>
ffffffc050406ff6:	86be                	mv	a3,a5
ffffffc050406ff8:	07800713          	li	a4,120
ffffffc050406ffc:	18d74d63          	blt	a4,a3,ffffffc050407196 <mini_vsnprintf+0x2ec>
ffffffc050407000:	86be                	mv	a3,a5
ffffffc050407002:	05800713          	li	a4,88
ffffffc050407006:	18e6c863          	blt	a3,a4,ffffffc050407196 <mini_vsnprintf+0x2ec>
ffffffc05040700a:	fa87869b          	addiw	a3,a5,-88
ffffffc05040700e:	0006871b          	sext.w	a4,a3
ffffffc050407012:	02000793          	li	a5,32
ffffffc050407016:	18e7e063          	bltu	a5,a4,ffffffc050407196 <mini_vsnprintf+0x2ec>
ffffffc05040701a:	02069793          	slli	a5,a3,0x20
ffffffc05040701e:	9381                	srli	a5,a5,0x20
ffffffc050407020:	00279713          	slli	a4,a5,0x2
ffffffc050407024:	00001797          	auipc	a5,0x1
ffffffc050407028:	bac78793          	addi	a5,a5,-1108 # ffffffc050407bd0 <__FUNCTION__.1825+0x220>
ffffffc05040702c:	97ba                	add	a5,a5,a4
ffffffc05040702e:	439c                	lw	a5,0(a5)
ffffffc050407030:	0007871b          	sext.w	a4,a5
ffffffc050407034:	00001797          	auipc	a5,0x1
ffffffc050407038:	b9c78793          	addi	a5,a5,-1124 # ffffffc050407bd0 <__FUNCTION__.1825+0x220>
ffffffc05040703c:	97ba                	add	a5,a5,a4
ffffffc05040703e:	8782                	jr	a5
ffffffc050407040:	4785                	li	a5,1
ffffffc050407042:	fef42423          	sw	a5,-24(s0)
ffffffc050407046:	a295                	j	ffffffc0504071aa <mini_vsnprintf+0x300>
ffffffc050407048:	fe842783          	lw	a5,-24(s0)
ffffffc05040704c:	2781                	sext.w	a5,a5
ffffffc05040704e:	ef81                	bnez	a5,ffffffc050407066 <mini_vsnprintf+0x1bc>
ffffffc050407050:	f8043783          	ld	a5,-128(s0)
ffffffc050407054:	00878713          	addi	a4,a5,8
ffffffc050407058:	f8e43023          	sd	a4,-128(s0)
ffffffc05040705c:	439c                	lw	a5,0(a5)
ffffffc05040705e:	02079513          	slli	a0,a5,0x20
ffffffc050407062:	9101                	srli	a0,a0,0x20
ffffffc050407064:	a809                	j	ffffffc050407076 <mini_vsnprintf+0x1cc>
ffffffc050407066:	f8043783          	ld	a5,-128(s0)
ffffffc05040706a:	00878713          	addi	a4,a5,8
ffffffc05040706e:	f8e43023          	sd	a4,-128(s0)
ffffffc050407072:	639c                	ld	a5,0(a5)
ffffffc050407074:	853e                	mv	a0,a5
ffffffc050407076:	fef44783          	lbu	a5,-17(s0)
ffffffc05040707a:	0007871b          	sext.w	a4,a5
ffffffc05040707e:	07500793          	li	a5,117
ffffffc050407082:	40f707b3          	sub	a5,a4,a5
ffffffc050407086:	0017b793          	seqz	a5,a5
ffffffc05040708a:	0ff7f793          	andi	a5,a5,255
ffffffc05040708e:	0007869b          	sext.w	a3,a5
ffffffc050407092:	fee44783          	lbu	a5,-18(s0)
ffffffc050407096:	2781                	sext.w	a5,a5
ffffffc050407098:	fa840713          	addi	a4,s0,-88
ffffffc05040709c:	4601                	li	a2,0
ffffffc05040709e:	45a9                	li	a1,10
ffffffc0504070a0:	ac9ff0ef          	jal	ra,ffffffc050406b68 <mini_itoa>
ffffffc0504070a4:	87aa                	mv	a5,a0
ffffffc0504070a6:	fcf42e23          	sw	a5,-36(s0)
ffffffc0504070aa:	fc040693          	addi	a3,s0,-64
ffffffc0504070ae:	fdc42703          	lw	a4,-36(s0)
ffffffc0504070b2:	fa840793          	addi	a5,s0,-88
ffffffc0504070b6:	8636                	mv	a2,a3
ffffffc0504070b8:	85ba                	mv	a1,a4
ffffffc0504070ba:	853e                	mv	a0,a5
ffffffc0504070bc:	d39ff0ef          	jal	ra,ffffffc050406df4 <_puts>
ffffffc0504070c0:	fe042423          	sw	zero,-24(s0)
ffffffc0504070c4:	a0dd                	j	ffffffc0504071aa <mini_vsnprintf+0x300>
ffffffc0504070c6:	fe842783          	lw	a5,-24(s0)
ffffffc0504070ca:	2781                	sext.w	a5,a5
ffffffc0504070cc:	ef81                	bnez	a5,ffffffc0504070e4 <mini_vsnprintf+0x23a>
ffffffc0504070ce:	f8043783          	ld	a5,-128(s0)
ffffffc0504070d2:	00878713          	addi	a4,a5,8
ffffffc0504070d6:	f8e43023          	sd	a4,-128(s0)
ffffffc0504070da:	439c                	lw	a5,0(a5)
ffffffc0504070dc:	02079513          	slli	a0,a5,0x20
ffffffc0504070e0:	9101                	srli	a0,a0,0x20
ffffffc0504070e2:	a809                	j	ffffffc0504070f4 <mini_vsnprintf+0x24a>
ffffffc0504070e4:	f8043783          	ld	a5,-128(s0)
ffffffc0504070e8:	00878713          	addi	a4,a5,8
ffffffc0504070ec:	f8e43023          	sd	a4,-128(s0)
ffffffc0504070f0:	639c                	ld	a5,0(a5)
ffffffc0504070f2:	853e                	mv	a0,a5
ffffffc0504070f4:	fef44783          	lbu	a5,-17(s0)
ffffffc0504070f8:	0007871b          	sext.w	a4,a5
ffffffc0504070fc:	05800793          	li	a5,88
ffffffc050407100:	40f707b3          	sub	a5,a4,a5
ffffffc050407104:	0017b793          	seqz	a5,a5
ffffffc050407108:	0ff7f793          	andi	a5,a5,255
ffffffc05040710c:	0007861b          	sext.w	a2,a5
ffffffc050407110:	fee44783          	lbu	a5,-18(s0)
ffffffc050407114:	2781                	sext.w	a5,a5
ffffffc050407116:	fa840713          	addi	a4,s0,-88
ffffffc05040711a:	4685                	li	a3,1
ffffffc05040711c:	45c1                	li	a1,16
ffffffc05040711e:	a4bff0ef          	jal	ra,ffffffc050406b68 <mini_itoa>
ffffffc050407122:	87aa                	mv	a5,a0
ffffffc050407124:	fcf42e23          	sw	a5,-36(s0)
ffffffc050407128:	fc040693          	addi	a3,s0,-64
ffffffc05040712c:	fdc42703          	lw	a4,-36(s0)
ffffffc050407130:	fa840793          	addi	a5,s0,-88
ffffffc050407134:	8636                	mv	a2,a3
ffffffc050407136:	85ba                	mv	a1,a4
ffffffc050407138:	853e                	mv	a0,a5
ffffffc05040713a:	cbbff0ef          	jal	ra,ffffffc050406df4 <_puts>
ffffffc05040713e:	fe042423          	sw	zero,-24(s0)
ffffffc050407142:	a0a5                	j	ffffffc0504071aa <mini_vsnprintf+0x300>
ffffffc050407144:	f8043783          	ld	a5,-128(s0)
ffffffc050407148:	00878713          	addi	a4,a5,8
ffffffc05040714c:	f8e43023          	sd	a4,-128(s0)
ffffffc050407150:	439c                	lw	a5,0(a5)
ffffffc050407152:	0ff7f793          	andi	a5,a5,255
ffffffc050407156:	2781                	sext.w	a5,a5
ffffffc050407158:	fc040713          	addi	a4,s0,-64
ffffffc05040715c:	85ba                	mv	a1,a4
ffffffc05040715e:	853e                	mv	a0,a5
ffffffc050407160:	c2fff0ef          	jal	ra,ffffffc050406d8e <_putc>
ffffffc050407164:	a099                	j	ffffffc0504071aa <mini_vsnprintf+0x300>
ffffffc050407166:	f8043783          	ld	a5,-128(s0)
ffffffc05040716a:	00878713          	addi	a4,a5,8
ffffffc05040716e:	f8e43023          	sd	a4,-128(s0)
ffffffc050407172:	639c                	ld	a5,0(a5)
ffffffc050407174:	fef43023          	sd	a5,-32(s0)
ffffffc050407178:	fe043503          	ld	a0,-32(s0)
ffffffc05040717c:	9b7ff0ef          	jal	ra,ffffffc050406b32 <mini_strlen>
ffffffc050407180:	87aa                	mv	a5,a0
ffffffc050407182:	2781                	sext.w	a5,a5
ffffffc050407184:	fc040713          	addi	a4,s0,-64
ffffffc050407188:	863a                	mv	a2,a4
ffffffc05040718a:	85be                	mv	a1,a5
ffffffc05040718c:	fe043503          	ld	a0,-32(s0)
ffffffc050407190:	c65ff0ef          	jal	ra,ffffffc050406df4 <_puts>
ffffffc050407194:	a819                	j	ffffffc0504071aa <mini_vsnprintf+0x300>
ffffffc050407196:	fef44783          	lbu	a5,-17(s0)
ffffffc05040719a:	2781                	sext.w	a5,a5
ffffffc05040719c:	fc040713          	addi	a4,s0,-64
ffffffc0504071a0:	85ba                	mv	a1,a4
ffffffc0504071a2:	853e                	mv	a0,a5
ffffffc0504071a4:	bebff0ef          	jal	ra,ffffffc050406d8e <_putc>
ffffffc0504071a8:	0001                	nop
ffffffc0504071aa:	f8843783          	ld	a5,-120(s0)
ffffffc0504071ae:	00178713          	addi	a4,a5,1
ffffffc0504071b2:	f8e43423          	sd	a4,-120(s0)
ffffffc0504071b6:	0007c783          	lbu	a5,0(a5)
ffffffc0504071ba:	fef407a3          	sb	a5,-17(s0)
ffffffc0504071be:	fef44783          	lbu	a5,-17(s0)
ffffffc0504071c2:	0ff7f793          	andi	a5,a5,255
ffffffc0504071c6:	d0079ce3          	bnez	a5,ffffffc050406ede <mini_vsnprintf+0x34>
ffffffc0504071ca:	a031                	j	ffffffc0504071d6 <mini_vsnprintf+0x32c>
ffffffc0504071cc:	0001                	nop
ffffffc0504071ce:	a021                	j	ffffffc0504071d6 <mini_vsnprintf+0x32c>
ffffffc0504071d0:	0001                	nop
ffffffc0504071d2:	a011                	j	ffffffc0504071d6 <mini_vsnprintf+0x32c>
ffffffc0504071d4:	0001                	nop
ffffffc0504071d6:	fc843703          	ld	a4,-56(s0)
ffffffc0504071da:	fc043783          	ld	a5,-64(s0)
ffffffc0504071de:	40f707b3          	sub	a5,a4,a5
ffffffc0504071e2:	2781                	sext.w	a5,a5
ffffffc0504071e4:	853e                	mv	a0,a5
ffffffc0504071e6:	70e6                	ld	ra,120(sp)
ffffffc0504071e8:	7446                	ld	s0,112(sp)
ffffffc0504071ea:	6109                	addi	sp,sp,128
ffffffc0504071ec:	8082                	ret

ffffffc0504071ee <_vprint>:
ffffffc0504071ee:	7129                	addi	sp,sp,-320
ffffffc0504071f0:	fe06                	sd	ra,312(sp)
ffffffc0504071f2:	fa22                	sd	s0,304(sp)
ffffffc0504071f4:	0280                	addi	s0,sp,320
ffffffc0504071f6:	eca43c23          	sd	a0,-296(s0)
ffffffc0504071fa:	ecb43823          	sd	a1,-304(s0)
ffffffc0504071fe:	ecc43423          	sd	a2,-312(s0)
ffffffc050407202:	87b6                	mv	a5,a3
ffffffc050407204:	ecf42223          	sw	a5,-316(s0)
ffffffc050407208:	ed043783          	ld	a5,-304(s0)
ffffffc05040720c:	fef43023          	sd	a5,-32(s0)
ffffffc050407210:	fe043703          	ld	a4,-32(s0)
ffffffc050407214:	ee040793          	addi	a5,s0,-288
ffffffc050407218:	86ba                	mv	a3,a4
ffffffc05040721a:	ed843603          	ld	a2,-296(s0)
ffffffc05040721e:	10000593          	li	a1,256
ffffffc050407222:	853e                	mv	a0,a5
ffffffc050407224:	c87ff0ef          	jal	ra,ffffffc050406eaa <mini_vsnprintf>
ffffffc050407228:	87aa                	mv	a5,a0
ffffffc05040722a:	fef42423          	sw	a5,-24(s0)
ffffffc05040722e:	fe842783          	lw	a5,-24(s0)
ffffffc050407232:	ff040713          	addi	a4,s0,-16
ffffffc050407236:	97ba                	add	a5,a5,a4
ffffffc050407238:	ee078823          	sb	zero,-272(a5)
ffffffc05040723c:	ee040793          	addi	a5,s0,-288
ffffffc050407240:	ec843703          	ld	a4,-312(s0)
ffffffc050407244:	853e                	mv	a0,a5
ffffffc050407246:	9702                	jalr	a4
ffffffc050407248:	ec442783          	lw	a5,-316(s0)
ffffffc05040724c:	2781                	sext.w	a5,a5
ffffffc05040724e:	e3f9                	bnez	a5,ffffffc050407314 <_vprint+0x126>
ffffffc050407250:	fe042623          	sw	zero,-20(s0)
ffffffc050407254:	a845                	j	ffffffc050407304 <_vprint+0x116>
ffffffc050407256:	fec42783          	lw	a5,-20(s0)
ffffffc05040725a:	ff040713          	addi	a4,s0,-16
ffffffc05040725e:	97ba                	add	a5,a5,a4
ffffffc050407260:	ef07c783          	lbu	a5,-272(a5)
ffffffc050407264:	873e                	mv	a4,a5
ffffffc050407266:	47a9                	li	a5,10
ffffffc050407268:	02f71563          	bne	a4,a5,ffffffc050407292 <_vprint+0xa4>
ffffffc05040726c:	0004b797          	auipc	a5,0x4b
ffffffc050407270:	da478793          	addi	a5,a5,-604 # ffffffc050452010 <current_running>
ffffffc050407274:	639c                	ld	a5,0(a5)
ffffffc050407276:	639c                	ld	a5,0(a5)
ffffffc050407278:	4705                	li	a4,1
ffffffc05040727a:	df98                	sw	a4,56(a5)
ffffffc05040727c:	0004b797          	auipc	a5,0x4b
ffffffc050407280:	d9478793          	addi	a5,a5,-620 # ffffffc050452010 <current_running>
ffffffc050407284:	639c                	ld	a5,0(a5)
ffffffc050407286:	639c                	ld	a5,0(a5)
ffffffc050407288:	5fd8                	lw	a4,60(a5)
ffffffc05040728a:	2705                	addiw	a4,a4,1
ffffffc05040728c:	2701                	sext.w	a4,a4
ffffffc05040728e:	dfd8                	sw	a4,60(a5)
ffffffc050407290:	a0ad                	j	ffffffc0504072fa <_vprint+0x10c>
ffffffc050407292:	fec42783          	lw	a5,-20(s0)
ffffffc050407296:	ff040713          	addi	a4,s0,-16
ffffffc05040729a:	97ba                	add	a5,a5,a4
ffffffc05040729c:	ef07c783          	lbu	a5,-272(a5)
ffffffc0504072a0:	873e                	mv	a4,a5
ffffffc0504072a2:	47b5                	li	a5,13
ffffffc0504072a4:	00f71b63          	bne	a4,a5,ffffffc0504072ba <_vprint+0xcc>
ffffffc0504072a8:	0004b797          	auipc	a5,0x4b
ffffffc0504072ac:	d6878793          	addi	a5,a5,-664 # ffffffc050452010 <current_running>
ffffffc0504072b0:	639c                	ld	a5,0(a5)
ffffffc0504072b2:	639c                	ld	a5,0(a5)
ffffffc0504072b4:	4705                	li	a4,1
ffffffc0504072b6:	df98                	sw	a4,56(a5)
ffffffc0504072b8:	a089                	j	ffffffc0504072fa <_vprint+0x10c>
ffffffc0504072ba:	fec42783          	lw	a5,-20(s0)
ffffffc0504072be:	ff040713          	addi	a4,s0,-16
ffffffc0504072c2:	97ba                	add	a5,a5,a4
ffffffc0504072c4:	ef07c783          	lbu	a5,-272(a5)
ffffffc0504072c8:	873e                	mv	a4,a5
ffffffc0504072ca:	47a5                	li	a5,9
ffffffc0504072cc:	00f71d63          	bne	a4,a5,ffffffc0504072e6 <_vprint+0xf8>
ffffffc0504072d0:	0004b797          	auipc	a5,0x4b
ffffffc0504072d4:	d4078793          	addi	a5,a5,-704 # ffffffc050452010 <current_running>
ffffffc0504072d8:	639c                	ld	a5,0(a5)
ffffffc0504072da:	639c                	ld	a5,0(a5)
ffffffc0504072dc:	5f98                	lw	a4,56(a5)
ffffffc0504072de:	2711                	addiw	a4,a4,4
ffffffc0504072e0:	2701                	sext.w	a4,a4
ffffffc0504072e2:	df98                	sw	a4,56(a5)
ffffffc0504072e4:	a819                	j	ffffffc0504072fa <_vprint+0x10c>
ffffffc0504072e6:	0004b797          	auipc	a5,0x4b
ffffffc0504072ea:	d2a78793          	addi	a5,a5,-726 # ffffffc050452010 <current_running>
ffffffc0504072ee:	639c                	ld	a5,0(a5)
ffffffc0504072f0:	639c                	ld	a5,0(a5)
ffffffc0504072f2:	5f98                	lw	a4,56(a5)
ffffffc0504072f4:	2705                	addiw	a4,a4,1
ffffffc0504072f6:	2701                	sext.w	a4,a4
ffffffc0504072f8:	df98                	sw	a4,56(a5)
ffffffc0504072fa:	fec42783          	lw	a5,-20(s0)
ffffffc0504072fe:	2785                	addiw	a5,a5,1
ffffffc050407300:	fef42623          	sw	a5,-20(s0)
ffffffc050407304:	fec42703          	lw	a4,-20(s0)
ffffffc050407308:	fe842783          	lw	a5,-24(s0)
ffffffc05040730c:	2701                	sext.w	a4,a4
ffffffc05040730e:	2781                	sext.w	a5,a5
ffffffc050407310:	f4f743e3          	blt	a4,a5,ffffffc050407256 <_vprint+0x68>
ffffffc050407314:	fe842783          	lw	a5,-24(s0)
ffffffc050407318:	853e                	mv	a0,a5
ffffffc05040731a:	70f2                	ld	ra,312(sp)
ffffffc05040731c:	7452                	ld	s0,304(sp)
ffffffc05040731e:	6131                	addi	sp,sp,320
ffffffc050407320:	8082                	ret

ffffffc050407322 <vprintk>:
ffffffc050407322:	1101                	addi	sp,sp,-32
ffffffc050407324:	ec06                	sd	ra,24(sp)
ffffffc050407326:	e822                	sd	s0,16(sp)
ffffffc050407328:	1000                	addi	s0,sp,32
ffffffc05040732a:	fea43423          	sd	a0,-24(s0)
ffffffc05040732e:	feb43023          	sd	a1,-32(s0)
ffffffc050407332:	4681                	li	a3,0
ffffffc050407334:	ffff9617          	auipc	a2,0xffff9
ffffffc050407338:	fd260613          	addi	a2,a2,-46 # ffffffc050400306 <port_write>
ffffffc05040733c:	fe043583          	ld	a1,-32(s0)
ffffffc050407340:	fe843503          	ld	a0,-24(s0)
ffffffc050407344:	eabff0ef          	jal	ra,ffffffc0504071ee <_vprint>
ffffffc050407348:	87aa                	mv	a5,a0
ffffffc05040734a:	853e                	mv	a0,a5
ffffffc05040734c:	60e2                	ld	ra,24(sp)
ffffffc05040734e:	6442                	ld	s0,16(sp)
ffffffc050407350:	6105                	addi	sp,sp,32
ffffffc050407352:	8082                	ret

ffffffc050407354 <printk>:
ffffffc050407354:	7159                	addi	sp,sp,-112
ffffffc050407356:	f406                	sd	ra,40(sp)
ffffffc050407358:	f022                	sd	s0,32(sp)
ffffffc05040735a:	1800                	addi	s0,sp,48
ffffffc05040735c:	fca43c23          	sd	a0,-40(s0)
ffffffc050407360:	e40c                	sd	a1,8(s0)
ffffffc050407362:	e810                	sd	a2,16(s0)
ffffffc050407364:	ec14                	sd	a3,24(s0)
ffffffc050407366:	f018                	sd	a4,32(s0)
ffffffc050407368:	f41c                	sd	a5,40(s0)
ffffffc05040736a:	03043823          	sd	a6,48(s0)
ffffffc05040736e:	03143c23          	sd	a7,56(s0)
ffffffc050407372:	fe042623          	sw	zero,-20(s0)
ffffffc050407376:	04040793          	addi	a5,s0,64
ffffffc05040737a:	fcf43823          	sd	a5,-48(s0)
ffffffc05040737e:	fd043783          	ld	a5,-48(s0)
ffffffc050407382:	fc878793          	addi	a5,a5,-56
ffffffc050407386:	fef43023          	sd	a5,-32(s0)
ffffffc05040738a:	fe043783          	ld	a5,-32(s0)
ffffffc05040738e:	85be                	mv	a1,a5
ffffffc050407390:	fd843503          	ld	a0,-40(s0)
ffffffc050407394:	f8fff0ef          	jal	ra,ffffffc050407322 <vprintk>
ffffffc050407398:	87aa                	mv	a5,a0
ffffffc05040739a:	fef42623          	sw	a5,-20(s0)
ffffffc05040739e:	fec42783          	lw	a5,-20(s0)
ffffffc0504073a2:	853e                	mv	a0,a5
ffffffc0504073a4:	70a2                	ld	ra,40(sp)
ffffffc0504073a6:	7402                	ld	s0,32(sp)
ffffffc0504073a8:	6165                	addi	sp,sp,112
ffffffc0504073aa:	8082                	ret

ffffffc0504073ac <vprints>:
ffffffc0504073ac:	1101                	addi	sp,sp,-32
ffffffc0504073ae:	ec06                	sd	ra,24(sp)
ffffffc0504073b0:	e822                	sd	s0,16(sp)
ffffffc0504073b2:	1000                	addi	s0,sp,32
ffffffc0504073b4:	fea43423          	sd	a0,-24(s0)
ffffffc0504073b8:	feb43023          	sd	a1,-32(s0)
ffffffc0504073bc:	4685                	li	a3,1
ffffffc0504073be:	ffffa617          	auipc	a2,0xffffa
ffffffc0504073c2:	47a60613          	addi	a2,a2,1146 # ffffffc050401838 <screen_write>
ffffffc0504073c6:	fe043583          	ld	a1,-32(s0)
ffffffc0504073ca:	fe843503          	ld	a0,-24(s0)
ffffffc0504073ce:	e21ff0ef          	jal	ra,ffffffc0504071ee <_vprint>
ffffffc0504073d2:	87aa                	mv	a5,a0
ffffffc0504073d4:	853e                	mv	a0,a5
ffffffc0504073d6:	60e2                	ld	ra,24(sp)
ffffffc0504073d8:	6442                	ld	s0,16(sp)
ffffffc0504073da:	6105                	addi	sp,sp,32
ffffffc0504073dc:	8082                	ret

ffffffc0504073de <prints>:
ffffffc0504073de:	7159                	addi	sp,sp,-112
ffffffc0504073e0:	f406                	sd	ra,40(sp)
ffffffc0504073e2:	f022                	sd	s0,32(sp)
ffffffc0504073e4:	1800                	addi	s0,sp,48
ffffffc0504073e6:	fca43c23          	sd	a0,-40(s0)
ffffffc0504073ea:	e40c                	sd	a1,8(s0)
ffffffc0504073ec:	e810                	sd	a2,16(s0)
ffffffc0504073ee:	ec14                	sd	a3,24(s0)
ffffffc0504073f0:	f018                	sd	a4,32(s0)
ffffffc0504073f2:	f41c                	sd	a5,40(s0)
ffffffc0504073f4:	03043823          	sd	a6,48(s0)
ffffffc0504073f8:	03143c23          	sd	a7,56(s0)
ffffffc0504073fc:	fe042623          	sw	zero,-20(s0)
ffffffc050407400:	04040793          	addi	a5,s0,64
ffffffc050407404:	fcf43823          	sd	a5,-48(s0)
ffffffc050407408:	fd043783          	ld	a5,-48(s0)
ffffffc05040740c:	fc878793          	addi	a5,a5,-56
ffffffc050407410:	fef43023          	sd	a5,-32(s0)
ffffffc050407414:	fe043783          	ld	a5,-32(s0)
ffffffc050407418:	85be                	mv	a1,a5
ffffffc05040741a:	fd843503          	ld	a0,-40(s0)
ffffffc05040741e:	f8fff0ef          	jal	ra,ffffffc0504073ac <vprints>
ffffffc050407422:	87aa                	mv	a5,a0
ffffffc050407424:	fef42623          	sw	a5,-20(s0)
ffffffc050407428:	fec42783          	lw	a5,-20(s0)
ffffffc05040742c:	853e                	mv	a0,a5
ffffffc05040742e:	70a2                	ld	ra,40(sp)
ffffffc050407430:	7402                	ld	s0,32(sp)
ffffffc050407432:	6165                	addi	sp,sp,112
ffffffc050407434:	8082                	ret

ffffffc050407436 <get_elf_file>:
ffffffc050407436:	7139                	addi	sp,sp,-64
ffffffc050407438:	fc06                	sd	ra,56(sp)
ffffffc05040743a:	f822                	sd	s0,48(sp)
ffffffc05040743c:	0080                	addi	s0,sp,64
ffffffc05040743e:	fca43c23          	sd	a0,-40(s0)
ffffffc050407442:	fcb43823          	sd	a1,-48(s0)
ffffffc050407446:	fcc43423          	sd	a2,-56(s0)
ffffffc05040744a:	fe042623          	sw	zero,-20(s0)
ffffffc05040744e:	a895                	j	ffffffc0504074c2 <get_elf_file+0x8c>
ffffffc050407450:	00045697          	auipc	a3,0x45
ffffffc050407454:	4b068693          	addi	a3,a3,1200 # ffffffc05044c900 <elf_files>
ffffffc050407458:	fec42703          	lw	a4,-20(s0)
ffffffc05040745c:	87ba                	mv	a5,a4
ffffffc05040745e:	0786                	slli	a5,a5,0x1
ffffffc050407460:	97ba                	add	a5,a5,a4
ffffffc050407462:	078e                	slli	a5,a5,0x3
ffffffc050407464:	97b6                	add	a5,a5,a3
ffffffc050407466:	639c                	ld	a5,0(a5)
ffffffc050407468:	fd843583          	ld	a1,-40(s0)
ffffffc05040746c:	853e                	mv	a0,a5
ffffffc05040746e:	d74ff0ef          	jal	ra,ffffffc0504069e2 <strcmp>
ffffffc050407472:	87aa                	mv	a5,a0
ffffffc050407474:	e3b1                	bnez	a5,ffffffc0504074b8 <get_elf_file+0x82>
ffffffc050407476:	00045697          	auipc	a3,0x45
ffffffc05040747a:	48a68693          	addi	a3,a3,1162 # ffffffc05044c900 <elf_files>
ffffffc05040747e:	fec42703          	lw	a4,-20(s0)
ffffffc050407482:	87ba                	mv	a5,a4
ffffffc050407484:	0786                	slli	a5,a5,0x1
ffffffc050407486:	97ba                	add	a5,a5,a4
ffffffc050407488:	078e                	slli	a5,a5,0x3
ffffffc05040748a:	97b6                	add	a5,a5,a3
ffffffc05040748c:	6798                	ld	a4,8(a5)
ffffffc05040748e:	fd043783          	ld	a5,-48(s0)
ffffffc050407492:	e398                	sd	a4,0(a5)
ffffffc050407494:	00045697          	auipc	a3,0x45
ffffffc050407498:	46c68693          	addi	a3,a3,1132 # ffffffc05044c900 <elf_files>
ffffffc05040749c:	fec42703          	lw	a4,-20(s0)
ffffffc0504074a0:	87ba                	mv	a5,a4
ffffffc0504074a2:	0786                	slli	a5,a5,0x1
ffffffc0504074a4:	97ba                	add	a5,a5,a4
ffffffc0504074a6:	078e                	slli	a5,a5,0x3
ffffffc0504074a8:	97b6                	add	a5,a5,a3
ffffffc0504074aa:	6b9c                	ld	a5,16(a5)
ffffffc0504074ac:	4398                	lw	a4,0(a5)
ffffffc0504074ae:	fc843783          	ld	a5,-56(s0)
ffffffc0504074b2:	c398                	sw	a4,0(a5)
ffffffc0504074b4:	4785                	li	a5,1
ffffffc0504074b6:	a831                	j	ffffffc0504074d2 <get_elf_file+0x9c>
ffffffc0504074b8:	fec42783          	lw	a5,-20(s0)
ffffffc0504074bc:	2785                	addiw	a5,a5,1
ffffffc0504074be:	fef42623          	sw	a5,-20(s0)
ffffffc0504074c2:	fec42783          	lw	a5,-20(s0)
ffffffc0504074c6:	0007871b          	sext.w	a4,a5
ffffffc0504074ca:	4799                	li	a5,6
ffffffc0504074cc:	f8e7d2e3          	bge	a5,a4,ffffffc050407450 <get_elf_file+0x1a>
ffffffc0504074d0:	4781                	li	a5,0
ffffffc0504074d2:	853e                	mv	a0,a5
ffffffc0504074d4:	70e2                	ld	ra,56(sp)
ffffffc0504074d6:	7442                	ld	s0,48(sp)
ffffffc0504074d8:	6121                	addi	sp,sp,64
ffffffc0504074da:	8082                	ret

ffffffc0504074dc <match_elf>:
ffffffc0504074dc:	7179                	addi	sp,sp,-48
ffffffc0504074de:	f406                	sd	ra,40(sp)
ffffffc0504074e0:	f022                	sd	s0,32(sp)
ffffffc0504074e2:	1800                	addi	s0,sp,48
ffffffc0504074e4:	fca43c23          	sd	a0,-40(s0)
ffffffc0504074e8:	4785                	li	a5,1
ffffffc0504074ea:	fef42623          	sw	a5,-20(s0)
ffffffc0504074ee:	a825                	j	ffffffc050407526 <match_elf+0x4a>
ffffffc0504074f0:	00045697          	auipc	a3,0x45
ffffffc0504074f4:	41068693          	addi	a3,a3,1040 # ffffffc05044c900 <elf_files>
ffffffc0504074f8:	fec42703          	lw	a4,-20(s0)
ffffffc0504074fc:	87ba                	mv	a5,a4
ffffffc0504074fe:	0786                	slli	a5,a5,0x1
ffffffc050407500:	97ba                	add	a5,a5,a4
ffffffc050407502:	078e                	slli	a5,a5,0x3
ffffffc050407504:	97b6                	add	a5,a5,a3
ffffffc050407506:	639c                	ld	a5,0(a5)
ffffffc050407508:	85be                	mv	a1,a5
ffffffc05040750a:	fd843503          	ld	a0,-40(s0)
ffffffc05040750e:	cd4ff0ef          	jal	ra,ffffffc0504069e2 <strcmp>
ffffffc050407512:	87aa                	mv	a5,a0
ffffffc050407514:	e781                	bnez	a5,ffffffc05040751c <match_elf+0x40>
ffffffc050407516:	fec42783          	lw	a5,-20(s0)
ffffffc05040751a:	a831                	j	ffffffc050407536 <match_elf+0x5a>
ffffffc05040751c:	fec42783          	lw	a5,-20(s0)
ffffffc050407520:	2785                	addiw	a5,a5,1
ffffffc050407522:	fef42623          	sw	a5,-20(s0)
ffffffc050407526:	fec42783          	lw	a5,-20(s0)
ffffffc05040752a:	0007871b          	sext.w	a4,a5
ffffffc05040752e:	4799                	li	a5,6
ffffffc050407530:	fce7d0e3          	bge	a5,a4,ffffffc0504074f0 <match_elf+0x14>
ffffffc050407534:	57fd                	li	a5,-1
ffffffc050407536:	853e                	mv	a0,a5
ffffffc050407538:	70a2                	ld	ra,40(sp)
ffffffc05040753a:	7402                	ld	s0,32(sp)
ffffffc05040753c:	6145                	addi	sp,sp,48
ffffffc05040753e:	8082                	ret
