
kernelimage:     file format elf64-littleriscv


Disassembly of section .text:

0000000050203000 <_start>:
    50203000:	10401073          	csrw	sie,zero
    50203004:	14401073          	csrw	sip,zero
    50203008:	6299                	lui	t0,0x6
    5020300a:	1002b073          	csrc	sstatus,t0
    5020300e:	000402b7          	lui	t0,0x40
    50203012:	1002a073          	csrs	sstatus,t0
    50203016:	00073197          	auipc	gp,0x73
    5020301a:	75a18193          	addi	gp,gp,1882 # 50276770 <__global_pointer$>
    5020301e:	f1402573          	csrr	a0,mhartid
    50203022:	ed11                	bnez	a0,5020303e <clear_bss_done>
    50203024:	7ec18693          	addi	a3,gp,2028 # 50276f5c <_edata>
    50203028:	00074717          	auipc	a4,0x74
    5020302c:	f4870713          	addi	a4,a4,-184 # 50276f70 <__BSS_END__>
    50203030:	00e6d763          	bge	a3,a4,5020303e <clear_bss_done>

0000000050203034 <clear_bss>:
    50203034:	0006b023          	sd	zero,0(a3)
    50203038:	06a1                	addi	a3,a3,8
    5020303a:	fee6cde3          	blt	a3,a4,50203034 <clear_bss>

000000005020303e <clear_bss_done>:
    5020303e:	50300137          	lui	sp,0x50300
    50203042:	5a2000ef          	jal	ra,502035e4 <boot_kernel>

0000000050203046 <loop>:
    50203046:	10500073          	wfi
    5020304a:	bff5                	j	50203046 <loop>
	...

000000005020304e <local_flush_tlb_all>:
    5020304e:	1141                	addi	sp,sp,-16
    50203050:	e422                	sd	s0,8(sp)
    50203052:	0800                	addi	s0,sp,16
    50203054:	12000073          	sfence.vma
    50203058:	0001                	nop
    5020305a:	6422                	ld	s0,8(sp)
    5020305c:	0141                	addi	sp,sp,16
    5020305e:	8082                	ret

0000000050203060 <set_satp>:
    50203060:	7179                	addi	sp,sp,-48
    50203062:	f422                	sd	s0,40(sp)
    50203064:	1800                	addi	s0,sp,48
    50203066:	87aa                	mv	a5,a0
    50203068:	872e                	mv	a4,a1
    5020306a:	fcc43823          	sd	a2,-48(s0)
    5020306e:	fcf42e23          	sw	a5,-36(s0)
    50203072:	87ba                	mv	a5,a4
    50203074:	fcf42c23          	sw	a5,-40(s0)
    50203078:	fdc46783          	lwu	a5,-36(s0)
    5020307c:	03c79713          	slli	a4,a5,0x3c
    50203080:	fd846783          	lwu	a5,-40(s0)
    50203084:	02c79693          	slli	a3,a5,0x2c
    50203088:	0ffff7b7          	lui	a5,0xffff
    5020308c:	1782                	slli	a5,a5,0x20
    5020308e:	8ff5                	and	a5,a5,a3
    50203090:	8f5d                	or	a4,a4,a5
    50203092:	fd043683          	ld	a3,-48(s0)
    50203096:	57fd                	li	a5,-1
    50203098:	83d1                	srli	a5,a5,0x14
    5020309a:	8ff5                	and	a5,a5,a3
    5020309c:	8fd9                	or	a5,a5,a4
    5020309e:	fef43423          	sd	a5,-24(s0)
    502030a2:	fe843783          	ld	a5,-24(s0)
    502030a6:	12000073          	sfence.vma
    502030aa:	18079073          	csrw	satp,a5
    502030ae:	0001                	nop
    502030b0:	7422                	ld	s0,40(sp)
    502030b2:	6145                	addi	sp,sp,48
    502030b4:	8082                	ret

00000000502030b6 <kva2pa>:
    502030b6:	1101                	addi	sp,sp,-32
    502030b8:	ec22                	sd	s0,24(sp)
    502030ba:	1000                	addi	s0,sp,32
    502030bc:	fea43423          	sd	a0,-24(s0)
    502030c0:	fe843703          	ld	a4,-24(s0)
    502030c4:	4785                	li	a5,1
    502030c6:	179a                	slli	a5,a5,0x26
    502030c8:	97ba                	add	a5,a5,a4
    502030ca:	853e                	mv	a0,a5
    502030cc:	6462                	ld	s0,24(sp)
    502030ce:	6105                	addi	sp,sp,32
    502030d0:	8082                	ret

00000000502030d2 <get_pa>:
    502030d2:	7179                	addi	sp,sp,-48
    502030d4:	f422                	sd	s0,40(sp)
    502030d6:	1800                	addi	s0,sp,48
    502030d8:	fca43c23          	sd	a0,-40(s0)
    502030dc:	fff007b7          	lui	a5,0xfff00
    502030e0:	83a9                	srli	a5,a5,0xa
    502030e2:	fef43423          	sd	a5,-24(s0)
    502030e6:	fd843703          	ld	a4,-40(s0)
    502030ea:	fe843783          	ld	a5,-24(s0)
    502030ee:	8ff9                	and	a5,a5,a4
    502030f0:	078a                	slli	a5,a5,0x2
    502030f2:	853e                	mv	a0,a5
    502030f4:	7422                	ld	s0,40(sp)
    502030f6:	6145                	addi	sp,sp,48
    502030f8:	8082                	ret

00000000502030fa <set_pfn>:
    502030fa:	7179                	addi	sp,sp,-48
    502030fc:	f422                	sd	s0,40(sp)
    502030fe:	1800                	addi	s0,sp,48
    50203100:	fca43c23          	sd	a0,-40(s0)
    50203104:	fcb43823          	sd	a1,-48(s0)
    50203108:	fff007b7          	lui	a5,0xfff00
    5020310c:	83a9                	srli	a5,a5,0xa
    5020310e:	fef43423          	sd	a5,-24(s0)
    50203112:	fd043783          	ld	a5,-48(s0)
    50203116:	07aa                	slli	a5,a5,0xa
    50203118:	fcf43823          	sd	a5,-48(s0)
    5020311c:	fd843783          	ld	a5,-40(s0)
    50203120:	6398                	ld	a4,0(a5)
    50203122:	fe843783          	ld	a5,-24(s0)
    50203126:	fff7c793          	not	a5,a5
    5020312a:	8f7d                	and	a4,a4,a5
    5020312c:	fd043783          	ld	a5,-48(s0)
    50203130:	8f5d                	or	a4,a4,a5
    50203132:	fd843783          	ld	a5,-40(s0)
    50203136:	e398                	sd	a4,0(a5)
    50203138:	0001                	nop
    5020313a:	7422                	ld	s0,40(sp)
    5020313c:	6145                	addi	sp,sp,48
    5020313e:	8082                	ret

0000000050203140 <set_attribute>:
    50203140:	1101                	addi	sp,sp,-32
    50203142:	ec22                	sd	s0,24(sp)
    50203144:	1000                	addi	s0,sp,32
    50203146:	fea43423          	sd	a0,-24(s0)
    5020314a:	feb43023          	sd	a1,-32(s0)
    5020314e:	fe843783          	ld	a5,-24(s0)
    50203152:	6398                	ld	a4,0(a5)
    50203154:	fe043783          	ld	a5,-32(s0)
    50203158:	8f5d                	or	a4,a4,a5
    5020315a:	fe843783          	ld	a5,-24(s0)
    5020315e:	e398                	sd	a4,0(a5)
    50203160:	0001                	nop
    50203162:	6462                	ld	s0,24(sp)
    50203164:	6105                	addi	sp,sp,32
    50203166:	8082                	ret

0000000050203168 <clear_pgdir>:
    50203168:	7179                	addi	sp,sp,-48
    5020316a:	f422                	sd	s0,40(sp)
    5020316c:	1800                	addi	s0,sp,48
    5020316e:	fca43c23          	sd	a0,-40(s0)
    50203172:	fe043423          	sd	zero,-24(s0)
    50203176:	a829                	j	50203190 <clear_pgdir+0x28>
    50203178:	fd843703          	ld	a4,-40(s0)
    5020317c:	fe843783          	ld	a5,-24(s0)
    50203180:	97ba                	add	a5,a5,a4
    50203182:	0007b023          	sd	zero,0(a5) # fffffffffff00000 <boot_stack_top_base+0xffffffffafc00000>
    50203186:	fe843783          	ld	a5,-24(s0)
    5020318a:	07a1                	addi	a5,a5,8
    5020318c:	fef43423          	sd	a5,-24(s0)
    50203190:	fe843703          	ld	a4,-24(s0)
    50203194:	6785                	lui	a5,0x1
    50203196:	fef761e3          	bltu	a4,a5,50203178 <clear_pgdir+0x10>
    5020319a:	0001                	nop
    5020319c:	0001                	nop
    5020319e:	7422                	ld	s0,40(sp)
    502031a0:	6145                	addi	sp,sp,48
    502031a2:	8082                	ret

00000000502031a4 <is_elf_format>:
    502031a4:	7179                	addi	sp,sp,-48
    502031a6:	f422                	sd	s0,40(sp)
    502031a8:	1800                	addi	s0,sp,48
    502031aa:	fca43c23          	sd	a0,-40(s0)
    502031ae:	fd843783          	ld	a5,-40(s0)
    502031b2:	fef43423          	sd	a5,-24(s0)
    502031b6:	fe843783          	ld	a5,-24(s0)
    502031ba:	0007c783          	lbu	a5,0(a5) # 1000 <_start-0x50202000>
    502031be:	eb9d                	bnez	a5,502031f4 <is_elf_format+0x50>
    502031c0:	fe843783          	ld	a5,-24(s0)
    502031c4:	0017c783          	lbu	a5,1(a5)
    502031c8:	873e                	mv	a4,a5
    502031ca:	4785                	li	a5,1
    502031cc:	02f71463          	bne	a4,a5,502031f4 <is_elf_format+0x50>
    502031d0:	fe843783          	ld	a5,-24(s0)
    502031d4:	0027c783          	lbu	a5,2(a5)
    502031d8:	873e                	mv	a4,a5
    502031da:	4789                	li	a5,2
    502031dc:	00f71c63          	bne	a4,a5,502031f4 <is_elf_format+0x50>
    502031e0:	fe843783          	ld	a5,-24(s0)
    502031e4:	0037c783          	lbu	a5,3(a5)
    502031e8:	873e                	mv	a4,a5
    502031ea:	478d                	li	a5,3
    502031ec:	00f71463          	bne	a4,a5,502031f4 <is_elf_format+0x50>
    502031f0:	4781                	li	a5,0
    502031f2:	a011                	j	502031f6 <is_elf_format+0x52>
    502031f4:	4785                	li	a5,1
    502031f6:	853e                	mv	a0,a5
    502031f8:	7422                	ld	s0,40(sp)
    502031fa:	6145                	addi	sp,sp,48
    502031fc:	8082                	ret

00000000502031fe <load_elf>:
    502031fe:	7159                	addi	sp,sp,-112
    50203200:	f486                	sd	ra,104(sp)
    50203202:	f0a2                	sd	s0,96(sp)
    50203204:	1880                	addi	s0,sp,112
    50203206:	faa43423          	sd	a0,-88(s0)
    5020320a:	87ae                	mv	a5,a1
    5020320c:	f8c43c23          	sd	a2,-104(s0)
    50203210:	f8d43823          	sd	a3,-112(s0)
    50203214:	faf42223          	sw	a5,-92(s0)
    50203218:	fa843783          	ld	a5,-88(s0)
    5020321c:	fcf43823          	sd	a5,-48(s0)
    50203220:	fc043423          	sd	zero,-56(s0)
    50203224:	fe043423          	sd	zero,-24(s0)
    50203228:	fe042023          	sw	zero,-32(s0)
    5020322c:	fa442783          	lw	a5,-92(s0)
    50203230:	0007871b          	sext.w	a4,a5
    50203234:	478d                	li	a5,3
    50203236:	00e7f863          	bgeu	a5,a4,50203246 <load_elf+0x48>
    5020323a:	fa843503          	ld	a0,-88(s0)
    5020323e:	f67ff0ef          	jal	ra,502031a4 <is_elf_format>
    50203242:	87aa                	mv	a5,a0
    50203244:	e399                	bnez	a5,5020324a <load_elf+0x4c>
    50203246:	4781                	li	a5,0
    50203248:	a259                	j	502033ce <load_elf+0x1d0>
    5020324a:	fd043783          	ld	a5,-48(s0)
    5020324e:	739c                	ld	a5,32(a5)
    50203250:	fa843703          	ld	a4,-88(s0)
    50203254:	97ba                	add	a5,a5,a4
    50203256:	fef43423          	sd	a5,-24(s0)
    5020325a:	fd043783          	ld	a5,-48(s0)
    5020325e:	0387d783          	lhu	a5,56(a5)
    50203262:	fef41323          	sh	a5,-26(s0)
    50203266:	fd043783          	ld	a5,-48(s0)
    5020326a:	0367d783          	lhu	a5,54(a5)
    5020326e:	fcf41323          	sh	a5,-58(s0)
    50203272:	a299                	j	502033b8 <load_elf+0x1ba>
    50203274:	fe843783          	ld	a5,-24(s0)
    50203278:	fcf43423          	sd	a5,-56(s0)
    5020327c:	fc843783          	ld	a5,-56(s0)
    50203280:	439c                	lw	a5,0(a5)
    50203282:	873e                	mv	a4,a5
    50203284:	4785                	li	a5,1
    50203286:	12f71263          	bne	a4,a5,502033aa <load_elf+0x1ac>
    5020328a:	fe042023          	sw	zero,-32(s0)
    5020328e:	a239                	j	5020339c <load_elf+0x19e>
    50203290:	fe042703          	lw	a4,-32(s0)
    50203294:	fc843783          	ld	a5,-56(s0)
    50203298:	739c                	ld	a5,32(a5)
    5020329a:	0af77463          	bgeu	a4,a5,50203342 <load_elf+0x144>
    5020329e:	fc843783          	ld	a5,-56(s0)
    502032a2:	6b98                	ld	a4,16(a5)
    502032a4:	fe042783          	lw	a5,-32(s0)
    502032a8:	97ba                	add	a5,a5,a4
    502032aa:	f9043703          	ld	a4,-112(s0)
    502032ae:	f9843583          	ld	a1,-104(s0)
    502032b2:	853e                	mv	a0,a5
    502032b4:	9702                	jalr	a4
    502032b6:	87aa                	mv	a5,a0
    502032b8:	faf43823          	sd	a5,-80(s0)
    502032bc:	fc843783          	ld	a5,-56(s0)
    502032c0:	6798                	ld	a4,8(a5)
    502032c2:	fe042783          	lw	a5,-32(s0)
    502032c6:	97ba                	add	a5,a5,a4
    502032c8:	fa843703          	ld	a4,-88(s0)
    502032cc:	00f706b3          	add	a3,a4,a5
    502032d0:	fc843783          	ld	a5,-56(s0)
    502032d4:	7398                	ld	a4,32(a5)
    502032d6:	fe042783          	lw	a5,-32(s0)
    502032da:	40f707b3          	sub	a5,a4,a5
    502032de:	6705                	lui	a4,0x1
    502032e0:	00f77363          	bgeu	a4,a5,502032e6 <load_elf+0xe8>
    502032e4:	6785                	lui	a5,0x1
    502032e6:	2781                	sext.w	a5,a5
    502032e8:	863e                	mv	a2,a5
    502032ea:	85b6                	mv	a1,a3
    502032ec:	fb043503          	ld	a0,-80(s0)
    502032f0:	39a000ef          	jal	ra,5020368a <memcpy>
    502032f4:	fc843783          	ld	a5,-56(s0)
    502032f8:	7398                	ld	a4,32(a5)
    502032fa:	fe042783          	lw	a5,-32(s0)
    502032fe:	8f1d                	sub	a4,a4,a5
    50203300:	6785                	lui	a5,0x1
    50203302:	08f77663          	bgeu	a4,a5,5020338e <load_elf+0x190>
    50203306:	fc843783          	ld	a5,-56(s0)
    5020330a:	739c                	ld	a5,32(a5)
    5020330c:	0007871b          	sext.w	a4,a5
    50203310:	6785                	lui	a5,0x1
    50203312:	17fd                	addi	a5,a5,-1
    50203314:	8ff9                	and	a5,a5,a4
    50203316:	fcf42e23          	sw	a5,-36(s0)
    5020331a:	a829                	j	50203334 <load_elf+0x136>
    5020331c:	fdc42783          	lw	a5,-36(s0)
    50203320:	fb043703          	ld	a4,-80(s0)
    50203324:	97ba                	add	a5,a5,a4
    50203326:	00078023          	sb	zero,0(a5) # 1000 <_start-0x50202000>
    5020332a:	fdc42783          	lw	a5,-36(s0)
    5020332e:	2785                	addiw	a5,a5,1
    50203330:	fcf42e23          	sw	a5,-36(s0)
    50203334:	fdc42783          	lw	a5,-36(s0)
    50203338:	873e                	mv	a4,a5
    5020333a:	6785                	lui	a5,0x1
    5020333c:	fef760e3          	bltu	a4,a5,5020331c <load_elf+0x11e>
    50203340:	a0b9                	j	5020338e <load_elf+0x190>
    50203342:	fc843783          	ld	a5,-56(s0)
    50203346:	6b98                	ld	a4,16(a5)
    50203348:	fe042783          	lw	a5,-32(s0)
    5020334c:	97ba                	add	a5,a5,a4
    5020334e:	f9043703          	ld	a4,-112(s0)
    50203352:	f9843583          	ld	a1,-104(s0)
    50203356:	853e                	mv	a0,a5
    50203358:	9702                	jalr	a4
    5020335a:	87aa                	mv	a5,a0
    5020335c:	faf43c23          	sd	a5,-72(s0)
    50203360:	fc042c23          	sw	zero,-40(s0)
    50203364:	a831                	j	50203380 <load_elf+0x182>
    50203366:	fd842783          	lw	a5,-40(s0)
    5020336a:	078e                	slli	a5,a5,0x3
    5020336c:	fb843703          	ld	a4,-72(s0)
    50203370:	97ba                	add	a5,a5,a4
    50203372:	0007b023          	sd	zero,0(a5) # 1000 <_start-0x50202000>
    50203376:	fd842783          	lw	a5,-40(s0)
    5020337a:	2785                	addiw	a5,a5,1
    5020337c:	fcf42c23          	sw	a5,-40(s0)
    50203380:	fd842783          	lw	a5,-40(s0)
    50203384:	873e                	mv	a4,a5
    50203386:	1ff00793          	li	a5,511
    5020338a:	fce7fee3          	bgeu	a5,a4,50203366 <load_elf+0x168>
    5020338e:	fe042703          	lw	a4,-32(s0)
    50203392:	6785                	lui	a5,0x1
    50203394:	9fb9                	addw	a5,a5,a4
    50203396:	2781                	sext.w	a5,a5
    50203398:	fef42023          	sw	a5,-32(s0)
    5020339c:	fe042703          	lw	a4,-32(s0)
    502033a0:	fc843783          	ld	a5,-56(s0)
    502033a4:	779c                	ld	a5,40(a5)
    502033a6:	eef765e3          	bltu	a4,a5,50203290 <load_elf+0x92>
    502033aa:	fc645783          	lhu	a5,-58(s0)
    502033ae:	fe843703          	ld	a4,-24(s0)
    502033b2:	97ba                	add	a5,a5,a4
    502033b4:	fef43423          	sd	a5,-24(s0)
    502033b8:	fe645783          	lhu	a5,-26(s0)
    502033bc:	fff7871b          	addiw	a4,a5,-1
    502033c0:	fee41323          	sh	a4,-26(s0)
    502033c4:	ea0798e3          	bnez	a5,50203274 <load_elf+0x76>
    502033c8:	fd043783          	ld	a5,-48(s0)
    502033cc:	6f9c                	ld	a5,24(a5)
    502033ce:	853e                	mv	a0,a5
    502033d0:	70a6                	ld	ra,104(sp)
    502033d2:	7406                	ld	s0,96(sp)
    502033d4:	6165                	addi	sp,sp,112
    502033d6:	8082                	ret

00000000502033d8 <alloc_page>:
    502033d8:	1101                	addi	sp,sp,-32
    502033da:	ec22                	sd	s0,24(sp)
    502033dc:	1000                	addi	s0,sp,32
    502033de:	00074797          	auipc	a5,0x74
    502033e2:	b8278793          	addi	a5,a5,-1150 # 50276f60 <adder>
    502033e6:	639c                	ld	a5,0(a5)
    502033e8:	00178713          	addi	a4,a5,1
    502033ec:	00074797          	auipc	a5,0x74
    502033f0:	b7478793          	addi	a5,a5,-1164 # 50276f60 <adder>
    502033f4:	e398                	sd	a4,0(a5)
    502033f6:	00074797          	auipc	a5,0x74
    502033fa:	b6a78793          	addi	a5,a5,-1174 # 50276f60 <adder>
    502033fe:	6398                	ld	a4,0(a5)
    50203400:	0005e7b7          	lui	a5,0x5e
    50203404:	97ba                	add	a5,a5,a4
    50203406:	07b2                	slli	a5,a5,0xc
    50203408:	fef43423          	sd	a5,-24(s0)
    5020340c:	fe843783          	ld	a5,-24(s0)
    50203410:	853e                	mv	a0,a5
    50203412:	6462                	ld	s0,24(sp)
    50203414:	6105                	addi	sp,sp,32
    50203416:	8082                	ret

0000000050203418 <map_page>:
    50203418:	711d                	addi	sp,sp,-96
    5020341a:	ec86                	sd	ra,88(sp)
    5020341c:	e8a2                	sd	s0,80(sp)
    5020341e:	e4a6                	sd	s1,72(sp)
    50203420:	1080                	addi	s0,sp,96
    50203422:	faa43c23          	sd	a0,-72(s0)
    50203426:	fab43823          	sd	a1,-80(s0)
    5020342a:	fac43423          	sd	a2,-88(s0)
    5020342e:	fb843703          	ld	a4,-72(s0)
    50203432:	57fd                	li	a5,-1
    50203434:	83e5                	srli	a5,a5,0x19
    50203436:	8ff9                	and	a5,a5,a4
    50203438:	faf43c23          	sd	a5,-72(s0)
    5020343c:	fb843783          	ld	a5,-72(s0)
    50203440:	83f9                	srli	a5,a5,0x1e
    50203442:	fcf43c23          	sd	a5,-40(s0)
    50203446:	fd843783          	ld	a5,-40(s0)
    5020344a:	00979713          	slli	a4,a5,0x9
    5020344e:	fb843783          	ld	a5,-72(s0)
    50203452:	83d5                	srli	a5,a5,0x15
    50203454:	8fb9                	xor	a5,a5,a4
    50203456:	fcf43823          	sd	a5,-48(s0)
    5020345a:	fd843783          	ld	a5,-40(s0)
    5020345e:	078e                	slli	a5,a5,0x3
    50203460:	fa843703          	ld	a4,-88(s0)
    50203464:	97ba                	add	a5,a5,a4
    50203466:	639c                	ld	a5,0(a5)
    50203468:	eba1                	bnez	a5,502034b8 <map_page+0xa0>
    5020346a:	fd843783          	ld	a5,-40(s0)
    5020346e:	078e                	slli	a5,a5,0x3
    50203470:	fa843703          	ld	a4,-88(s0)
    50203474:	00f704b3          	add	s1,a4,a5
    50203478:	f61ff0ef          	jal	ra,502033d8 <alloc_page>
    5020347c:	87aa                	mv	a5,a0
    5020347e:	83b1                	srli	a5,a5,0xc
    50203480:	85be                	mv	a1,a5
    50203482:	8526                	mv	a0,s1
    50203484:	c77ff0ef          	jal	ra,502030fa <set_pfn>
    50203488:	fd843783          	ld	a5,-40(s0)
    5020348c:	078e                	slli	a5,a5,0x3
    5020348e:	fa843703          	ld	a4,-88(s0)
    50203492:	97ba                	add	a5,a5,a4
    50203494:	4585                	li	a1,1
    50203496:	853e                	mv	a0,a5
    50203498:	ca9ff0ef          	jal	ra,50203140 <set_attribute>
    5020349c:	fd843783          	ld	a5,-40(s0)
    502034a0:	078e                	slli	a5,a5,0x3
    502034a2:	fa843703          	ld	a4,-88(s0)
    502034a6:	97ba                	add	a5,a5,a4
    502034a8:	639c                	ld	a5,0(a5)
    502034aa:	853e                	mv	a0,a5
    502034ac:	c27ff0ef          	jal	ra,502030d2 <get_pa>
    502034b0:	87aa                	mv	a5,a0
    502034b2:	853e                	mv	a0,a5
    502034b4:	cb5ff0ef          	jal	ra,50203168 <clear_pgdir>
    502034b8:	fd843783          	ld	a5,-40(s0)
    502034bc:	078e                	slli	a5,a5,0x3
    502034be:	fa843703          	ld	a4,-88(s0)
    502034c2:	97ba                	add	a5,a5,a4
    502034c4:	639c                	ld	a5,0(a5)
    502034c6:	853e                	mv	a0,a5
    502034c8:	c0bff0ef          	jal	ra,502030d2 <get_pa>
    502034cc:	87aa                	mv	a5,a0
    502034ce:	fcf43423          	sd	a5,-56(s0)
    502034d2:	fd043783          	ld	a5,-48(s0)
    502034d6:	078e                	slli	a5,a5,0x3
    502034d8:	fc843703          	ld	a4,-56(s0)
    502034dc:	973e                	add	a4,a4,a5
    502034de:	fb043783          	ld	a5,-80(s0)
    502034e2:	83b1                	srli	a5,a5,0xc
    502034e4:	85be                	mv	a1,a5
    502034e6:	853a                	mv	a0,a4
    502034e8:	c13ff0ef          	jal	ra,502030fa <set_pfn>
    502034ec:	fd043783          	ld	a5,-48(s0)
    502034f0:	078e                	slli	a5,a5,0x3
    502034f2:	fc843703          	ld	a4,-56(s0)
    502034f6:	97ba                	add	a5,a5,a4
    502034f8:	0cf00593          	li	a1,207
    502034fc:	853e                	mv	a0,a5
    502034fe:	c43ff0ef          	jal	ra,50203140 <set_attribute>
    50203502:	0001                	nop
    50203504:	60e6                	ld	ra,88(sp)
    50203506:	6446                	ld	s0,80(sp)
    50203508:	64a6                	ld	s1,72(sp)
    5020350a:	6125                	addi	sp,sp,96
    5020350c:	8082                	ret

000000005020350e <enable_vm>:
    5020350e:	1141                	addi	sp,sp,-16
    50203510:	e406                	sd	ra,8(sp)
    50203512:	e022                	sd	s0,0(sp)
    50203514:	0800                	addi	s0,sp,16
    50203516:	0005e637          	lui	a2,0x5e
    5020351a:	4581                	li	a1,0
    5020351c:	4521                	li	a0,8
    5020351e:	b43ff0ef          	jal	ra,50203060 <set_satp>
    50203522:	b2dff0ef          	jal	ra,5020304e <local_flush_tlb_all>
    50203526:	0001                	nop
    50203528:	60a2                	ld	ra,8(sp)
    5020352a:	6402                	ld	s0,0(sp)
    5020352c:	0141                	addi	sp,sp,16
    5020352e:	8082                	ret

0000000050203530 <setup_vm>:
    50203530:	7179                	addi	sp,sp,-48
    50203532:	f406                	sd	ra,40(sp)
    50203534:	f022                	sd	s0,32(sp)
    50203536:	1800                	addi	s0,sp,48
    50203538:	5e000537          	lui	a0,0x5e000
    5020353c:	c2dff0ef          	jal	ra,50203168 <clear_pgdir>
    50203540:	5e0007b7          	lui	a5,0x5e000
    50203544:	fcf43c23          	sd	a5,-40(s0)
    50203548:	e02817b7          	lui	a5,0xe0281
    5020354c:	07a6                	slli	a5,a5,0x9
    5020354e:	fef43423          	sd	a5,-24(s0)
    50203552:	a025                	j	5020357a <setup_vm+0x4a>
    50203554:	fe843503          	ld	a0,-24(s0)
    50203558:	b5fff0ef          	jal	ra,502030b6 <kva2pa>
    5020355c:	87aa                	mv	a5,a0
    5020355e:	fd843603          	ld	a2,-40(s0)
    50203562:	85be                	mv	a1,a5
    50203564:	fe843503          	ld	a0,-24(s0)
    50203568:	eb1ff0ef          	jal	ra,50203418 <map_page>
    5020356c:	fe843703          	ld	a4,-24(s0)
    50203570:	002007b7          	lui	a5,0x200
    50203574:	97ba                	add	a5,a5,a4
    50203576:	fef43423          	sd	a5,-24(s0)
    5020357a:	fe843703          	ld	a4,-24(s0)
    5020357e:	e0300793          	li	a5,-509
    50203582:	07f6                	slli	a5,a5,0x1d
    50203584:	fcf768e3          	bltu	a4,a5,50203554 <setup_vm+0x24>
    50203588:	500007b7          	lui	a5,0x50000
    5020358c:	fef43023          	sd	a5,-32(s0)
    50203590:	a005                	j	502035b0 <setup_vm+0x80>
    50203592:	fd843603          	ld	a2,-40(s0)
    50203596:	fe043583          	ld	a1,-32(s0)
    5020359a:	fe043503          	ld	a0,-32(s0)
    5020359e:	e7bff0ef          	jal	ra,50203418 <map_page>
    502035a2:	fe043703          	ld	a4,-32(s0)
    502035a6:	002007b7          	lui	a5,0x200
    502035aa:	97ba                	add	a5,a5,a4
    502035ac:	fef43023          	sd	a5,-32(s0)
    502035b0:	fe043703          	ld	a4,-32(s0)
    502035b4:	504007b7          	lui	a5,0x50400
    502035b8:	fcf76de3          	bltu	a4,a5,50203592 <setup_vm+0x62>
    502035bc:	f53ff0ef          	jal	ra,5020350e <enable_vm>
    502035c0:	0001                	nop
    502035c2:	70a2                	ld	ra,40(sp)
    502035c4:	7402                	ld	s0,32(sp)
    502035c6:	6145                	addi	sp,sp,48
    502035c8:	8082                	ret

00000000502035ca <directmap>:
    502035ca:	1101                	addi	sp,sp,-32
    502035cc:	ec22                	sd	s0,24(sp)
    502035ce:	1000                	addi	s0,sp,32
    502035d0:	fea43423          	sd	a0,-24(s0)
    502035d4:	feb43023          	sd	a1,-32(s0)
    502035d8:	fe843783          	ld	a5,-24(s0)
    502035dc:	853e                	mv	a0,a5
    502035de:	6462                	ld	s0,24(sp)
    502035e0:	6105                	addi	sp,sp,32
    502035e2:	8082                	ret

00000000502035e4 <boot_kernel>:
    502035e4:	1101                	addi	sp,sp,-32
    502035e6:	ec06                	sd	ra,24(sp)
    502035e8:	e822                	sd	s0,16(sp)
    502035ea:	1000                	addi	s0,sp,32
    502035ec:	fea43423          	sd	a0,-24(s0)
    502035f0:	feb43023          	sd	a1,-32(s0)
    502035f4:	fe843783          	ld	a5,-24(s0)
    502035f8:	ef85                	bnez	a5,50203630 <boot_kernel+0x4c>
    502035fa:	f37ff0ef          	jal	ra,50203530 <setup_vm>
    502035fe:	7e818793          	addi	a5,gp,2024 # 50276f58 <_length_main>
    50203602:	439c                	lw	a5,0(a5)
    50203604:	2781                	sext.w	a5,a5
    50203606:	00000697          	auipc	a3,0x0
    5020360a:	fc468693          	addi	a3,a3,-60 # 502035ca <directmap>
    5020360e:	5e000637          	lui	a2,0x5e000
    50203612:	85be                	mv	a1,a5
    50203614:	00000517          	auipc	a0,0x0
    50203618:	29c50513          	addi	a0,a0,668 # 502038b0 <_elf_main>
    5020361c:	be3ff0ef          	jal	ra,502031fe <load_elf>
    50203620:	87aa                	mv	a5,a0
    50203622:	873e                	mv	a4,a5
    50203624:	00074797          	auipc	a5,0x74
    50203628:	94478793          	addi	a5,a5,-1724 # 50276f68 <start_kernel>
    5020362c:	e398                	sd	a4,0(a5)
    5020362e:	a019                	j	50203634 <boot_kernel+0x50>
    50203630:	edfff0ef          	jal	ra,5020350e <enable_vm>
    50203634:	00074797          	auipc	a5,0x74
    50203638:	93478793          	addi	a5,a5,-1740 # 50276f68 <start_kernel>
    5020363c:	639c                	ld	a5,0(a5)
    5020363e:	fe043583          	ld	a1,-32(s0)
    50203642:	fe843503          	ld	a0,-24(s0)
    50203646:	9782                	jalr	a5
    50203648:	4781                	li	a5,0
    5020364a:	853e                	mv	a0,a5
    5020364c:	60e2                	ld	ra,24(sp)
    5020364e:	6442                	ld	s0,16(sp)
    50203650:	6105                	addi	sp,sp,32
    50203652:	8082                	ret

0000000050203654 <strlen>:
    50203654:	7179                	addi	sp,sp,-48
    50203656:	f422                	sd	s0,40(sp)
    50203658:	1800                	addi	s0,sp,48
    5020365a:	fca43c23          	sd	a0,-40(s0)
    5020365e:	fe042623          	sw	zero,-20(s0)
    50203662:	a031                	j	5020366e <strlen+0x1a>
    50203664:	fec42783          	lw	a5,-20(s0)
    50203668:	2785                	addiw	a5,a5,1
    5020366a:	fef42623          	sw	a5,-20(s0)
    5020366e:	fec42783          	lw	a5,-20(s0)
    50203672:	fd843703          	ld	a4,-40(s0)
    50203676:	97ba                	add	a5,a5,a4
    50203678:	0007c783          	lbu	a5,0(a5)
    5020367c:	f7e5                	bnez	a5,50203664 <strlen+0x10>
    5020367e:	fec42783          	lw	a5,-20(s0)
    50203682:	853e                	mv	a0,a5
    50203684:	7422                	ld	s0,40(sp)
    50203686:	6145                	addi	sp,sp,48
    50203688:	8082                	ret

000000005020368a <memcpy>:
    5020368a:	7179                	addi	sp,sp,-48
    5020368c:	f422                	sd	s0,40(sp)
    5020368e:	1800                	addi	s0,sp,48
    50203690:	fea43423          	sd	a0,-24(s0)
    50203694:	feb43023          	sd	a1,-32(s0)
    50203698:	87b2                	mv	a5,a2
    5020369a:	fcf42e23          	sw	a5,-36(s0)
    5020369e:	a035                	j	502036ca <memcpy+0x40>
    502036a0:	fe043703          	ld	a4,-32(s0)
    502036a4:	00170793          	addi	a5,a4,1 # 1001 <_start-0x50201fff>
    502036a8:	fef43023          	sd	a5,-32(s0)
    502036ac:	fe843783          	ld	a5,-24(s0)
    502036b0:	00178693          	addi	a3,a5,1
    502036b4:	fed43423          	sd	a3,-24(s0)
    502036b8:	00074703          	lbu	a4,0(a4)
    502036bc:	00e78023          	sb	a4,0(a5)
    502036c0:	fdc42783          	lw	a5,-36(s0)
    502036c4:	37fd                	addiw	a5,a5,-1
    502036c6:	fcf42e23          	sw	a5,-36(s0)
    502036ca:	fdc42783          	lw	a5,-36(s0)
    502036ce:	2781                	sext.w	a5,a5
    502036d0:	fbe1                	bnez	a5,502036a0 <memcpy+0x16>
    502036d2:	0001                	nop
    502036d4:	0001                	nop
    502036d6:	7422                	ld	s0,40(sp)
    502036d8:	6145                	addi	sp,sp,48
    502036da:	8082                	ret

00000000502036dc <memset>:
    502036dc:	7179                	addi	sp,sp,-48
    502036de:	f422                	sd	s0,40(sp)
    502036e0:	1800                	addi	s0,sp,48
    502036e2:	fca43c23          	sd	a0,-40(s0)
    502036e6:	87ae                	mv	a5,a1
    502036e8:	8732                	mv	a4,a2
    502036ea:	fcf40ba3          	sb	a5,-41(s0)
    502036ee:	87ba                	mv	a5,a4
    502036f0:	fcf42823          	sw	a5,-48(s0)
    502036f4:	fd843783          	ld	a5,-40(s0)
    502036f8:	fef43423          	sd	a5,-24(s0)
    502036fc:	a005                	j	5020371c <memset+0x40>
    502036fe:	fe843783          	ld	a5,-24(s0)
    50203702:	00178713          	addi	a4,a5,1
    50203706:	fee43423          	sd	a4,-24(s0)
    5020370a:	fd744703          	lbu	a4,-41(s0)
    5020370e:	00e78023          	sb	a4,0(a5)
    50203712:	fd042783          	lw	a5,-48(s0)
    50203716:	37fd                	addiw	a5,a5,-1
    50203718:	fcf42823          	sw	a5,-48(s0)
    5020371c:	fd042783          	lw	a5,-48(s0)
    50203720:	2781                	sext.w	a5,a5
    50203722:	fff1                	bnez	a5,502036fe <memset+0x22>
    50203724:	0001                	nop
    50203726:	0001                	nop
    50203728:	7422                	ld	s0,40(sp)
    5020372a:	6145                	addi	sp,sp,48
    5020372c:	8082                	ret

000000005020372e <bzero>:
    5020372e:	1101                	addi	sp,sp,-32
    50203730:	ec06                	sd	ra,24(sp)
    50203732:	e822                	sd	s0,16(sp)
    50203734:	1000                	addi	s0,sp,32
    50203736:	fea43423          	sd	a0,-24(s0)
    5020373a:	87ae                	mv	a5,a1
    5020373c:	fef42223          	sw	a5,-28(s0)
    50203740:	fe442783          	lw	a5,-28(s0)
    50203744:	863e                	mv	a2,a5
    50203746:	4581                	li	a1,0
    50203748:	fe843503          	ld	a0,-24(s0)
    5020374c:	f91ff0ef          	jal	ra,502036dc <memset>
    50203750:	0001                	nop
    50203752:	60e2                	ld	ra,24(sp)
    50203754:	6442                	ld	s0,16(sp)
    50203756:	6105                	addi	sp,sp,32
    50203758:	8082                	ret

000000005020375a <strcmp>:
    5020375a:	1101                	addi	sp,sp,-32
    5020375c:	ec22                	sd	s0,24(sp)
    5020375e:	1000                	addi	s0,sp,32
    50203760:	fea43423          	sd	a0,-24(s0)
    50203764:	feb43023          	sd	a1,-32(s0)
    50203768:	a0a1                	j	502037b0 <strcmp+0x56>
    5020376a:	fe843783          	ld	a5,-24(s0)
    5020376e:	0007c703          	lbu	a4,0(a5)
    50203772:	fe043783          	ld	a5,-32(s0)
    50203776:	0007c783          	lbu	a5,0(a5)
    5020377a:	02f70163          	beq	a4,a5,5020379c <strcmp+0x42>
    5020377e:	fe843783          	ld	a5,-24(s0)
    50203782:	0007c783          	lbu	a5,0(a5)
    50203786:	0007871b          	sext.w	a4,a5
    5020378a:	fe043783          	ld	a5,-32(s0)
    5020378e:	0007c783          	lbu	a5,0(a5)
    50203792:	2781                	sext.w	a5,a5
    50203794:	40f707bb          	subw	a5,a4,a5
    50203798:	2781                	sext.w	a5,a5
    5020379a:	a099                	j	502037e0 <strcmp+0x86>
    5020379c:	fe843783          	ld	a5,-24(s0)
    502037a0:	0785                	addi	a5,a5,1
    502037a2:	fef43423          	sd	a5,-24(s0)
    502037a6:	fe043783          	ld	a5,-32(s0)
    502037aa:	0785                	addi	a5,a5,1
    502037ac:	fef43023          	sd	a5,-32(s0)
    502037b0:	fe843783          	ld	a5,-24(s0)
    502037b4:	0007c783          	lbu	a5,0(a5)
    502037b8:	c791                	beqz	a5,502037c4 <strcmp+0x6a>
    502037ba:	fe043783          	ld	a5,-32(s0)
    502037be:	0007c783          	lbu	a5,0(a5)
    502037c2:	f7c5                	bnez	a5,5020376a <strcmp+0x10>
    502037c4:	fe843783          	ld	a5,-24(s0)
    502037c8:	0007c783          	lbu	a5,0(a5)
    502037cc:	0007871b          	sext.w	a4,a5
    502037d0:	fe043783          	ld	a5,-32(s0)
    502037d4:	0007c783          	lbu	a5,0(a5)
    502037d8:	2781                	sext.w	a5,a5
    502037da:	40f707bb          	subw	a5,a4,a5
    502037de:	2781                	sext.w	a5,a5
    502037e0:	853e                	mv	a0,a5
    502037e2:	6462                	ld	s0,24(sp)
    502037e4:	6105                	addi	sp,sp,32
    502037e6:	8082                	ret

00000000502037e8 <strcpy>:
    502037e8:	7179                	addi	sp,sp,-48
    502037ea:	f422                	sd	s0,40(sp)
    502037ec:	1800                	addi	s0,sp,48
    502037ee:	fca43c23          	sd	a0,-40(s0)
    502037f2:	fcb43823          	sd	a1,-48(s0)
    502037f6:	fd843783          	ld	a5,-40(s0)
    502037fa:	fef43423          	sd	a5,-24(s0)
    502037fe:	a00d                	j	50203820 <strcpy+0x38>
    50203800:	fd043703          	ld	a4,-48(s0)
    50203804:	00170793          	addi	a5,a4,1
    50203808:	fcf43823          	sd	a5,-48(s0)
    5020380c:	fd843783          	ld	a5,-40(s0)
    50203810:	00178693          	addi	a3,a5,1
    50203814:	fcd43c23          	sd	a3,-40(s0)
    50203818:	00074703          	lbu	a4,0(a4)
    5020381c:	00e78023          	sb	a4,0(a5)
    50203820:	fd043783          	ld	a5,-48(s0)
    50203824:	0007c783          	lbu	a5,0(a5)
    50203828:	ffe1                	bnez	a5,50203800 <strcpy+0x18>
    5020382a:	fd843783          	ld	a5,-40(s0)
    5020382e:	00078023          	sb	zero,0(a5)
    50203832:	fe843783          	ld	a5,-24(s0)
    50203836:	853e                	mv	a0,a5
    50203838:	7422                	ld	s0,40(sp)
    5020383a:	6145                	addi	sp,sp,48
    5020383c:	8082                	ret

000000005020383e <strcat>:
    5020383e:	7179                	addi	sp,sp,-48
    50203840:	f422                	sd	s0,40(sp)
    50203842:	1800                	addi	s0,sp,48
    50203844:	fca43c23          	sd	a0,-40(s0)
    50203848:	fcb43823          	sd	a1,-48(s0)
    5020384c:	fd843783          	ld	a5,-40(s0)
    50203850:	fef43423          	sd	a5,-24(s0)
    50203854:	a031                	j	50203860 <strcat+0x22>
    50203856:	fd843783          	ld	a5,-40(s0)
    5020385a:	0785                	addi	a5,a5,1
    5020385c:	fcf43c23          	sd	a5,-40(s0)
    50203860:	fd843783          	ld	a5,-40(s0)
    50203864:	0007c783          	lbu	a5,0(a5)
    50203868:	f7fd                	bnez	a5,50203856 <strcat+0x18>
    5020386a:	a00d                	j	5020388c <strcat+0x4e>
    5020386c:	fd043703          	ld	a4,-48(s0)
    50203870:	00170793          	addi	a5,a4,1
    50203874:	fcf43823          	sd	a5,-48(s0)
    50203878:	fd843783          	ld	a5,-40(s0)
    5020387c:	00178693          	addi	a3,a5,1
    50203880:	fcd43c23          	sd	a3,-40(s0)
    50203884:	00074703          	lbu	a4,0(a4)
    50203888:	00e78023          	sb	a4,0(a5)
    5020388c:	fd043783          	ld	a5,-48(s0)
    50203890:	0007c783          	lbu	a5,0(a5)
    50203894:	ffe1                	bnez	a5,5020386c <strcat+0x2e>
    50203896:	fd843783          	ld	a5,-40(s0)
    5020389a:	00078023          	sb	zero,0(a5)
    5020389e:	fe843783          	ld	a5,-24(s0)
    502038a2:	853e                	mv	a0,a5
    502038a4:	7422                	ld	s0,40(sp)
    502038a6:	6145                	addi	sp,sp,48
    502038a8:	8082                	ret
